
/home/czg/matrix-matrix-multiply/build/src/dgemm:     file format elf64-x86-64


Disassembly of section .init:

0000000000402000 <_init>:
  402000:	    f3 0f 1e fa          	[33mendbr64[0m
  402004:	    48 83 ec 08          	[33msub    [0m[34mrsp[0m,[35m0x8[0m
  402008:	    48 8b 05 b1 4f 00 00 	[33mmov    [0m[34mrax[0m,QWORD PTR [[34mrip[0m+[35m0x4fb1[0m]        # 406fc0 <__gmon_start__@Base>
  40200f:	    48 85 c0             	[33mtest   [0m[34mrax[0m,[34mrax[0m
  402012:	[37m/[37m-[37m-[0m 74 02                	[33mje     [0m[35m402016[0m <[32m_init[0m[35m+0x[0m[35m16[0m>
  402014:	[37m|[0m   ff d0                	[33mcall   [0m[34mrax[0m
  402016:	[37m\[37m-[37m>[0m 48 83 c4 08          	[33madd    [0m[34mrsp[0m,[35m0x8[0m
  40201a:	    c3                   	[33mret[0m

Disassembly of section .plt:

0000000000402020 <__cxa_begin_catch@plt-0x10>:
  402020:	ff 35 ca 4f 00 00    	[33mpush   [0mQWORD PTR [[34mrip[0m+[35m0x4fca[0m]        # 406ff0 <_GLOBAL_OFFSET_TABLE_+0x8>
  402026:	ff 25 cc 4f 00 00    	[33mjmp    [0mQWORD PTR [[34mrip[0m+[35m0x4fcc[0m]        # 406ff8 <_GLOBAL_OFFSET_TABLE_+0x10>
  40202c:	0f 1f 40 00          	[33mnop    [0mDWORD PTR [[34mrax[0m+[35m0x0[0m]

0000000000402030 <__cxa_begin_catch@plt>:
  402030:	ff 25 ca 4f 00 00    	[33mjmp    [0mQWORD PTR [[34mrip[0m+[35m0x4fca[0m]        # 407000 <__cxa_begin_catch@CXXABI_1.3>
  402036:	68 00 00 00 00       	[33mpush   [0m[35m0x0[0m
  40203b:	e9 e0 ff ff ff       	[33mjmp    [0m[35m402020[0m <[32m_init[0m[35m+0x[0m[35m20[0m>

0000000000402040 <__cxa_allocate_exception@plt>:
  402040:	ff 25 c2 4f 00 00    	[33mjmp    [0mQWORD PTR [[34mrip[0m+[35m0x4fc2[0m]        # 407008 <__cxa_allocate_exception@CXXABI_1.3>
  402046:	68 01 00 00 00       	[33mpush   [0m[35m0x1[0m
  40204b:	e9 d0 ff ff ff       	[33mjmp    [0m[35m402020[0m <[32m_init[0m[35m+0x[0m[35m20[0m>

0000000000402050 <posix_memalign@plt>:
  402050:	ff 25 ba 4f 00 00    	[33mjmp    [0mQWORD PTR [[34mrip[0m+[35m0x4fba[0m]        # 407010 <posix_memalign@GLIBC_2.2.5>
  402056:	68 02 00 00 00       	[33mpush   [0m[35m0x2[0m
  40205b:	e9 c0 ff ff ff       	[33mjmp    [0m[35m402020[0m <[32m_init[0m[35m+0x[0m[35m20[0m>

0000000000402060 <memset@plt>:
  402060:	ff 25 b2 4f 00 00    	[33mjmp    [0mQWORD PTR [[34mrip[0m+[35m0x4fb2[0m]        # 407018 <memset@GLIBC_2.2.5>
  402066:	68 03 00 00 00       	[33mpush   [0m[35m0x3[0m
  40206b:	e9 b0 ff ff ff       	[33mjmp    [0m[35m402020[0m <[32m_init[0m[35m+0x[0m[35m20[0m>

0000000000402070 <_ZNSt9bad_allocD1Ev@plt>:
  402070:	ff 25 aa 4f 00 00    	[33mjmp    [0mQWORD PTR [[34mrip[0m+[35m0x4faa[0m]        # 407020 <_ZNSt9bad_allocD1Ev@GLIBCXX_3.4>
  402076:	68 04 00 00 00       	[33mpush   [0m[35m0x4[0m
  40207b:	e9 a0 ff ff ff       	[33mjmp    [0m[35m402020[0m <[32m_init[0m[35m+0x[0m[35m20[0m>

0000000000402080 <_ZNSo9_M_insertIyEERSoT_@plt>:
  402080:	ff 25 a2 4f 00 00    	[33mjmp    [0mQWORD PTR [[34mrip[0m+[35m0x4fa2[0m]        # 407028 <_ZNSo9_M_insertIyEERSoT_@GLIBCXX_3.4.9>
  402086:	68 05 00 00 00       	[33mpush   [0m[35m0x5[0m
  40208b:	e9 90 ff ff ff       	[33mjmp    [0m[35m402020[0m <[32m_init[0m[35m+0x[0m[35m20[0m>

0000000000402090 <memcpy@plt>:
  402090:	ff 25 9a 4f 00 00    	[33mjmp    [0mQWORD PTR [[34mrip[0m+[35m0x4f9a[0m]        # 407030 <memcpy@GLIBC_2.14>
  402096:	68 06 00 00 00       	[33mpush   [0m[35m0x6[0m
  40209b:	e9 80 ff ff ff       	[33mjmp    [0m[35m402020[0m <[32m_init[0m[35m+0x[0m[35m20[0m>

00000000004020a0 <_ZNSt13random_device7_M_finiEv@plt>:
  4020a0:	ff 25 92 4f 00 00    	[33mjmp    [0mQWORD PTR [[34mrip[0m+[35m0x4f92[0m]        # 407038 <_ZNSt13random_device7_M_finiEv@GLIBCXX_3.4.18>
  4020a6:	68 07 00 00 00       	[33mpush   [0m[35m0x7[0m
  4020ab:	e9 70 ff ff ff       	[33mjmp    [0m[35m402020[0m <[32m_init[0m[35m+0x[0m[35m20[0m>

00000000004020b0 <_Znwm@plt>:
  4020b0:	ff 25 8a 4f 00 00    	[33mjmp    [0mQWORD PTR [[34mrip[0m+[35m0x4f8a[0m]        # 407040 <_Znwm@GLIBCXX_3.4>
  4020b6:	68 08 00 00 00       	[33mpush   [0m[35m0x8[0m
  4020bb:	e9 60 ff ff ff       	[33mjmp    [0m[35m402020[0m <[32m_init[0m[35m+0x[0m[35m20[0m>

00000000004020c0 <_ZdlPvm@plt>:
  4020c0:	ff 25 82 4f 00 00    	[33mjmp    [0mQWORD PTR [[34mrip[0m+[35m0x4f82[0m]        # 407048 <_ZdlPvm@CXXABI_1.3.9>
  4020c6:	68 09 00 00 00       	[33mpush   [0m[35m0x9[0m
  4020cb:	e9 50 ff ff ff       	[33mjmp    [0m[35m402020[0m <[32m_init[0m[35m+0x[0m[35m20[0m>

00000000004020d0 <__stack_chk_fail@plt>:
  4020d0:	ff 25 7a 4f 00 00    	[33mjmp    [0mQWORD PTR [[34mrip[0m+[35m0x4f7a[0m]        # 407050 <__stack_chk_fail@GLIBC_2.4>
  4020d6:	68 0a 00 00 00       	[33mpush   [0m[35m0xa[0m
  4020db:	e9 40 ff ff ff       	[33mjmp    [0m[35m402020[0m <[32m_init[0m[35m+0x[0m[35m20[0m>

00000000004020e0 <_ZSt16__ostream_insertIcSt11char_traitsIcEERSt13basic_ostreamIT_T0_ES6_PKS3_l@plt>:
  4020e0:	ff 25 72 4f 00 00    	[33mjmp    [0mQWORD PTR [[34mrip[0m+[35m0x4f72[0m]        # 407058 <_ZSt16__ostream_insertIcSt11char_traitsIcEERSt13basic_ostreamIT_T0_ES6_PKS3_l@GLIBCXX_3.4.9>
  4020e6:	68 0b 00 00 00       	[33mpush   [0m[35m0xb[0m
  4020eb:	e9 30 ff ff ff       	[33mjmp    [0m[35m402020[0m <[32m_init[0m[35m+0x[0m[35m20[0m>

00000000004020f0 <free@plt>:
  4020f0:	ff 25 6a 4f 00 00    	[33mjmp    [0mQWORD PTR [[34mrip[0m+[35m0x4f6a[0m]        # 407060 <free@GLIBC_2.2.5>
  4020f6:	68 0c 00 00 00       	[33mpush   [0m[35m0xc[0m
  4020fb:	e9 20 ff ff ff       	[33mjmp    [0m[35m402020[0m <[32m_init[0m[35m+0x[0m[35m20[0m>

0000000000402100 <exit@plt>:
  402100:	ff 25 62 4f 00 00    	[33mjmp    [0mQWORD PTR [[34mrip[0m+[35m0x4f62[0m]        # 407068 <exit@GLIBC_2.2.5>
  402106:	68 0d 00 00 00       	[33mpush   [0m[35m0xd[0m
  40210b:	e9 10 ff ff ff       	[33mjmp    [0m[35m402020[0m <[32m_init[0m[35m+0x[0m[35m20[0m>

0000000000402110 <_ZNSt7__cxx1112basic_stringIcSt11char_traitsIcESaIcEE10_M_disposeEv@plt>:
  402110:	ff 25 5a 4f 00 00    	[33mjmp    [0mQWORD PTR [[34mrip[0m+[35m0x4f5a[0m]        # 407070 <_ZNSt7__cxx1112basic_stringIcSt11char_traitsIcESaIcEE10_M_disposeEv@GLIBCXX_3.4.21>
  402116:	68 0e 00 00 00       	[33mpush   [0m[35m0xe[0m
  40211b:	e9 00 ff ff ff       	[33mjmp    [0m[35m402020[0m <[32m_init[0m[35m+0x[0m[35m20[0m>

0000000000402120 <_ZNSt13random_device9_M_getvalEv@plt>:
  402120:	ff 25 52 4f 00 00    	[33mjmp    [0mQWORD PTR [[34mrip[0m+[35m0x4f52[0m]        # 407078 <_ZNSt13random_device9_M_getvalEv@GLIBCXX_3.4.18>
  402126:	68 0f 00 00 00       	[33mpush   [0m[35m0xf[0m
  40212b:	e9 f0 fe ff ff       	[33mjmp    [0m[35m402020[0m <[32m_init[0m[35m+0x[0m[35m20[0m>

0000000000402130 <fprintf@plt>:
  402130:	ff 25 4a 4f 00 00    	[33mjmp    [0mQWORD PTR [[34mrip[0m+[35m0x4f4a[0m]        # 407080 <fprintf@GLIBC_2.2.5>
  402136:	68 10 00 00 00       	[33mpush   [0m[35m0x10[0m
  40213b:	e9 e0 fe ff ff       	[33mjmp    [0m[35m402020[0m <[32m_init[0m[35m+0x[0m[35m20[0m>

0000000000402140 <__cxa_rethrow@plt>:
  402140:	ff 25 42 4f 00 00    	[33mjmp    [0mQWORD PTR [[34mrip[0m+[35m0x4f42[0m]        # 407088 <__cxa_rethrow@CXXABI_1.3>
  402146:	68 11 00 00 00       	[33mpush   [0m[35m0x11[0m
  40214b:	e9 d0 fe ff ff       	[33mjmp    [0m[35m402020[0m <[32m_init[0m[35m+0x[0m[35m20[0m>

0000000000402150 <_ZNSo9_M_insertIdEERSoT_@plt>:
  402150:	ff 25 3a 4f 00 00    	[33mjmp    [0mQWORD PTR [[34mrip[0m+[35m0x4f3a[0m]        # 407090 <_ZNSo9_M_insertIdEERSoT_@GLIBCXX_3.4.9>
  402156:	68 12 00 00 00       	[33mpush   [0m[35m0x12[0m
  40215b:	e9 c0 fe ff ff       	[33mjmp    [0m[35m402020[0m <[32m_init[0m[35m+0x[0m[35m20[0m>

0000000000402160 <gettimeofday@plt>:
  402160:	ff 25 32 4f 00 00    	[33mjmp    [0mQWORD PTR [[34mrip[0m+[35m0x4f32[0m]        # 407098 <gettimeofday@GLIBC_2.2.5>
  402166:	68 13 00 00 00       	[33mpush   [0m[35m0x13[0m
  40216b:	e9 b0 fe ff ff       	[33mjmp    [0m[35m402020[0m <[32m_init[0m[35m+0x[0m[35m20[0m>

0000000000402170 <__cxa_end_catch@plt>:
  402170:	ff 25 2a 4f 00 00    	[33mjmp    [0mQWORD PTR [[34mrip[0m+[35m0x4f2a[0m]        # 4070a0 <__cxa_end_catch@CXXABI_1.3>
  402176:	68 14 00 00 00       	[33mpush   [0m[35m0x14[0m
  40217b:	e9 a0 fe ff ff       	[33mjmp    [0m[35m402020[0m <[32m_init[0m[35m+0x[0m[35m20[0m>

0000000000402180 <__gxx_personality_v0@plt>:
  402180:	ff 25 22 4f 00 00    	[33mjmp    [0mQWORD PTR [[34mrip[0m+[35m0x4f22[0m]        # 4070a8 <__gxx_personality_v0@CXXABI_1.3>
  402186:	68 15 00 00 00       	[33mpush   [0m[35m0x15[0m
  40218b:	e9 90 fe ff ff       	[33mjmp    [0m[35m402020[0m <[32m_init[0m[35m+0x[0m[35m20[0m>

0000000000402190 <_ZNSt13random_device7_M_initERKNSt7__cxx1112basic_stringIcSt11char_traitsIcESaIcEEE@plt>:
  402190:	ff 25 1a 4f 00 00    	[33mjmp    [0mQWORD PTR [[34mrip[0m+[35m0x4f1a[0m]        # 4070b0 <_ZNSt13random_device7_M_initERKNSt7__cxx1112basic_stringIcSt11char_traitsIcESaIcEEE@GLIBCXX_3.4.21>
  402196:	68 16 00 00 00       	[33mpush   [0m[35m0x16[0m
  40219b:	e9 80 fe ff ff       	[33mjmp    [0m[35m402020[0m <[32m_init[0m[35m+0x[0m[35m20[0m>

00000000004021a0 <__cxa_throw@plt>:
  4021a0:	ff 25 12 4f 00 00    	[33mjmp    [0mQWORD PTR [[34mrip[0m+[35m0x4f12[0m]        # 4070b8 <__cxa_throw@CXXABI_1.3>
  4021a6:	68 17 00 00 00       	[33mpush   [0m[35m0x17[0m
  4021ab:	e9 70 fe ff ff       	[33mjmp    [0m[35m402020[0m <[32m_init[0m[35m+0x[0m[35m20[0m>

00000000004021b0 <_Unwind_Resume@plt>:
  4021b0:	ff 25 0a 4f 00 00    	[33mjmp    [0mQWORD PTR [[34mrip[0m+[35m0x4f0a[0m]        # 4070c0 <_Unwind_Resume@GCC_3.0>
  4021b6:	68 18 00 00 00       	[33mpush   [0m[35m0x18[0m
  4021bb:	e9 60 fe ff ff       	[33mjmp    [0m[35m402020[0m <[32m_init[0m[35m+0x[0m[35m20[0m>

00000000004021c0 <_ZNSt7__cxx1112basic_stringIcSt11char_traitsIcESaIcEE9_M_createERmm@plt>:
  4021c0:	ff 25 02 4f 00 00    	[33mjmp    [0mQWORD PTR [[34mrip[0m+[35m0x4f02[0m]        # 4070c8 <_ZNSt7__cxx1112basic_stringIcSt11char_traitsIcESaIcEE9_M_createERmm@GLIBCXX_3.4.21>
  4021c6:	68 19 00 00 00       	[33mpush   [0m[35m0x19[0m
  4021cb:	e9 50 fe ff ff       	[33mjmp    [0m[35m402020[0m <[32m_init[0m[35m+0x[0m[35m20[0m>

Disassembly of section .text:

00000000004021d0 <_Z13calc_speed_upv.cold>:
  4021d0:	                               31 db                	[33mxor    [0m[34mebx[0m,[34mebx[0m
  4021d2:	                               48 8d ac 24 c0 00 00 	[33mlea    [0m[34mrbp[0m,[[34mrsp[0m+[35m0xc0[0m]
  4021d9:	                               00 
  4021da:	                               c5 f8 77             	[33mvzeroupper[0m
  4021dd:	      [32m/---------------------->[0m 48 8d bc 24 a0 00 00 	[33mlea    [0m[34mrdi[0m,[[34mrsp[0m+[35m0xa0[0m]
  4021e4:	      [32m|[0m                        00 
  4021e5:	      [32m|[0m                        e8 26 ff ff ff       	[33mcall   [0m[35m402110[0m <[32m_ZNSt7__cxx1112basic_stringIcSt11char_traitsIcESaIcEE10_M_disposeEv@plt[0m>
  4021ea:	[37m/[37m-[37m-[37m-[37m-[37m-[32m|[37m-[37m-[37m-[37m-[37m-[37m-[37m-[37m-[37m-[37m-[37m-[37m-[37m-[37m-[37m-[37m-[37m-[37m-[37m-[37m-[37m-[37m-[37m>[0m 48 8d bc 24 80 00 00 	[33mlea    [0m[34mrdi[0m,[[34mrsp[0m+[35m0x80[0m]
  4021f1:	[37m|[0m     [32m|[0m                        00 
  4021f2:	[37m|[0m     [32m|[0m                        e8 19 ff ff ff       	[33mcall   [0m[35m402110[0m <[32m_ZNSt7__cxx1112basic_stringIcSt11char_traitsIcESaIcEE10_M_disposeEv@plt[0m>
  4021f7:	[37m|[0m     [32m|[0m           [36m/[36m-[36m-[36m-[36m-[36m-[36m-[36m-[36m-[36m-[36m-[36m>[0m 48 8d 7c 24 60       	[33mlea    [0m[34mrdi[0m,[[34mrsp[0m+[35m0x60[0m]
  4021fc:	[37m|[0m     [32m|[0m           [36m|[0m            e8 0f ff ff ff       	[33mcall   [0m[35m402110[0m <[32m_ZNSt7__cxx1112basic_stringIcSt11char_traitsIcESaIcEE10_M_disposeEv@plt[0m>
  402201:	[37m|[0m     [32m|[0m     [37m/[37m-[37m-[37m-[37m-[37m-[36m|[37m-[37m-[37m-[37m-[37m-[37m-[37m-[37m-[37m-[37m-[37m>[0m 48 8d 7c 24 40       	[33mlea    [0m[34mrdi[0m,[[34mrsp[0m+[35m0x40[0m]
  402206:	[37m|[0m     [32m|[0m     [37m|[0m     [36m|[0m            e8 05 ff ff ff       	[33mcall   [0m[35m402110[0m <[32m_ZNSt7__cxx1112basic_stringIcSt11char_traitsIcESaIcEE10_M_disposeEv@plt[0m>
  40220b:	[37m|[0m     [32m|[0m     [37m|[0m     [36m|[0m            41 bb 03 00 00 00    	[33mmov    [0m[34mr11d[0m,[35m0x3[0m
  402211:	[37m|[0m     [32m|[0m     [37m|[0m     [36m|[0m            49 29 db             	[33msub    [0m[34mr11[0m,[34mrbx[0m
  402214:	[37m|[0m     [32m|[0m     [37m|[0m     [36m|[0m            4d 6b eb 30          	[33mimul   [0m[34mr13[0m,[34mr11[0m,[35m0x30[0m
  402218:	[37m|[0m     [32m|[0m     [37m|[0m     [36m|[0m            49 01 ed             	[33madd    [0m[34mr13[0m,[34mrbp[0m
  40221b:	[37m|[0m     [32m|[0m     [37m|[0m  [32m/[32m-[32m-[36m|[32m-[32m-[32m-[32m-[32m-[32m-[32m-[32m-[32m-[32m-[32m>[0m 49 39 ed             	[33mcmp    [0m[34mr13[0m,[34mrbp[0m
  40221e:	[37m|[0m     [32m|[0m     [37m|[0m  [32m|[0m  [36m|[0m  [33m/--------[0m 75 7d                	[33mjne    [0m[35m40229d[0m <[32m_Z13calc_speed_upv.cold[0m[35m+0x[0m[35mcd[0m>
  402220:	[37m|[0m     [32m|[0m     [37m|[0m  [32m|[0m  [36m|[0m  [33m|[0m         48 8b 84 24 88 01 00 	[33mmov    [0m[34mrax[0m,QWORD PTR [[34mrsp[0m+[35m0x188[0m]
  402227:	[37m|[0m     [32m|[0m     [37m|[0m  [32m|[0m  [36m|[0m  [33m|[0m         00 
  402228:	[37m|[0m     [32m|[0m     [37m|[0m  [32m|[0m  [36m|[0m  [33m|[0m         64 48 2b 04 25 28 00 	[33msub    [0m[34mrax[0m,QWORD PTR [34mfs[0m:0x28
  40222f:	[37m|[0m     [32m|[0m     [37m|[0m  [32m|[0m  [36m|[0m  [33m|[0m         00 00 
  402231:	[37m|[0m     [32m|[0m  [37m/[37m-[37m-[37m|[37m-[37m-[32m|[37m-[37m-[36m|[37m-[37m-[33m|[37m-[37m-[37m-[37m-[37m-[37m-[37m-[37m-[0m 0f 85 95 00 00 00    	[33mjne    [0m[35m4022cc[0m <[32m_Z13calc_speed_upv.cold[0m[35m+0x[0m[35mfc[0m>
  402237:	[37m|[0m     [32m|[0m  [37m|[0m  [37m|[0m  [32m|[0m  [36m|[0m  [33m|[0m         4c 89 f7             	[33mmov    [0m[34mrdi[0m,[34mr14[0m
  40223a:	[37m|[0m     [32m|[0m  [37m|[0m  [37m|[0m  [32m|[0m  [36m|[0m  [33m|[0m         e8 71 ff ff ff       	[33mcall   [0m[35m4021b0[0m <[32m_Unwind_Resume@plt[0m>
  40223f:	[37m|[0m     [32m|[0m  [37m|[0m  [37m|[0m  [32m|[0m  [36m|[0m  [33m|[0m         4d 8d 87 90 00 00 00 	[33mlea    [0m[34mr8[0m,[[34mr15[0m+[35m0x90[0m]
  402246:	[37m|[0m     [32m|[0m  [37m|[0m  [37m|[0m  [32m|[0m  [36m|[0m  [33m|[0m         4c 89 44 24 08       	[33mmov    [0mQWORD PTR [[34mrsp[0m+[35m0x8[0m],[34mr8[0m
  40224b:	[37m|[0m  [36m/[36m-[36m-[32m|[36m-[36m-[37m|[36m-[36m-[37m|[36m-[36m-[32m|[36m-[36m-[36m|[36m-[36m-[33m|[36m-[36m-[36m-[36m-[36m-[36m-[36m-[36m>[0m 48 89 c7             	[33mmov    [0m[34mrdi[0m,[34mrax[0m
  40224e:	[37m|[0m  [36m|[0m  [32m|[0m  [37m|[0m  [37m|[0m  [32m|[0m  [36m|[0m  [33m|[0m         c5 f8 77             	[33mvzeroupper[0m
  402251:	[37m|[0m  [36m|[0m  [32m|[0m  [37m|[0m  [37m|[0m  [32m|[0m  [36m|[0m  [33m|[0m         4d 89 fc             	[33mmov    [0m[34mr12[0m,[34mr15[0m
  402254:	[37m|[0m  [36m|[0m  [32m|[0m  [37m|[0m  [37m|[0m  [32m|[0m  [36m|[0m  [33m|[0m         e8 d7 fd ff ff       	[33mcall   [0m[35m402030[0m <[32m__cxa_begin_catch@plt[0m>
  402259:	[37m|[0m  [36m|[0m  [32m|[0m  [37m|[0m  [37m|[0m  [32m|[0m  [36m|[0m  [33m|[0m     [37m/[37m-[37m>[0m 4c 8b 54 24 08       	[33mmov    [0m[34mr10[0m,QWORD PTR [[34mrsp[0m+[35m0x8[0m]
  40225e:	[37m|[0m  [36m|[0m  [32m|[0m  [37m|[0m  [37m|[0m  [32m|[0m  [36m|[0m  [33m|[0m     [37m|[0m   4d 39 d4             	[33mcmp    [0m[34mr12[0m,[34mr10[0m
  402261:	[37m|[0m  [36m|[0m  [32m|[0m  [37m|[0m  [37m|[0m  [32m|[0m  [36m|[0m  [33m|[0m  /--[37m|[0m-- 74 4c                	[33mje     [0m[35m4022af[0m <[32m_Z13calc_speed_upv.cold[0m[35m+0x[0m[35mdf[0m>
  402263:	[37m|[0m  [36m|[0m  [32m|[0m  [37m|[0m  [37m|[0m  [32m|[0m  [36m|[0m  [33m|[0m  |  [37m|[0m   49 8d 7c 24 08       	[33mlea    [0m[34mrdi[0m,[[34mr12[0m+[35m0x8[0m]
  402268:	[37m|[0m  [36m|[0m  [32m|[0m  [37m|[0m  [37m|[0m  [32m|[0m  [36m|[0m  [33m|[0m  |  [37m|[0m   49 83 c4 30          	[33madd    [0m[34mr12[0m,[35m0x30[0m
  40226c:	[37m|[0m  [36m|[0m  [32m|[0m  [37m|[0m  [37m|[0m  [32m|[0m  [36m|[0m  [33m|[0m  |  [37m|[0m   e8 9f fe ff ff       	[33mcall   [0m[35m402110[0m <[32m_ZNSt7__cxx1112basic_stringIcSt11char_traitsIcESaIcEE10_M_disposeEv@plt[0m>
  402271:	[37m|[0m  [36m|[0m  [32m|[0m  [37m|[0m  [37m|[0m  [32m|[0m  [36m|[0m  [33m|[0m  |  [37m\[37m-[37m-[0m eb e6                	[33mjmp    [0m[35m402259[0m <[32m_Z13calc_speed_upv.cold[0m[35m+0x[0m[35m89[0m>
  402273:	[37m|[0m  [36m|[0m  [32m|[0m  [37m|[0m  [37m|[0m  [32m|[0m  [36m|[0m  [33m|[0m  |      bb 02 00 00 00       	[33mmov    [0m[34mebx[0m,[35m0x2[0m
  402278:	[37m|[0m  [36m|[0m  [32m|[0m  [37m|[0m  [37m|[0m  [32m|[0m  [36m|[0m  [33m|[0m  |      48 8d ac 24 c0 00 00 	[33mlea    [0m[34mrbp[0m,[[34mrsp[0m+[35m0xc0[0m]
  40227f:	[37m|[0m  [36m|[0m  [32m|[0m  [37m|[0m  [37m|[0m  [32m|[0m  [36m|[0m  [33m|[0m  |      00 
  402280:	[37m|[0m  [36m|[0m  [32m|[0m  [37m|[0m  [37m|[0m  [32m|[0m  [36m|[0m  [33m|[0m  |      c5 f8 77             	[33mvzeroupper[0m
  402283:	[37m|[0m  [36m|[0m  [32m|[0m  [37m|[0m  [37m|[0m  [32m|[0m  [36m\[36m-[36m-[33m|[36m-[36m-[0m|[36m-[36m-[36m-[36m-[36m-[0m e9 6f ff ff ff       	[33mjmp    [0m[35m4021f7[0m <[32m_Z13calc_speed_upv.cold[0m[35m+0x[0m[35m27[0m>
  402288:	[37m|[0m  [36m|[0m  [32m|[0m  [37m|[0m  [37m|[0m  [32m|[0m     [33m|[0m  |      bb 02 00 00 00       	[33mmov    [0m[34mebx[0m,[35m0x2[0m
  40228d:	[37m|[0m  [36m|[0m  [32m|[0m  [37m|[0m  [37m|[0m  [32m|[0m     [33m|[0m  |      48 8d ac 24 c0 00 00 	[33mlea    [0m[34mrbp[0m,[[34mrsp[0m+[35m0xc0[0m]
  402294:	[37m|[0m  [36m|[0m  [32m|[0m  [37m|[0m  [37m|[0m  [32m|[0m     [33m|[0m  |      00 
  402295:	[37m|[0m  [36m|[0m  [32m|[0m  [37m|[0m  [37m|[0m  [32m|[0m     [33m|[0m  |      c5 f8 77             	[33mvzeroupper[0m
  402298:	[37m|[0m  [36m|[0m  [32m|[0m  [37m|[0m  [37m\[37m-[37m-[32m|[37m-[37m-[37m-[37m-[37m-[33m|[37m-[37m-[0m|[37m-[37m-[37m-[37m-[37m-[0m e9 64 ff ff ff       	[33mjmp    [0m[35m402201[0m <[32m_Z13calc_speed_upv.cold[0m[35m+0x[0m[35m31[0m>
  40229d:	[37m|[0m  [36m|[0m  [32m|[0m  [37m|[0m     [32m|[0m     [33m\--[0m|[33m---->[0m 49 83 ed 30          	[33msub    [0m[34mr13[0m,[35m0x30[0m
  4022a1:	[37m|[0m  [36m|[0m  [32m|[0m  [37m|[0m     [32m|[0m        |      49 8d 7d 08          	[33mlea    [0m[34mrdi[0m,[[34mr13[0m+[35m0x8[0m]
  4022a5:	[37m|[0m  [36m|[0m  [32m|[0m  [37m|[0m     [32m|[0m        |      e8 66 fe ff ff       	[33mcall   [0m[35m402110[0m <[32m_ZNSt7__cxx1112basic_stringIcSt11char_traitsIcESaIcEE10_M_disposeEv@plt[0m>
  4022aa:	[37m|[0m  [36m|[0m  [32m|[0m  [37m|[0m     [32m\[32m-[32m-[32m-[32m-[32m-[32m-[32m-[32m-[0m|[32m-[32m-[32m-[32m-[32m-[0m e9 6c ff ff ff       	[33mjmp    [0m[35m40221b[0m <[32m_Z13calc_speed_upv.cold[0m[35m+0x[0m[35m4b[0m>
  4022af:	[37m|[0m  [36m|[0m  [32m|[0m  [37m|[0m              \----> 48 8b 84 24 88 01 00 	[33mmov    [0m[34mrax[0m,QWORD PTR [[34mrsp[0m+[35m0x188[0m]
  4022b6:	[37m|[0m  [36m|[0m  [32m|[0m  [37m|[0m                     00 
  4022b7:	[37m|[0m  [36m|[0m  [32m|[0m  [37m|[0m                     64 48 2b 04 25 28 00 	[33msub    [0m[34mrax[0m,QWORD PTR [34mfs[0m:0x28
  4022be:	[37m|[0m  [36m|[0m  [32m|[0m  [37m|[0m                     00 00 
  4022c0:	[37m|[0m  [36m|[0m  [32m|[0m  [37m|[0m                 [34m/[34m-[34m-[0m 75 05                	[33mjne    [0m[35m4022c7[0m <[32m_Z13calc_speed_upv.cold[0m[35m+0x[0m[35mf7[0m>
  4022c2:	[37m|[0m  [36m|[0m  [32m|[0m  [37m|[0m                 [34m|[0m   e8 79 fe ff ff       	[33mcall   [0m[35m402140[0m <[32m__cxa_rethrow@plt[0m>
  4022c7:	[37m|[0m  [36m|[0m  [32m|[0m  [37m|[0m                 [34m\[34m-[34m>[0m e8 04 fe ff ff       	[33mcall   [0m[35m4020d0[0m <[32m__stack_chk_fail@plt[0m>
  4022cc:	[37m|[0m  [36m|[0m  [32m|[0m  [37m\[37m-[37m-[37m-[37m-[37m-[37m-[37m-[37m-[37m-[37m-[37m-[37m-[37m-[37m-[37m-[37m-[37m-[37m-[37m-[37m>[0m e8 ff fd ff ff       	[33mcall   [0m[35m4020d0[0m <[32m__stack_chk_fail@plt[0m>
  4022d1:	[37m|[0m  [36m|[0m  [32m|[0m                        49 89 c6             	[33mmov    [0m[34mr14[0m,[34mrax[0m
  4022d4:	[37m|[0m  [36m|[0m  [32m|[0m                        c5 f8 77             	[33mvzeroupper[0m
  4022d7:	[37m|[0m  [36m|[0m  [32m|[0m                        e8 94 fe ff ff       	[33mcall   [0m[35m402170[0m <[32m__cxa_end_catch@plt[0m>
  4022dc:	[37m|[0m  [36m|[0m  [32m|[0m                        4c 89 ff             	[33mmov    [0m[34mrdi[0m,[34mr15[0m
  4022df:	[37m|[0m  [36m|[0m  [32m|[0m                        be c0 00 00 00       	[33mmov    [0m[34mesi[0m,[35m0xc0[0m
  4022e4:	[37m|[0m  [36m|[0m  [32m|[0m                        4c 8d bc 24 80 01 00 	[33mlea    [0m[34mr15[0m,[[34mrsp[0m+[35m0x180[0m]
  4022eb:	[37m|[0m  [36m|[0m  [32m|[0m                        00 
  4022ec:	[37m|[0m  [36m|[0m  [32m|[0m                        e8 cf fd ff ff       	[33mcall   [0m[35m4020c0[0m <[32m_ZdlPvm@plt[0m>
  4022f1:	[37m|[0m  [36m|[0m  [32m|[0m              [32m/[32m-[32m-[32m-[32m-[32m-[32m-[32m-[32m>[0m 48 8d ac 24 c0 00 00 	[33mlea    [0m[34mrbp[0m,[[34mrsp[0m+[35m0xc0[0m]
  4022f8:	[37m|[0m  [36m|[0m  [32m|[0m              [32m|[0m         00 
  4022f9:	[37m|[0m  [36m|[0m  [32m|[0m              [32m|[0m     [35m/->[0m 49 83 ef 30          	[33msub    [0m[34mr15[0m,[35m0x30[0m
  4022fd:	[37m|[0m  [36m|[0m  [32m|[0m              [32m|[0m     [35m|[0m   49 8d 7f 08          	[33mlea    [0m[34mrdi[0m,[[34mr15[0m+[35m0x8[0m]
  402301:	[37m|[0m  [36m|[0m  [32m|[0m              [32m|[0m     [35m|[0m   e8 0a fe ff ff       	[33mcall   [0m[35m402110[0m <[32m_ZNSt7__cxx1112basic_stringIcSt11char_traitsIcESaIcEE10_M_disposeEv@plt[0m>
  402306:	[37m|[0m  [36m|[0m  [32m|[0m              [32m|[0m     [35m|[0m   49 39 ef             	[33mcmp    [0m[34mr15[0m,[34mrbp[0m
  402309:	[37m|[0m  [36m|[0m  [32m|[0m              [32m|[0m     [35m\--[0m 75 ee                	[33mjne    [0m[35m4022f9[0m <[32m_Z13calc_speed_upv.cold[0m[35m+0x[0m[35m129[0m>
  40230b:	[37m|[0m  [36m|[0m  [32m|[0m              [32m|[0m         bb 03 00 00 00       	[33mmov    [0m[34mebx[0m,[35m0x3[0m
  402310:	[37m|[0m  [36m|[0m  [32m\--------------[32m|[32m--------[0m e9 c8 fe ff ff       	[33mjmp    [0m[35m4021dd[0m <[32m_Z13calc_speed_upv.cold[0m[35m+0x[0m[35md[0m>
  402315:	[37m|[0m  [36m|[0m                 [32m|[0m         4c 89 7c 24 08       	[33mmov    [0mQWORD PTR [[34mrsp[0m+[35m0x8[0m],[34mr15[0m
  40231a:	[37m|[0m  [36m+[36m-[36m-[36m-[36m-[36m-[36m-[36m-[36m-[36m-[36m-[36m-[36m-[36m-[36m-[36m-[36m-[36m-[32m|[36m-[36m-[36m-[36m-[36m-[36m-[36m-[36m-[0m e9 2c ff ff ff       	[33mjmp    [0m[35m40224b[0m <[32m_Z13calc_speed_upv.cold[0m[35m+0x[0m[35m7b[0m>
  40231f:	[37m|[0m  [36m|[0m                 [32m|[0m         48 8d 7c 24 30       	[33mlea    [0m[34mrdi[0m,[[34mrsp[0m+[35m0x30[0m]
  402324:	[37m|[0m  [36m|[0m                 [32m|[0m         c5 f8 77             	[33mvzeroupper[0m
  402327:	[37m|[0m  [36m|[0m                 [32m|[0m         e8 84 22 00 00       	[33mcall   [0m[35m4045b0[0m <[32m_ZN3MtxD1Ev[0m>
  40232c:	[37m|[0m  [36m|[0m                 [32m|[0m         48 8d 7c 24 20       	[33mlea    [0m[34mrdi[0m,[[34mrsp[0m+[35m0x20[0m]
  402331:	[37m|[0m  [36m|[0m                 [32m|[0m         e8 7a 22 00 00       	[33mcall   [0m[35m4045b0[0m <[32m_ZN3MtxD1Ev[0m>
  402336:	[37m|[0m  [36m|[0m                 [32m|[0m         48 8d 7c 24 10       	[33mlea    [0m[34mrdi[0m,[[34mrsp[0m+[35m0x10[0m]
  40233b:	[37m|[0m  [36m|[0m                 [32m|[0m         e8 70 22 00 00       	[33mcall   [0m[35m4045b0[0m <[32m_ZN3MtxD1Ev[0m>
  402340:	[37m|[0m  [36m|[0m                 [32m|[0m         4d 89 fd             	[33mmov    [0m[34mr13[0m,[34mr15[0m
  402343:	[37m|[0m  [36m|[0m                 [32m|[0m  [37m/[37m-[37m-[37m-[37m-[37m>[0m 49 8b 7d 08          	[33mmov    [0m[34mrdi[0m,QWORD PTR [[34mr13[0m+[35m0x8[0m]
  402347:	[37m|[0m  [36m|[0m                 [32m|[0m  [37m|[0m      49 8d 45 18          	[33mlea    [0m[34mrax[0m,[[34mr13[0m+[35m0x18[0m]
  40234b:	[37m|[0m  [36m|[0m                 [32m|[0m  [37m|[0m      48 39 c7             	[33mcmp    [0m[34mrdi[0m,[34mrax[0m
  40234e:	[37m|[0m  [36m|[0m                 [32m|[0m  [37m|[0m  [35m/[35m-[35m-[0m 74 0d                	[33mje     [0m[35m40235d[0m <[32m_Z13calc_speed_upv.cold[0m[35m+0x[0m[35m18d[0m>
  402350:	[37m|[0m  [36m|[0m                 [32m|[0m  [37m|[0m  [35m|[0m   49 8b 75 18          	[33mmov    [0m[34mrsi[0m,QWORD PTR [[34mr13[0m+[35m0x18[0m]
  402354:	[37m|[0m  [36m|[0m                 [32m|[0m  [37m|[0m  [35m|[0m   48 8d 76 01          	[33mlea    [0m[34mrsi[0m,[[34mrsi[0m+[35m0x1[0m]
  402358:	[37m|[0m  [36m|[0m                 [32m|[0m  [37m|[0m  [35m|[0m   e8 63 fd ff ff       	[33mcall   [0m[35m4020c0[0m <[32m_ZdlPvm@plt[0m>
  40235d:	[37m|[0m  [36m|[0m                 [32m|[0m  [37m|[0m  [35m\[35m-[35m>[0m 49 83 c5 30          	[33madd    [0m[34mr13[0m,[35m0x30[0m
  402361:	[37m|[0m  [36m|[0m                 [32m|[0m  [37m|[0m      4c 39 2c 24          	[33mcmp    [0mQWORD PTR [[34mrsp[0m],[34mr13[0m
  402365:	[37m|[0m  [36m|[0m                 [32m|[0m  [37m\[37m-[37m-[37m-[37m-[37m-[0m 75 dc                	[33mjne    [0m[35m402343[0m <[32m_Z13calc_speed_upv.cold[0m[35m+0x[0m[35m173[0m>
  402367:	[37m|[0m  [36m|[0m                 [32m|[0m         be c0 00 00 00       	[33mmov    [0m[34mesi[0m,[35m0xc0[0m
  40236c:	[37m|[0m  [36m|[0m                 [32m|[0m         4c 89 ff             	[33mmov    [0m[34mrdi[0m,[34mr15[0m
  40236f:	[37m|[0m  [36m|[0m                 [32m|[0m         e8 4c fd ff ff       	[33mcall   [0m[35m4020c0[0m <[32m_ZdlPvm@plt[0m>
  402374:	[37m|[0m  [36m|[0m                 [32m|[0m         48 8b 84 24 88 01 00 	[33mmov    [0m[34mrax[0m,QWORD PTR [[34mrsp[0m+[35m0x188[0m]
  40237b:	[37m|[0m  [36m|[0m                 [32m|[0m         00 
  40237c:	[37m|[0m  [36m|[0m                 [32m|[0m         64 48 2b 04 25 28 00 	[33msub    [0m[34mrax[0m,QWORD PTR [34mfs[0m:0x28
  402383:	[37m|[0m  [36m|[0m                 [32m|[0m         00 00 
  402385:	[37m|[0m  [36m|[0m                 [32m|[0m     [36m/[36m-[36m-[0m 75 38                	[33mjne    [0m[35m4023bf[0m <[32m_Z13calc_speed_upv.cold[0m[35m+0x[0m[35m1ef[0m>
  402387:	[37m|[0m  [36m|[0m                 [32m|[0m     [36m|[0m   48 89 df             	[33mmov    [0m[34mrdi[0m,[34mrbx[0m
  40238a:	[37m|[0m  [36m|[0m                 [32m|[0m     [36m|[0m   e8 21 fe ff ff       	[33mcall   [0m[35m4021b0[0m <[32m_Unwind_Resume@plt[0m>
  40238f:	[37m|[0m  [36m|[0m                 [32m|[0m     [36m|[0m   31 db                	[33mxor    [0m[34mebx[0m,[34mebx[0m
  402391:	[37m|[0m  [36m|[0m                 [32m|[0m     [36m|[0m   48 8d ac 24 c0 00 00 	[33mlea    [0m[34mrbp[0m,[[34mrsp[0m+[35m0xc0[0m]
  402398:	[37m|[0m  [36m|[0m                 [32m|[0m     [36m|[0m   00 
  402399:	[37m|[0m  [36m|[0m                 [32m|[0m     [36m|[0m   c5 f8 77             	[33mvzeroupper[0m
  40239c:	[37m\[37m-[37m-[36m|[37m-[37m-[37m-[37m-[37m-[37m-[37m-[37m-[37m-[37m-[37m-[37m-[37m-[37m-[37m-[37m-[37m-[32m|[37m-[37m-[37m-[37m-[37m-[36m|[37m-[37m-[0m e9 49 fe ff ff       	[33mjmp    [0m[35m4021ea[0m <[32m_Z13calc_speed_upv.cold[0m[35m+0x[0m[35m1a[0m>
  4023a1:	   [36m|[0m                 [32m|[0m     [36m|[0m   4c 8d bc 24 80 01 00 	[33mlea    [0m[34mr15[0m,[[34mrsp[0m+[35m0x180[0m]
  4023a8:	   [36m|[0m                 [32m|[0m     [36m|[0m   00 
  4023a9:	   [36m|[0m                 [32m|[0m     [36m|[0m   c5 f8 77             	[33mvzeroupper[0m
  4023ac:	   [36m|[0m                 [32m\[32m-[32m-[32m-[32m-[32m-[36m|[32m-[32m-[0m e9 40 ff ff ff       	[33mjmp    [0m[35m4022f1[0m <[32m_Z13calc_speed_upv.cold[0m[35m+0x[0m[35m121[0m>
  4023b1:	   [36m|[0m                       [36m|[0m   4d 8d 4f 60          	[33mlea    [0m[34mr9[0m,[[34mr15[0m+[35m0x60[0m]
  4023b5:	   [36m|[0m                       [36m|[0m   4c 89 4c 24 08       	[33mmov    [0mQWORD PTR [[34mrsp[0m+[35m0x8[0m],[34mr9[0m
  4023ba:	   [36m\[36m-[36m-[36m-[36m-[36m-[36m-[36m-[36m-[36m-[36m-[36m-[36m-[36m-[36m-[36m-[36m-[36m-[36m-[36m-[36m-[36m-[36m-[36m-[36m|[36m-[36m-[0m e9 8c fe ff ff       	[33mjmp    [0m[35m40224b[0m <[32m_Z13calc_speed_upv.cold[0m[35m+0x[0m[35m7b[0m>
  4023bf:	                           [36m\[36m-[36m>[0m e8 0c fd ff ff       	[33mcall   [0m[35m4020d0[0m <[32m__stack_chk_fail@plt[0m>

00000000004023c4 <_Z5checkv.cold>:
  4023c4:	             90                   	[33mnop[0m
  4023c5:	             49 89 c7             	[33mmov    [0m[34mr15[0m,[34mrax[0m
  4023c8:	             c5 f8 77             	[33mvzeroupper[0m
  4023cb:	             e8 a0 fd ff ff       	[33mcall   [0m[35m402170[0m <[32m__cxa_end_catch@plt[0m>
  4023d0:	             be 50 00 00 00       	[33mmov    [0m[34mesi[0m,[35m0x50[0m
  4023d5:	             48 89 df             	[33mmov    [0m[34mrdi[0m,[34mrbx[0m
  4023d8:	             e8 e3 fc ff ff       	[33mcall   [0m[35m4020c0[0m <[32m_ZdlPvm@plt[0m>
  4023dd:	             48 8d 7d a0          	[33mlea    [0m[34mrdi[0m,[[34mrbp[0m[35m-[0m[35m0x60[0m]
  4023e1:	             e8 2a fd ff ff       	[33mcall   [0m[35m402110[0m <[32m_ZNSt7__cxx1112basic_stringIcSt11char_traitsIcESaIcEE10_M_disposeEv@plt[0m>
  4023e6:	             48 8d bd 78 ff ff ff 	[33mlea    [0m[34mrdi[0m,[[34mrbp[0m-[35m0x88[0m]
  4023ed:	             e8 1e fd ff ff       	[33mcall   [0m[35m402110[0m <[32m_ZNSt7__cxx1112basic_stringIcSt11char_traitsIcESaIcEE10_M_disposeEv@plt[0m>
  4023f2:	             48 8d bd 50 ff ff ff 	[33mlea    [0m[34mrdi[0m,[[34mrbp[0m-[35m0xb0[0m]
  4023f9:	             e8 12 fd ff ff       	[33mcall   [0m[35m402110[0m <[32m_ZNSt7__cxx1112basic_stringIcSt11char_traitsIcESaIcEE10_M_disposeEv@plt[0m>
  4023fe:	             48 8d bd 30 ff ff ff 	[33mlea    [0m[34mrdi[0m,[[34mrbp[0m-[35m0xd0[0m]
  402405:	             e8 06 fd ff ff       	[33mcall   [0m[35m402110[0m <[32m_ZNSt7__cxx1112basic_stringIcSt11char_traitsIcESaIcEE10_M_disposeEv@plt[0m>
  40240a:	             48 8b 45 c8          	[33mmov    [0m[34mrax[0m,QWORD PTR [[34mrbp[0m[35m-[0m[35m0x38[0m]
  40240e:	             64 48 2b 04 25 28 00 	[33msub    [0m[34mrax[0m,QWORD PTR [34mfs[0m:0x28
  402415:	             00 00 
  402417:	   [36m/[36m-[36m-[36m-[36m-[36m-[36m-[36m-[36m-[0m 75 6f                	[33mjne    [0m[35m402488[0m <[32m_Z5checkv.cold[0m[35m+0x[0m[35mc4[0m>
  402419:	   [36m|[0m         4c 89 ff             	[33mmov    [0m[34mrdi[0m,[34mr15[0m
  40241c:	   [36m|[0m         e8 8f fd ff ff       	[33mcall   [0m[35m4021b0[0m <[32m_Unwind_Resume@plt[0m>
  402421:	   [36m|[0m         49 89 de             	[33mmov    [0m[34mr14[0m,[34mrbx[0m
  402424:	   [36m|[0m         c5 f8 77             	[33mvzeroupper[0m
  402427:	   [36m|[0m  [35m/---->[0m 4d 39 f4             	[33mcmp    [0m[34mr12[0m,[34mr14[0m
  40242a:	[32m/--[36m|[32m--[35m|[32m-----[0m 0f 84 89 00 00 00    	[33mje     [0m[35m4024b9[0m <[32m_Z5checkv.cold[0m[35m+0x[0m[35mf5[0m>
  402430:	[32m|[0m  [36m|[0m  [35m|[0m      49 8b 7e 08          	[33mmov    [0m[34mrdi[0m,QWORD PTR [[34mr14[0m+[35m0x8[0m]
  402434:	[32m|[0m  [36m|[0m  [35m|[0m      4d 8d 4e 18          	[33mlea    [0m[34mr9[0m,[[34mr14[0m+[35m0x18[0m]
  402438:	[32m|[0m  [36m|[0m  [35m|[0m      4c 39 cf             	[33mcmp    [0m[34mrdi[0m,[34mr9[0m
  40243b:	[32m|[0m  [36m|[0m  [35m|[0m  [31m/[31m-[31m-[0m 74 0d                	[33mje     [0m[35m40244a[0m <[32m_Z5checkv.cold[0m[35m+0x[0m[35m86[0m>
  40243d:	[32m|[0m  [36m|[0m  [35m|[0m  [31m|[0m   4d 8b 5e 18          	[33mmov    [0m[34mr11[0m,QWORD PTR [[34mr14[0m+[35m0x18[0m]
  402441:	[32m|[0m  [36m|[0m  [35m|[0m  [31m|[0m   49 8d 73 01          	[33mlea    [0m[34mrsi[0m,[[34mr11[0m+[35m0x1[0m]
  402445:	[32m|[0m  [36m|[0m  [35m|[0m  [31m|[0m   e8 76 fc ff ff       	[33mcall   [0m[35m4020c0[0m <[32m_ZdlPvm@plt[0m>
  40244a:	[32m|[0m  [36m|[0m  [35m|[0m  [31m\[31m-[31m>[0m 49 83 c6 28          	[33madd    [0m[34mr14[0m,[35m0x28[0m
  40244e:	[32m|[0m  [36m|[0m  [35m+-----[0m eb d7                	[33mjmp    [0m[35m402427[0m <[32m_Z5checkv.cold[0m[35m+0x[0m[35m63[0m>
  402450:	[32m|[0m  [36m|[0m  [35m|[0m      48 8d bd 20 ff ff ff 	[33mlea    [0m[34mrdi[0m,[[34mrbp[0m-[35m0xe0[0m]
  402457:	[32m|[0m  [36m|[0m  [35m|[0m      c5 f8 77             	[33mvzeroupper[0m
  40245a:	[32m|[0m  [36m|[0m  [35m|[0m      e8 51 21 00 00       	[33mcall   [0m[35m4045b0[0m <[32m_ZN3MtxD1Ev[0m>
  40245f:	[32m|[0m  [36m|[0m  [35m|[0m      48 8d bd 10 ff ff ff 	[33mlea    [0m[34mrdi[0m,[[34mrbp[0m-[35m0xf0[0m]
  402466:	[32m|[0m  [36m|[0m  [35m|[0m      e8 45 21 00 00       	[33mcall   [0m[35m4045b0[0m <[32m_ZN3MtxD1Ev[0m>
  40246b:	[32m|[0m  [36m|[0m  [35m|[0m      48 8d bd 00 ff ff ff 	[33mlea    [0m[34mrdi[0m,[[34mrbp[0m-[35m0x100[0m]
  402472:	[32m|[0m  [36m|[0m  [35m|[0m      e8 39 21 00 00       	[33mcall   [0m[35m4045b0[0m <[32m_ZN3MtxD1Ev[0m>
  402477:	[32m|[0m  [36m|[0m  [35m|[0m      48 8d bd f0 fe ff ff 	[33mlea    [0m[34mrdi[0m,[[34mrbp[0m-[35m0x110[0m]
  40247e:	[32m|[0m  [36m|[0m  [35m|[0m      49 89 de             	[33mmov    [0m[34mr14[0m,[34mrbx[0m
  402481:	[32m|[0m  [36m|[0m  [35m|[0m      e8 2a 21 00 00       	[33mcall   [0m[35m4045b0[0m <[32m_ZN3MtxD1Ev[0m>
  402486:	[32m|[0m  [36m|[0m  [35m\-----[0m eb 9f                	[33mjmp    [0m[35m402427[0m <[32m_Z5checkv.cold[0m[35m+0x[0m[35m63[0m>
  402488:	[32m|[0m  [36m\[36m-[36m-[36m-[36m-[36m-[36m-[36m-[36m>[0m e8 43 fc ff ff       	[33mcall   [0m[35m4020d0[0m <[32m__stack_chk_fail@plt[0m>
  40248d:	[32m|[0m            49 89 dd             	[33mmov    [0m[34mr13[0m,[34mrbx[0m
  402490:	[32m|[0m     [32m/[32m-[32m-[32m-[32m-[32m>[0m 48 89 c7             	[33mmov    [0m[34mrdi[0m,[34mrax[0m
  402493:	[32m|[0m     [32m|[0m      c5 f8 77             	[33mvzeroupper[0m
  402496:	[32m|[0m     [32m|[0m      49 89 dc             	[33mmov    [0m[34mr12[0m,[34mrbx[0m
  402499:	[32m|[0m     [32m|[0m      e8 92 fb ff ff       	[33mcall   [0m[35m402030[0m <[32m__cxa_begin_catch@plt[0m>
  40249e:	[32m|[0m     [32m|[0m  [37m/[37m-[37m>[0m 4d 39 ec             	[33mcmp    [0m[34mr12[0m,[34mr13[0m
  4024a1:	[32m|[0m  [31m/[31m-[31m-[32m|[31m-[31m-[37m|[31m-[31m-[0m 74 3f                	[33mje     [0m[35m4024e2[0m <[32m_Z5checkv.cold[0m[35m+0x[0m[35m11e[0m>
  4024a3:	[32m|[0m  [31m|[0m  [32m|[0m  [37m|[0m   49 8d 7c 24 08       	[33mlea    [0m[34mrdi[0m,[[34mr12[0m+[35m0x8[0m]
  4024a8:	[32m|[0m  [31m|[0m  [32m|[0m  [37m|[0m   49 83 c4 28          	[33madd    [0m[34mr12[0m,[35m0x28[0m
  4024ac:	[32m|[0m  [31m|[0m  [32m|[0m  [37m|[0m   e8 5f fc ff ff       	[33mcall   [0m[35m402110[0m <[32m_ZNSt7__cxx1112basic_stringIcSt11char_traitsIcESaIcEE10_M_disposeEv@plt[0m>
  4024b1:	[32m|[0m  [31m|[0m  [32m|[0m  [37m\[37m-[37m-[0m eb eb                	[33mjmp    [0m[35m40249e[0m <[32m_Z5checkv.cold[0m[35m+0x[0m[35mda[0m>
  4024b3:	[32m|[0m  [31m|[0m  [32m|[0m      4c 8d 6b 28          	[33mlea    [0m[34mr13[0m,[[34mrbx[0m+[35m0x28[0m]
  4024b7:	[32m|[0m  [31m|[0m  [32m\[32m-[32m-[32m-[32m-[32m-[0m eb d7                	[33mjmp    [0m[35m402490[0m <[32m_Z5checkv.cold[0m[35m+0x[0m[35mcc[0m>
  4024b9:	[32m\--[31m|[32m------->[0m be 50 00 00 00       	[33mmov    [0m[34mesi[0m,[35m0x50[0m
  4024be:	   [31m|[0m         48 89 df             	[33mmov    [0m[34mrdi[0m,[34mrbx[0m
  4024c1:	   [31m|[0m         e8 fa fb ff ff       	[33mcall   [0m[35m4020c0[0m <[32m_ZdlPvm@plt[0m>
  4024c6:	   [31m|[0m         48 8b 45 c8          	[33mmov    [0m[34mrax[0m,QWORD PTR [[34mrbp[0m[35m-[0m[35m0x38[0m]
  4024ca:	   [31m|[0m         64 48 2b 04 25 28 00 	[33msub    [0m[34mrax[0m,QWORD PTR [34mfs[0m:0x28
  4024d1:	   [31m|[0m         00 00 
  4024d3:	   [31m|[0m     [33m/[33m-[33m-[0m 75 08                	[33mjne    [0m[35m4024dd[0m <[32m_Z5checkv.cold[0m[35m+0x[0m[35m119[0m>
  4024d5:	   [31m|[0m     [33m|[0m   4c 89 ff             	[33mmov    [0m[34mrdi[0m,[34mr15[0m
  4024d8:	   [31m|[0m     [33m|[0m   e8 d3 fc ff ff       	[33mcall   [0m[35m4021b0[0m <[32m_Unwind_Resume@plt[0m>
  4024dd:	   [31m|[0m     [33m\[33m-[33m>[0m e8 ee fb ff ff       	[33mcall   [0m[35m4020d0[0m <[32m__stack_chk_fail@plt[0m>
  4024e2:	   [31m\[31m-[31m-[31m-[31m-[31m-[31m-[31m-[31m>[0m 48 8b 45 c8          	[33mmov    [0m[34mrax[0m,QWORD PTR [[34mrbp[0m[35m-[0m[35m0x38[0m]
  4024e6:	             64 48 2b 04 25 28 00 	[33msub    [0m[34mrax[0m,QWORD PTR [34mfs[0m:0x28
  4024ed:	             00 00 
  4024ef:	         [36m/--[0m 75 05                	[33mjne    [0m[35m4024f6[0m <[32m_Z5checkv.cold[0m[35m+0x[0m[35m132[0m>
  4024f1:	         [36m|[0m   e8 4a fc ff ff       	[33mcall   [0m[35m402140[0m <[32m__cxa_rethrow@plt[0m>
  4024f6:	         [36m\->[0m e8 d5 fb ff ff       	[33mcall   [0m[35m4020d0[0m <[32m__stack_chk_fail@plt[0m>
  4024fb:	             90                   	[33mnop[0m

00000000004024fc <_ZN3MtxC2Ej.cold>:
  4024fc:	    31 c0                	[33mxor    [0m[34meax[0m,[34meax[0m
  4024fe:	    48 89 03             	[33mmov    [0mQWORD PTR [[34mrbx[0m],[34mrax[0m
  402501:	    bf 08 00 00 00       	[33mmov    [0m[34medi[0m,[35m0x8[0m
  402506:	    e8 35 fb ff ff       	[33mcall   [0m[35m402040[0m <[32m__cxa_allocate_exception@plt[0m>
  40250b:	    48 c7 00 70 6d 40 00 	[33mmov    [0mQWORD PTR [[34mrax[0m],[35m0x406d70[0m
  402512:	    48 89 c7             	[33mmov    [0m[34mrdi[0m,[34mrax[0m
  402515:	    48 8b 44 24 08       	[33mmov    [0m[34mrax[0m,QWORD PTR [[34mrsp[0m+[35m0x8[0m]
  40251a:	    64 48 2b 04 25 28 00 	[33msub    [0m[34mrax[0m,QWORD PTR [34mfs[0m:0x28
  402521:	    00 00 
  402523:	[32m/--[0m 75 0f                	[33mjne    [0m[35m402534[0m <[32m_ZN3MtxC2Ej.cold[0m[35m+0x[0m[35m38[0m>
  402525:	[32m|[0m   ba 70 20 40 00       	[33mmov    [0m[34medx[0m,[35m0x402070[0m
  40252a:	[32m|[0m   be 88 6d 40 00       	[33mmov    [0m[34mesi[0m,[35m0x406d88[0m
  40252f:	[32m|[0m   e8 6c fc ff ff       	[33mcall   [0m[35m4021a0[0m <[32m__cxa_throw@plt[0m>
  402534:	[32m\->[0m e8 97 fb ff ff       	[33mcall   [0m[35m4020d0[0m <[32m__stack_chk_fail@plt[0m>
  402539:	    90                   	[33mnop[0m

000000000040253a <_ZN3Mtx8generateEdd.cold>:
  40253a:	       48 8d 7c 24 20       	[33mlea    [0m[34mrdi[0m,[[34mrsp[0m+[35m0x20[0m]
  40253f:	       c5 f8 77             	[33mvzeroupper[0m
  402542:	       e8 59 fb ff ff       	[33mcall   [0m[35m4020a0[0m <[32m_ZNSt13random_device7_M_finiEv@plt[0m>
  402547:	       48 8b 84 24 38 27 00 	[33mmov    [0m[34mrax[0m,QWORD PTR [[34mrsp[0m+[35m0x2738[0m]
  40254e:	       00 
  40254f:	       64 48 2b 04 25 28 00 	[33msub    [0m[34mrax[0m,QWORD PTR [34mfs[0m:0x28
  402556:	       00 00 
  402558:	[33m/[33m-[33m-[33m-[33m-[33m-[0m 75 33                	[33mjne    [0m[35m40258d[0m <[32m_ZN3Mtx8generateEdd.cold[0m[35m+0x[0m[35m53[0m>
  40255a:	[33m|[0m      48 89 ef             	[33mmov    [0m[34mrdi[0m,[34mrbp[0m
  40255d:	[33m|[0m      e8 4e fc ff ff       	[33mcall   [0m[35m4021b0[0m <[32m_Unwind_Resume@plt[0m>
  402562:	[33m|[0m      48 8d bc 24 b0 13 00 	[33mlea    [0m[34mrdi[0m,[[34mrsp[0m+[35m0x13b0[0m]
  402569:	[33m|[0m      00 
  40256a:	[33m|[0m      c5 f8 77             	[33mvzeroupper[0m
  40256d:	[33m|[0m      e8 9e fb ff ff       	[33mcall   [0m[35m402110[0m <[32m_ZNSt7__cxx1112basic_stringIcSt11char_traitsIcESaIcEE10_M_disposeEv@plt[0m>
  402572:	[33m|[0m      48 8b 84 24 38 27 00 	[33mmov    [0m[34mrax[0m,QWORD PTR [[34mrsp[0m+[35m0x2738[0m]
  402579:	[33m|[0m      00 
  40257a:	[33m|[0m      64 48 2b 04 25 28 00 	[33msub    [0m[34mrax[0m,QWORD PTR [34mfs[0m:0x28
  402581:	[33m|[0m      00 00 
  402583:	[33m|[0m  [32m/--[0m 75 0d                	[33mjne    [0m[35m402592[0m <[32m_ZN3Mtx8generateEdd.cold[0m[35m+0x[0m[35m58[0m>
  402585:	[33m|[0m  [32m|[0m   48 89 df             	[33mmov    [0m[34mrdi[0m,[34mrbx[0m
  402588:	[33m|[0m  [32m|[0m   e8 23 fc ff ff       	[33mcall   [0m[35m4021b0[0m <[32m_Unwind_Resume@plt[0m>
  40258d:	[33m\[33m-[33m-[32m|[33m-[33m>[0m e8 3e fb ff ff       	[33mcall   [0m[35m4020d0[0m <[32m__stack_chk_fail@plt[0m>
  402592:	   [32m\->[0m e8 39 fb ff ff       	[33mcall   [0m[35m4020d0[0m <[32m__stack_chk_fail@plt[0m>
  402597:	       66 0f 1f 84 00 00 00 	[33mnop    [0mWORD PTR [[34mrax[0m+[34mrax[0m*[35m1[0m+[35m0x0[0m]
  40259e:	       00 00 

00000000004025a0 <main>:
  4025a0:	48 83 ec 08          	[33msub    [0m[34mrsp[0m,[35m0x8[0m
  4025a4:	e8 c7 0c 00 00       	[33mcall   [0m[35m403270[0m <[32m_Z5checkv[0m>
  4025a9:	e8 02 01 00 00       	[33mcall   [0m[35m4026b0[0m <[32m_Z13calc_speed_upv[0m>
  4025ae:	31 c0                	[33mxor    [0m[34meax[0m,[34meax[0m
  4025b0:	48 83 c4 08          	[33madd    [0m[34mrsp[0m,[35m0x8[0m
  4025b4:	c3                   	[33mret[0m
  4025b5:	66 2e 0f 1f 84 00 00 	[33mcs [0m[33mnop [0mWORD PTR [[34mrax[0m+[34mrax[0m*[35m1[0m+[35m0x0[0m]
  4025bc:	00 00 00 
  4025bf:	90                   	[33mnop[0m

00000000004025c0 <_start>:
  4025c0:	f3 0f 1e fa          	[33mendbr64[0m
  4025c4:	31 ed                	[33mxor    [0m[34mebp[0m,[34mebp[0m
  4025c6:	49 89 d1             	[33mmov    [0m[34mr9[0m,[34mrdx[0m
  4025c9:	5e                   	[33mpop    [0m[34mrsi[0m
  4025ca:	48 89 e2             	[33mmov    [0m[34mrdx[0m,[34mrsp[0m
  4025cd:	48 83 e4 f0          	[33mand    [0m[34mrsp[0m,[35m0xfffffffffffffff0[0m
  4025d1:	50                   	[33mpush   [0m[34mrax[0m
  4025d2:	54                   	[33mpush   [0m[34mrsp[0m
  4025d3:	45 31 c0             	[33mxor    [0m[34mr8d[0m,[34mr8d[0m
  4025d6:	31 c9                	[33mxor    [0m[34mecx[0m,[34mecx[0m
  4025d8:	48 c7 c7 a0 25 40 00 	[33mmov    [0m[34mrdi[0m,[35m0x4025a0[0m
  4025df:	ff 15 cb 49 00 00    	[33mcall   [0mQWORD PTR [[34mrip[0m+[35m0x49cb[0m]        # 406fb0 <__libc_start_main@GLIBC_2.34>
  4025e5:	f4                   	[33mhlt[0m
  4025e6:	66 2e 0f 1f 84 00 00 	[33mcs [0m[33mnop [0mWORD PTR [[34mrax[0m+[34mrax[0m*[35m1[0m+[35m0x0[0m]
  4025ed:	00 00 00 

00000000004025f0 <_dl_relocate_static_pie>:
  4025f0:	          f3 0f 1e fa          	[33mendbr64[0m
  4025f4:	          c3                   	[33mret[0m
  4025f5:	          66 2e 0f 1f 84 00 00 	[33mcs [0m[33mnop [0mWORD PTR [[34mrax[0m+[34mrax[0m*[35m1[0m+[35m0x0[0m]
  4025fc:	          00 00 00 
  4025ff:	          90                   	[33mnop[0m
  402600:	[35m/------->[0m b8 e0 70 40 00       	[33mmov    [0m[34meax[0m,[35m0x4070e0[0m
  402605:	[35m|[0m         48 3d e0 70 40 00    	[33mcmp    [0m[34mrax[0m,[35m0x4070e0[0m
  40260b:	[35m|[0m     [36m/--[0m 74 13                	[33mje     [0m[35m402620[0m <[32m_dl_relocate_static_pie[0m[35m+0x[0m[35m30[0m>
  40260d:	[35m|[0m     [36m|[0m   48 8b 05 a4 49 00 00 	[33mmov    [0m[34mrax[0m,QWORD PTR [[34mrip[0m+[35m0x49a4[0m]        # 406fb8 <_ITM_deregisterTMCloneTable@Base>
  402614:	[35m|[0m     [36m|[0m   48 85 c0             	[33mtest   [0m[34mrax[0m,[34mrax[0m
  402617:	[35m|[0m     [36m+--[0m 74 07                	[33mje     [0m[35m402620[0m <[32m_dl_relocate_static_pie[0m[35m+0x[0m[35m30[0m>
  402619:	[35m|[0m     [36m|[0m   bf e0 70 40 00       	[33mmov    [0m[34medi[0m,[35m0x4070e0[0m
  40261e:	[35m|[0m     [36m|[0m   ff e0                	[33mjmp    [0m[34mrax[0m
  402620:	[35m|[0m     [36m\->[0m c3                   	[33mret[0m
  402621:	[35m|[0m         66 66 2e 0f 1f 84 00 	[33mdata16 [0m[33mcs [0m[33mnop [0mWORD PTR [[34mrax[0m+[34mrax[0m*[35m1[0m+[35m0x0[0m]
  402628:	[35m|[0m         00 00 00 00 
  40262c:	[35m|[0m         0f 1f 40 00          	[33mnop    [0mDWORD PTR [[34mrax[0m+[35m0x0[0m]
  402630:	[35m|[0m  [32m/---->[0m be e0 70 40 00       	[33mmov    [0m[34mesi[0m,[35m0x4070e0[0m
  402635:	[35m|[0m  [32m|[0m      48 81 ee e0 70 40 00 	[33msub    [0m[34mrsi[0m,[35m0x4070e0[0m
  40263c:	[35m|[0m  [32m|[0m      48 89 f0             	[33mmov    [0m[34mrax[0m,[34mrsi[0m
  40263f:	[35m|[0m  [32m|[0m      48 c1 ee 3f          	[33mshr    [0m[34mrsi[0m,[35m0x3f[0m
  402643:	[35m|[0m  [32m|[0m      48 c1 f8 03          	[33msar    [0m[34mrax[0m,[35m0x3[0m
  402647:	[35m|[0m  [32m|[0m      48 01 c6             	[33madd    [0m[34mrsi[0m,[34mrax[0m
  40264a:	[35m|[0m  [32m|[0m      48 d1 fe             	[33msar    [0m[34mrsi[0m,1
  40264d:	[35m|[0m  [32m|[0m  [35m/[35m-[35m-[0m 74 19                	[33mje     [0m[35m402668[0m <[32m_dl_relocate_static_pie[0m[35m+0x[0m[35m78[0m>
  40264f:	[35m|[0m  [32m|[0m  [35m|[0m   48 8b 05 72 49 00 00 	[33mmov    [0m[34mrax[0m,QWORD PTR [[34mrip[0m+[35m0x4972[0m]        # 406fc8 <_ITM_registerTMCloneTable@Base>
  402656:	[35m|[0m  [32m|[0m  [35m|[0m   48 85 c0             	[33mtest   [0m[34mrax[0m,[34mrax[0m
  402659:	[35m|[0m  [32m|[0m  [35m+[35m-[35m-[0m 74 0d                	[33mje     [0m[35m402668[0m <[32m_dl_relocate_static_pie[0m[35m+0x[0m[35m78[0m>
  40265b:	[35m|[0m  [32m|[0m  [35m|[0m   bf e0 70 40 00       	[33mmov    [0m[34medi[0m,[35m0x4070e0[0m
  402660:	[35m|[0m  [32m|[0m  [35m|[0m   ff e0                	[33mjmp    [0m[34mrax[0m
  402662:	[35m|[0m  [32m|[0m  [35m|[0m   66 0f 1f 44 00 00    	[33mnop    [0mWORD PTR [[34mrax[0m+[34mrax[0m*[35m1[0m+[35m0x0[0m]
  402668:	[35m|[0m  [32m|[0m  [35m\[35m-[35m>[0m c3                   	[33mret[0m
  402669:	[35m|[0m  [32m|[0m      0f 1f 80 00 00 00 00 	[33mnop    [0mDWORD PTR [[34mrax[0m+[35m0x0[0m]
  402670:	[35m|[0m  [32m|[0m      f3 0f 1e fa          	[33mendbr64[0m
  402674:	[35m|[0m  [32m|[0m      80 3d ad 4b 00 00 00 	[33mcmp    [0mBYTE PTR [[34mrip[0m+[35m0x4bad[0m],[35m0x0[0m        # 407228 <stderr@GLIBC_2.2.5+0x8>
  40267b:	[35m|[0m  [32m|[0m  [33m/--[0m 75 13                	[33mjne    [0m[35m402690[0m <[32m_dl_relocate_static_pie[0m[35m+0x[0m[35ma0[0m>
  40267d:	[35m|[0m  [32m|[0m  [33m|[0m   55                   	[33mpush   [0m[34mrbp[0m
  40267e:	[35m|[0m  [32m|[0m  [33m|[0m   48 89 e5             	[33mmov    [0m[34mrbp[0m,[34mrsp[0m
  402681:	[35m\--[32m|[35m--[33m|[35m--[0m e8 7a ff ff ff       	[33mcall   [0m[35m402600[0m <[32m_dl_relocate_static_pie[0m[35m+0x[0m[35m10[0m>
  402686:	   [32m|[0m  [33m|[0m   c6 05 9b 4b 00 00 01 	[33mmov    [0mBYTE PTR [[34mrip[0m+[35m0x4b9b[0m],[35m0x1[0m        # 407228 <stderr@GLIBC_2.2.5+0x8>
  40268d:	   [32m|[0m  [33m|[0m   5d                   	[33mpop    [0m[34mrbp[0m
  40268e:	   [32m|[0m  [33m|[0m   c3                   	[33mret[0m
  40268f:	   [32m|[0m  [33m|[0m   90                   	[33mnop[0m
  402690:	   [32m|[0m  [33m\->[0m c3                   	[33mret[0m
  402691:	   [32m|[0m      66 66 2e 0f 1f 84 00 	[33mdata16 [0m[33mcs [0m[33mnop [0mWORD PTR [[34mrax[0m+[34mrax[0m*[35m1[0m+[35m0x0[0m]
  402698:	   [32m|[0m      00 00 00 00 
  40269c:	   [32m|[0m      0f 1f 40 00          	[33mnop    [0mDWORD PTR [[34mrax[0m+[35m0x0[0m]
  4026a0:	   [32m|[0m      f3 0f 1e fa          	[33mendbr64[0m
  4026a4:	   [32m\-----[0m eb 8a                	[33mjmp    [0m[35m402630[0m <[32m_dl_relocate_static_pie[0m[35m+0x[0m[35m40[0m>
  4026a6:	          66 2e 0f 1f 84 00 00 	[33mcs [0m[33mnop [0mWORD PTR [[34mrax[0m+[34mrax[0m*[35m1[0m+[35m0x0[0m]
  4026ad:	          00 00 00 

00000000004026b0 <_Z13calc_speed_upv>:
  4026b0:	                                                                                                                            41 57                	[33mpush   [0m[34mr15[0m
  4026b2:	                                                                                                                            41 56                	[33mpush   [0m[34mr14[0m
  4026b4:	                                                                                                                            41 55                	[33mpush   [0m[34mr13[0m
  4026b6:	                                                                                                                            41 54                	[33mpush   [0m[34mr12[0m
  4026b8:	                                                                                                                            55                   	[33mpush   [0m[34mrbp[0m
  4026b9:	                                                                                                                            53                   	[33mpush   [0m[34mrbx[0m
  4026ba:	                                                                                                                            48 81 ec 98 01 00 00 	[33msub    [0m[34mrsp[0m,[35m0x198[0m
  4026c1:	                                                                                                                            64 48 8b 04 25 28 00 	[33mmov    [0m[34mrax[0m,QWORD PTR [34mfs[0m:0x28
  4026c8:	                                                                                                                            00 00 
  4026ca:	                                                                                                                            48 89 84 24 88 01 00 	[33mmov    [0mQWORD PTR [[34mrsp[0m+[35m0x188[0m],[34mrax[0m
  4026d1:	                                                                                                                            00 
  4026d2:	                                                                                                                            31 c0                	[33mxor    [0m[34meax[0m,[34meax[0m
  4026d4:	                                                                                                                            48 b8 64 67 65 6d 6d 	[33mmovabs [0m[34mrax[0m,[35m0x61625f6d6d656764[0m
  4026db:	                                                                                                                            5f 62 61 
  4026de:	                                                                                                                            48 8d 94 24 d8 00 00 	[33mlea    [0m[34mrdx[0m,[[34mrsp[0m+[35m0xd8[0m]
  4026e5:	                                                                                                                            00 
  4026e6:	                                                                                                                            4c 8d 74 24 50       	[33mlea    [0m[34mr14[0m,[[34mrsp[0m+[35m0x50[0m]
  4026eb:	                                                                                                                            48 8d 5c 24 70       	[33mlea    [0m[34mrbx[0m,[[34mrsp[0m+[35m0x70[0m]
  4026f0:	                                                                                                                            48 89 44 24 50       	[33mmov    [0mQWORD PTR [[34mrsp[0m+[35m0x50[0m],[34mrax[0m
  4026f5:	                                                                                                                            c7 44 24 57 61 73 69 	[33mmov    [0mDWORD PTR [[34mrsp[0m+[35m0x57[0m],[35m0x63697361[0m
  4026fc:	                                                                                                                            63 
  4026fd:	                                                                                                                            48 8b 4c 24 50       	[33mmov    [0m[34mrcx[0m,QWORD PTR [[34mrsp[0m+[35m0x50[0m]
  402702:	                                                                                                                            48 89 94 24 c8 00 00 	[33mmov    [0mQWORD PTR [[34mrsp[0m+[35m0xc8[0m],[34mrdx[0m
  402709:	                                                                                                                            00 
  40270a:	                                                                                                                            48 8d 74 24 30       	[33mlea    [0m[34mrsi[0m,[[34mrsp[0m+[35m0x30[0m]
  40270f:	                                                                                                                            31 d2                	[33mxor    [0m[34medx[0m,[34medx[0m
  402711:	                                                                                                                            48 8d 7c 24 60       	[33mlea    [0m[34mrdi[0m,[[34mrsp[0m+[35m0x60[0m]
  402716:	                                                                                                                            4c 89 74 24 40       	[33mmov    [0mQWORD PTR [[34mrsp[0m+[35m0x40[0m],[34mr14[0m
  40271b:	                                                                                                                            48 c7 44 24 48 0b 00 	[33mmov    [0mQWORD PTR [[34mrsp[0m+[35m0x48[0m],[35m0xb[0m
  402722:	                                                                                                                            00 00 
  402724:	                                                                                                                            c6 44 24 5b 00       	[33mmov    [0mBYTE PTR [[34mrsp[0m+[35m0x5b[0m],[35m0x0[0m
  402729:	                                                                                                                            48 c7 84 24 c0 00 00 	[33mmov    [0mQWORD PTR [[34mrsp[0m+[35m0xc0[0m],[35m0x403e80[0m
  402730:	                                                                                                                            00 80 3e 40 00 
  402735:	                                                                                                                            48 c7 84 24 d0 00 00 	[33mmov    [0mQWORD PTR [[34mrsp[0m+[35m0xd0[0m],[35m0xb[0m
  40273c:	                                                                                                                            00 0b 00 00 00 
  402741:	                                                                                                                            c6 84 24 e3 00 00 00 	[33mmov    [0mBYTE PTR [[34mrsp[0m+[35m0xe3[0m],[35m0x0[0m
  402748:	                                                                                                                            00 
  402749:	                                                                                                                            48 c7 84 24 e8 00 00 	[33mmov    [0mQWORD PTR [[34mrsp[0m+[35m0xe8[0m],[35m0x0[0m
  402750:	                                                                                                                            00 00 00 00 00 
  402755:	                                                                                                                            48 89 8c 24 d8 00 00 	[33mmov    [0mQWORD PTR [[34mrsp[0m+[35m0xd8[0m],[34mrcx[0m
  40275c:	                                                                                                                            00 
  40275d:	                                                                                                                            48 89 5c 24 60       	[33mmov    [0mQWORD PTR [[34mrsp[0m+[35m0x60[0m],[34mrbx[0m
  402762:	                                                                                                                            c7 84 24 df 00 00 00 	[33mmov    [0mDWORD PTR [[34mrsp[0m+[35m0xdf[0m],[35m0x63697361[0m
  402769:	                                                                                                                            61 73 69 63 
  40276d:	                                                                                                                            48 c7 44 24 30 13 00 	[33mmov    [0mQWORD PTR [[34mrsp[0m+[35m0x30[0m],[35m0x13[0m
  402774:	                                                                                                                            00 00 
  402776:	                                                                                                                            e8 45 fa ff ff       	[33mcall   [0m[35m4021c0[0m <[32m_ZNSt7__cxx1112basic_stringIcSt11char_traitsIcESaIcEE9_M_createERmm@plt[0m>
  40277b:	                                                                                                                            c5 f9 6f 05 dd 28 00 	[33mvmovdqa [0m[34mxmm0[0m,XMMWORD PTR [[34mrip[0m+[35m0x28dd[0m]        # 405060 <_IO_stdin_used+0x60>
  402782:	                                                                                                                            00 
  402783:	                                                                                                                            48 8b 74 24 30       	[33mmov    [0m[34mrsi[0m,QWORD PTR [[34mrsp[0m+[35m0x30[0m]
  402788:	                                                                                                                            48 89 44 24 60       	[33mmov    [0mQWORD PTR [[34mrsp[0m+[35m0x60[0m],[34mrax[0m
  40278d:	                                                                                                                            4c 8d 94 24 08 01 00 	[33mlea    [0m[34mr10[0m,[[34mrsp[0m+[35m0x108[0m]
  402794:	                                                                                                                            00 
  402795:	                                                                                                                            48 89 74 24 70       	[33mmov    [0mQWORD PTR [[34mrsp[0m+[35m0x70[0m],[34mrsi[0m
  40279a:	                                                                                                                            c5 fa 7f 00          	[33mvmovdqu [0mXMMWORD PTR [[34mrax[0m],[34mxmm0[0m
  40279e:	                                                                                                                            c7 40 0f 63 6b 65 64 	[33mmov    [0mDWORD PTR [[34mrax[0m+[35m0xf[0m],[35m0x64656b63[0m
  4027a5:	                                                                                                                            48 8b 6c 24 60       	[33mmov    [0m[34mrbp[0m,QWORD PTR [[34mrsp[0m+[35m0x60[0m]
  4027aa:	                                                                                                                            48 8b 7c 24 30       	[33mmov    [0m[34mrdi[0m,QWORD PTR [[34mrsp[0m+[35m0x30[0m]
  4027af:	                                                                                                                            48 89 7c 24 68       	[33mmov    [0mQWORD PTR [[34mrsp[0m+[35m0x68[0m],[34mrdi[0m
  4027b4:	                                                                                                                            c6 44 3d 00 00       	[33mmov    [0mBYTE PTR [[34mrbp[0m+[34mrdi[0m*[35m1[0m+[35m0x0[0m],[35m0x0[0m
  4027b9:	                                                                                                                            4c 8b 6c 24 68       	[33mmov    [0m[34mr13[0m,QWORD PTR [[34mrsp[0m+[35m0x68[0m]
  4027be:	                                                                                                                            4c 8b 64 24 60       	[33mmov    [0m[34mr12[0m,QWORD PTR [[34mrsp[0m+[35m0x60[0m]
  4027c3:	                                                                                                                            48 c7 84 24 f0 00 00 	[33mmov    [0mQWORD PTR [[34mrsp[0m+[35m0xf0[0m],[35m0x4040d0[0m
  4027ca:	                                                                                                                            00 d0 40 40 00 
  4027cf:	                                                                                                                            4c 89 94 24 f8 00 00 	[33mmov    [0mQWORD PTR [[34mrsp[0m+[35m0xf8[0m],[34mr10[0m
  4027d6:	                                                                                                                            00 
  4027d7:	                                                                                                                            4c 89 6c 24 30       	[33mmov    [0mQWORD PTR [[34mrsp[0m+[35m0x30[0m],[34mr13[0m
  4027dc:	                                                                                                                            49 83 fd 0f          	[33mcmp    [0m[34mr13[0m,[35m0xf[0m
  4027e0:	   [37m/[37m-[37m-[37m-[37m-[37m-[37m-[37m-[37m-[37m-[37m-[37m-[37m-[37m-[37m-[37m-[37m-[37m-[37m-[37m-[37m-[37m-[37m-[37m-[37m-[37m-[37m-[37m-[37m-[37m-[37m-[37m-[37m-[37m-[37m-[37m-[37m-[37m-[37m-[37m-[37m-[37m-[37m-[37m-[37m-[37m-[37m-[37m-[37m-[37m-[37m-[37m-[37m-[37m-[37m-[37m-[37m-[37m-[37m-[37m-[37m-[37m-[37m-[37m-[37m-[37m-[37m-[37m-[37m-[37m-[37m-[37m-[37m-[37m-[37m-[37m-[37m-[37m-[37m-[37m-[37m-[37m-[37m-[37m-[37m-[37m-[37m-[37m-[37m-[37m-[37m-[37m-[37m-[37m-[37m-[37m-[37m-[37m-[37m-[37m-[37m-[37m-[37m-[37m-[37m-[37m-[37m-[37m-[37m-[37m-[37m-[37m-[37m-[37m-[37m-[37m-[37m-[37m-[37m-[37m-[0m 0f 87 a5 08 00 00    	[33mja     [0m[35m40308b[0m <[32m_Z13calc_speed_upv[0m[35m+0x[0m[35m9db[0m>
  4027e6:	   [37m|[0m                                                                                                                        49 83 fd 01          	[33mcmp    [0m[34mr13[0m,[35m0x1[0m
  4027ea:	   [37m|[0m                                                                                               [32m/-----------------------[0m 0f 85 5d 07 00 00    	[33mjne    [0m[35m402f4d[0m <[32m_Z13calc_speed_upv[0m[35m+0x[0m[35m89d[0m>
  4027f0:	   [37m|[0m                                                                                               [32m|[0m                        45 0f b6 04 24       	[33mmovzx  [0m[34mr8d[0m,BYTE PTR [[34mr12[0m]
  4027f5:	   [37m|[0m                                                                                               [32m|[0m                        44 88 84 24 08 01 00 	[33mmov    [0mBYTE PTR [[34mrsp[0m+[35m0x108[0m],[34mr8b[0m
  4027fc:	   [37m|[0m                                                                                               [32m|[0m                        00 
  4027fd:	[36m/--[37m|[36m-----------------------------------------------------------------------------------------------[32m|[36m---------------------->[0m 4c 89 ac 24 00 01 00 	[33mmov    [0mQWORD PTR [[34mrsp[0m+[35m0x100[0m],[34mr13[0m
  402804:	[36m|[0m  [37m|[0m                                                                                               [32m|[0m                        00 
  402805:	[36m|[0m  [37m|[0m                                                                                               [32m|[0m                        49 bb 64 67 65 6d 6d 	[33mmovabs [0m[34mr11[0m,[35m0x76615f6d6d656764[0m
  40280c:	[36m|[0m  [37m|[0m                                                                                               [32m|[0m                        5f 61 76 
  40280f:	[36m|[0m  [37m|[0m                                                                                               [32m|[0m                        43 c6 04 2a 00       	[33mmov    [0mBYTE PTR [[34mr10[0m+[34mr13[0m*[35m1[0m],[35m0x0[0m
  402814:	[36m|[0m  [37m|[0m                                                                                               [32m|[0m                        4c 8d a4 24 90 00 00 	[33mlea    [0m[34mr12[0m,[[34mrsp[0m+[35m0x90[0m]
  40281b:	[36m|[0m  [37m|[0m                                                                                               [32m|[0m                        00 
  40281c:	[36m|[0m  [37m|[0m                                                                                               [32m|[0m                        4c 8d bc 24 38 01 00 	[33mlea    [0m[34mr15[0m,[[34mrsp[0m+[35m0x138[0m]
  402823:	[36m|[0m  [37m|[0m                                                                                               [32m|[0m                        00 
  402824:	[36m|[0m  [37m|[0m                                                                                               [32m|[0m                        4c 8d ac 24 b0 00 00 	[33mlea    [0m[34mr13[0m,[[34mrsp[0m+[35m0xb0[0m]
  40282b:	[36m|[0m  [37m|[0m                                                                                               [32m|[0m                        00 
  40282c:	[36m|[0m  [37m|[0m                                                                                               [32m|[0m                        31 d2                	[33mxor    [0m[34medx[0m,[34medx[0m
  40282e:	[36m|[0m  [37m|[0m                                                                                               [32m|[0m                        48 8d 74 24 30       	[33mlea    [0m[34mrsi[0m,[[34mrsp[0m+[35m0x30[0m]
  402833:	[36m|[0m  [37m|[0m                                                                                               [32m|[0m                        48 8d bc 24 a0 00 00 	[33mlea    [0m[34mrdi[0m,[[34mrsp[0m+[35m0xa0[0m]
  40283a:	[36m|[0m  [37m|[0m                                                                                               [32m|[0m                        00 
  40283b:	[36m|[0m  [37m|[0m                                                                                               [32m|[0m                        48 c7 84 24 18 01 00 	[33mmov    [0mQWORD PTR [[34mrsp[0m+[35m0x118[0m],[35m0x0[0m
  402842:	[36m|[0m  [37m|[0m                                                                                               [32m|[0m                        00 00 00 00 00 
  402847:	[36m|[0m  [37m|[0m                                                                                               [32m|[0m                        4c 89 a4 24 80 00 00 	[33mmov    [0mQWORD PTR [[34mrsp[0m+[35m0x80[0m],[34mr12[0m
  40284e:	[36m|[0m  [37m|[0m                                                                                               [32m|[0m                        00 
  40284f:	[36m|[0m  [37m|[0m                                                                                               [32m|[0m                        4c 89 9c 24 90 00 00 	[33mmov    [0mQWORD PTR [[34mrsp[0m+[35m0x90[0m],[34mr11[0m
  402856:	[36m|[0m  [37m|[0m                                                                                               [32m|[0m                        00 
  402857:	[36m|[0m  [37m|[0m                                                                                               [32m|[0m                        c7 84 24 98 00 00 00 	[33mmov    [0mDWORD PTR [[34mrsp[0m+[35m0x98[0m],[35m0x36353278[0m
  40285e:	[36m|[0m  [37m|[0m                                                                                               [32m|[0m                        78 32 35 36 
  402862:	[36m|[0m  [37m|[0m                                                                                               [32m|[0m                        48 c7 84 24 88 00 00 	[33mmov    [0mQWORD PTR [[34mrsp[0m+[35m0x88[0m],[35m0xc[0m
  402869:	[36m|[0m  [37m|[0m                                                                                               [32m|[0m                        00 0c 00 00 00 
  40286e:	[36m|[0m  [37m|[0m                                                                                               [32m|[0m                        c6 84 24 9c 00 00 00 	[33mmov    [0mBYTE PTR [[34mrsp[0m+[35m0x9c[0m],[35m0x0[0m
  402875:	[36m|[0m  [37m|[0m                                                                                               [32m|[0m                        00 
  402876:	[36m|[0m  [37m|[0m                                                                                               [32m|[0m                        48 c7 84 24 20 01 00 	[33mmov    [0mQWORD PTR [[34mrsp[0m+[35m0x120[0m],[35m0x403970[0m
  40287d:	[36m|[0m  [37m|[0m                                                                                               [32m|[0m                        00 70 39 40 00 
  402882:	[36m|[0m  [37m|[0m                                                                                               [32m|[0m                        4c 89 bc 24 28 01 00 	[33mmov    [0mQWORD PTR [[34mrsp[0m+[35m0x128[0m],[34mr15[0m
  402889:	[36m|[0m  [37m|[0m                                                                                               [32m|[0m                        00 
  40288a:	[36m|[0m  [37m|[0m                                                                                               [32m|[0m                        4c 89 9c 24 38 01 00 	[33mmov    [0mQWORD PTR [[34mrsp[0m+[35m0x138[0m],[34mr11[0m
  402891:	[36m|[0m  [37m|[0m                                                                                               [32m|[0m                        00 
  402892:	[36m|[0m  [37m|[0m                                                                                               [32m|[0m                        c7 84 24 40 01 00 00 	[33mmov    [0mDWORD PTR [[34mrsp[0m+[35m0x140[0m],[35m0x36353278[0m
  402899:	[36m|[0m  [37m|[0m                                                                                               [32m|[0m                        78 32 35 36 
  40289d:	[36m|[0m  [37m|[0m                                                                                               [32m|[0m                        48 c7 84 24 30 01 00 	[33mmov    [0mQWORD PTR [[34mrsp[0m+[35m0x130[0m],[35m0xc[0m
  4028a4:	[36m|[0m  [37m|[0m                                                                                               [32m|[0m                        00 0c 00 00 00 
  4028a9:	[36m|[0m  [37m|[0m                                                                                               [32m|[0m                        c6 84 24 44 01 00 00 	[33mmov    [0mBYTE PTR [[34mrsp[0m+[35m0x144[0m],[35m0x0[0m
  4028b0:	[36m|[0m  [37m|[0m                                                                                               [32m|[0m                        00 
  4028b1:	[36m|[0m  [37m|[0m                                                                                               [32m|[0m                        48 c7 84 24 48 01 00 	[33mmov    [0mQWORD PTR [[34mrsp[0m+[35m0x148[0m],[35m0x0[0m
  4028b8:	[36m|[0m  [37m|[0m                                                                                               [32m|[0m                        00 00 00 00 00 
  4028bd:	[36m|[0m  [37m|[0m                                                                                               [32m|[0m                        4c 89 ac 24 a0 00 00 	[33mmov    [0mQWORD PTR [[34mrsp[0m+[35m0xa0[0m],[34mr13[0m
  4028c4:	[36m|[0m  [37m|[0m                                                                                               [32m|[0m                        00 
  4028c5:	[36m|[0m  [37m|[0m                                                                                               [32m|[0m                        48 c7 44 24 30 15 00 	[33mmov    [0mQWORD PTR [[34mrsp[0m+[35m0x30[0m],[35m0x15[0m
  4028cc:	[36m|[0m  [37m|[0m                                                                                               [32m|[0m                        00 00 
  4028ce:	[36m|[0m  [37m|[0m                                                                                               [32m|[0m                        e8 ed f8 ff ff       	[33mcall   [0m[35m4021c0[0m <[32m_ZNSt7__cxx1112basic_stringIcSt11char_traitsIcESaIcEE9_M_createERmm@plt[0m>
  4028d3:	[36m|[0m  [37m|[0m                                                                                               [32m|[0m                        c5 f9 6f 0d 95 27 00 	[33mvmovdqa [0m[34mxmm1[0m,XMMWORD PTR [[34mrip[0m+[35m0x2795[0m]        # 405070 <_IO_stdin_used+0x70>
  4028da:	[36m|[0m  [37m|[0m                                                                                               [32m|[0m                        00 
  4028db:	[36m|[0m  [37m|[0m                                                                                               [32m|[0m                        48 8b 54 24 30       	[33mmov    [0m[34mrdx[0m,QWORD PTR [[34mrsp[0m+[35m0x30[0m]
  4028e0:	[36m|[0m  [37m|[0m                                                                                               [32m|[0m                        48 b9 64 5f 61 76 78 	[33mmovabs [0m[34mrcx[0m,[35m0x3635327876615f64[0m
  4028e7:	[36m|[0m  [37m|[0m                                                                                               [32m|[0m                        32 35 36 
  4028ea:	[36m|[0m  [37m|[0m                                                                                               [32m|[0m                        48 89 84 24 a0 00 00 	[33mmov    [0mQWORD PTR [[34mrsp[0m+[35m0xa0[0m],[34mrax[0m
  4028f1:	[36m|[0m  [37m|[0m                                                                                               [32m|[0m                        00 
  4028f2:	[36m|[0m  [37m|[0m                                                                                               [32m|[0m                        48 8d bc 24 68 01 00 	[33mlea    [0m[34mrdi[0m,[[34mrsp[0m+[35m0x168[0m]
  4028f9:	[36m|[0m  [37m|[0m                                                                                               [32m|[0m                        00 
  4028fa:	[36m|[0m  [37m|[0m                                                                                               [32m|[0m                        48 89 94 24 b0 00 00 	[33mmov    [0mQWORD PTR [[34mrsp[0m+[35m0xb0[0m],[34mrdx[0m
  402901:	[36m|[0m  [37m|[0m                                                                                               [32m|[0m                        00 
  402902:	[36m|[0m  [37m|[0m                                                                                               [32m|[0m                        c5 fa 7f 08          	[33mvmovdqu [0mXMMWORD PTR [[34mrax[0m],[34mxmm1[0m
  402906:	[36m|[0m  [37m|[0m                                                                                               [32m|[0m                        48 89 48 0d          	[33mmov    [0mQWORD PTR [[34mrax[0m+[35m0xd[0m],[34mrcx[0m
  40290a:	[36m|[0m  [37m|[0m                                                                                               [32m|[0m                        48 8b 9c 24 a0 00 00 	[33mmov    [0m[34mrbx[0m,QWORD PTR [[34mrsp[0m+[35m0xa0[0m]
  402911:	[36m|[0m  [37m|[0m                                                                                               [32m|[0m                        00 
  402912:	[36m|[0m  [37m|[0m                                                                                               [32m|[0m                        48 8b 44 24 30       	[33mmov    [0m[34mrax[0m,QWORD PTR [[34mrsp[0m+[35m0x30[0m]
  402917:	[36m|[0m  [37m|[0m                                                                                               [32m|[0m                        48 89 84 24 a8 00 00 	[33mmov    [0mQWORD PTR [[34mrsp[0m+[35m0xa8[0m],[34mrax[0m
  40291e:	[36m|[0m  [37m|[0m                                                                                               [32m|[0m                        00 
  40291f:	[36m|[0m  [37m|[0m                                                                                               [32m|[0m                        c6 04 03 00          	[33mmov    [0mBYTE PTR [[34mrbx[0m+[34mrax[0m*[35m1[0m],[35m0x0[0m
  402923:	[36m|[0m  [37m|[0m                                                                                               [32m|[0m                        4c 8b bc 24 a8 00 00 	[33mmov    [0m[34mr15[0m,QWORD PTR [[34mrsp[0m+[35m0xa8[0m]
  40292a:	[36m|[0m  [37m|[0m                                                                                               [32m|[0m                        00 
  40292b:	[36m|[0m  [37m|[0m                                                                                               [32m|[0m                        48 8b ac 24 a0 00 00 	[33mmov    [0m[34mrbp[0m,QWORD PTR [[34mrsp[0m+[35m0xa0[0m]
  402932:	[36m|[0m  [37m|[0m                                                                                               [32m|[0m                        00 
  402933:	[36m|[0m  [37m|[0m                                                                                               [32m|[0m                        48 c7 84 24 50 01 00 	[33mmov    [0mQWORD PTR [[34mrsp[0m+[35m0x150[0m],[35m0x403bb0[0m
  40293a:	[36m|[0m  [37m|[0m                                                                                               [32m|[0m                        00 b0 3b 40 00 
  40293f:	[36m|[0m  [37m|[0m                                                                                               [32m|[0m                        48 89 bc 24 58 01 00 	[33mmov    [0mQWORD PTR [[34mrsp[0m+[35m0x158[0m],[34mrdi[0m
  402946:	[36m|[0m  [37m|[0m                                                                                               [32m|[0m                        00 
  402947:	[36m|[0m  [37m|[0m                                                                                               [32m|[0m                        4c 89 7c 24 30       	[33mmov    [0mQWORD PTR [[34mrsp[0m+[35m0x30[0m],[34mr15[0m
  40294c:	[36m|[0m  [37m|[0m                                                                                               [32m|[0m                        49 83 ff 0f          	[33mcmp    [0m[34mr15[0m,[35m0xf[0m
  402950:	[36m|[0m  [37m|[0m                                   [31m/-----------------------------------------------------------[32m|[31m-----------------------[0m 0f 87 ec 06 00 00    	[33mja     [0m[35m403042[0m <[32m_Z13calc_speed_upv[0m[35m+0x[0m[35m992[0m>
  402956:	[36m|[0m  [37m|[0m                                   [31m|[0m                                                           [32m|[0m                        49 83 ff 01          	[33mcmp    [0m[34mr15[0m,[35m0x1[0m
  40295a:	[36m|[0m  [37m|[0m                                   [31m|[0m           [33m/[33m-[33m-[33m-[33m-[33m-[33m-[33m-[33m-[33m-[33m-[33m-[33m-[33m-[33m-[33m-[33m-[33m-[33m-[33m-[33m-[33m-[33m-[33m-[33m-[33m-[33m-[33m-[33m-[33m-[33m-[33m-[33m-[33m-[33m-[33m-[33m-[33m-[33m-[33m-[33m-[33m-[33m-[33m-[33m-[33m-[33m-[33m-[32m|[33m-[33m-[33m-[33m-[33m-[33m-[33m-[33m-[33m-[33m-[33m-[33m-[33m-[33m-[33m-[33m-[33m-[33m-[33m-[33m-[33m-[33m-[33m-[0m 0f 84 d1 06 00 00    	[33mje     [0m[35m403031[0m <[32m_Z13calc_speed_upv[0m[35m+0x[0m[35m981[0m>
  402960:	[36m|[0m  [37m|[0m                                   [31m|[0m           [33m|[0m                                               [32m|[0m                        4d 85 ff             	[33mtest   [0m[34mr15[0m,[34mr15[0m
  402963:	[36m|[0m  [37m|[0m                    [33m/--------------[31m|[33m-----------[33m|[33m-----------------------------------------------[32m|[33m-----------------------[0m 0f 85 05 07 00 00    	[33mjne    [0m[35m40306e[0m <[32m_Z13calc_speed_upv[0m[35m+0x[0m[35m9be[0m>
  402969:	[36m|[0m  [37m|[0m           [34m/--------[33m|[34m--------------[31m|[34m-----------[33m|[34m-----------------------------------------------[32m|[34m---------------------->[0m 4c 89 bc 24 60 01 00 	[33mmov    [0mQWORD PTR [[34mrsp[0m+[35m0x160[0m],[34mr15[0m
  402970:	[36m|[0m  [37m|[0m           [34m|[0m        [33m|[0m              [31m|[0m           [33m|[0m                                               [32m|[0m                        00 
  402971:	[36m|[0m  [37m|[0m           [34m|[0m        [33m|[0m              [31m|[0m           [33m|[0m                                               [32m|[0m                        42 c6 04 3f 00       	[33mmov    [0mBYTE PTR [[34mrdi[0m+[34mr15[0m*[35m1[0m],[35m0x0[0m
  402976:	[36m|[0m  [37m|[0m           [34m|[0m        [33m|[0m              [31m|[0m           [33m|[0m                                               [32m|[0m                        bf c0 00 00 00       	[33mmov    [0m[34medi[0m,[35m0xc0[0m
  40297b:	[36m|[0m  [37m|[0m           [34m|[0m        [33m|[0m              [31m|[0m           [33m|[0m                                               [32m|[0m                        48 c7 84 24 78 01 00 	[33mmov    [0mQWORD PTR [[34mrsp[0m+[35m0x178[0m],[35m0x0[0m
  402982:	[36m|[0m  [37m|[0m           [34m|[0m        [33m|[0m              [31m|[0m           [33m|[0m                                               [32m|[0m                        00 00 00 00 00 
  402987:	[36m|[0m  [37m|[0m           [34m|[0m        [33m|[0m              [31m|[0m           [33m|[0m                                               [32m|[0m                        e8 24 f7 ff ff       	[33mcall   [0m[35m4020b0[0m <[32m_Znwm@plt[0m>
  40298c:	[36m|[0m  [37m|[0m           [34m|[0m        [33m|[0m              [31m|[0m           [33m|[0m                                               [32m|[0m                        4c 8b 8c 24 c0 00 00 	[33mmov    [0m[34mr9[0m,QWORD PTR [[34mrsp[0m+[35m0xc0[0m]
  402993:	[36m|[0m  [37m|[0m           [34m|[0m        [33m|[0m              [31m|[0m           [33m|[0m                                               [32m|[0m                        00 
  402994:	[36m|[0m  [37m|[0m           [34m|[0m        [33m|[0m              [31m|[0m           [33m|[0m                                               [32m|[0m                        48 8b 9c 24 d0 00 00 	[33mmov    [0m[34mrbx[0m,QWORD PTR [[34mrsp[0m+[35m0xd0[0m]
  40299b:	[36m|[0m  [37m|[0m           [34m|[0m        [33m|[0m              [31m|[0m           [33m|[0m                                               [32m|[0m                        00 
  40299c:	[36m|[0m  [37m|[0m           [34m|[0m        [33m|[0m              [31m|[0m           [33m|[0m                                               [32m|[0m                        48 8d 78 18          	[33mlea    [0m[34mrdi[0m,[[34mrax[0m+[35m0x18[0m]
  4029a0:	[36m|[0m  [37m|[0m           [34m|[0m        [33m|[0m              [31m|[0m           [33m|[0m                                               [32m|[0m                        49 89 c7             	[33mmov    [0m[34mr15[0m,[34mrax[0m
  4029a3:	[36m|[0m  [37m|[0m           [34m|[0m        [33m|[0m              [31m|[0m           [33m|[0m                                               [32m|[0m                        48 8b ac 24 c8 00 00 	[33mmov    [0m[34mrbp[0m,QWORD PTR [[34mrsp[0m+[35m0xc8[0m]
  4029aa:	[36m|[0m  [37m|[0m           [34m|[0m        [33m|[0m              [31m|[0m           [33m|[0m                                               [32m|[0m                        00 
  4029ab:	[36m|[0m  [37m|[0m           [34m|[0m        [33m|[0m              [31m|[0m           [33m|[0m                                               [32m|[0m                        4c 8d 50 08          	[33mlea    [0m[34mr10[0m,[[34mrax[0m+[35m0x8[0m]
  4029af:	[36m|[0m  [37m|[0m           [34m|[0m        [33m|[0m              [31m|[0m           [33m|[0m                                               [32m|[0m                        48 89 78 08          	[33mmov    [0mQWORD PTR [[34mrax[0m+[35m0x8[0m],[34mrdi[0m
  4029b3:	[36m|[0m  [37m|[0m           [34m|[0m        [33m|[0m              [31m|[0m           [33m|[0m                                               [32m|[0m                        4c 89 08             	[33mmov    [0mQWORD PTR [[34mrax[0m],[34mr9[0m
  4029b6:	[36m|[0m  [37m|[0m           [34m|[0m        [33m|[0m              [31m|[0m           [33m|[0m                                               [32m|[0m                        48 89 5c 24 30       	[33mmov    [0mQWORD PTR [[34mrsp[0m+[35m0x30[0m],[34mrbx[0m
  4029bb:	[36m|[0m  [37m|[0m           [34m|[0m        [33m|[0m              [31m|[0m           [33m|[0m                                               [32m|[0m                        48 83 fb 0f          	[33mcmp    [0m[34mrbx[0m,[35m0xf[0m
  4029bf:	[36m|[0m  [37m|[0m        [32m/--[34m|[32m--------[33m|[32m--------------[31m|[32m-----------[33m|[32m-----------------------------------------------[32m|[32m-----------------------[0m 0f 87 81 07 00 00    	[33mja     [0m[35m403146[0m <[32m_Z13calc_speed_upv[0m[35m+0x[0m[35ma96[0m>
  4029c5:	[36m|[0m  [37m|[0m        [32m|[0m  [34m|[0m        [33m|[0m              [31m|[0m           [33m|[0m                                               [32m|[0m                        48 83 fb 01          	[33mcmp    [0m[34mrbx[0m,[35m0x1[0m
  4029c9:	[36m|[0m  [37m|[0m        [32m|[0m  [34m|[0m  [32m/[32m-[32m-[32m-[32m-[32m-[33m|[32m-[32m-[32m-[32m-[32m-[32m-[32m-[32m-[32m-[32m-[32m-[32m-[32m-[32m-[31m|[32m-[32m-[32m-[32m-[32m-[32m-[32m-[32m-[32m-[32m-[32m-[33m|[32m-[32m-[32m-[32m-[32m-[32m-[32m-[32m-[32m-[32m-[32m-[32m-[32m-[32m-[32m-[32m-[32m-[32m-[32m-[32m-[32m-[32m-[32m-[32m-[32m-[32m-[32m-[32m-[32m-[32m-[32m-[32m-[32m-[32m-[32m-[32m-[32m-[32m-[32m-[32m-[32m-[32m-[32m-[32m-[32m-[32m-[32m-[32m|[32m-[32m-[32m-[32m-[32m-[32m-[32m-[32m-[32m-[32m-[32m-[32m-[32m-[32m-[32m-[32m-[32m-[32m-[32m-[32m-[32m-[32m-[32m-[0m 0f 84 16 07 00 00    	[33mje     [0m[35m4030e5[0m <[32m_Z13calc_speed_upv[0m[35m+0x[0m[35ma35[0m>
  4029cf:	[36m|[0m  [37m|[0m        [32m|[0m  [34m|[0m  [32m|[0m     [33m|[0m              [31m|[0m           [33m|[0m                                               [32m|[0m                        48 85 db             	[33mtest   [0m[34mrbx[0m,[34mrbx[0m
  4029d2:	[36m|[0m  [37m|[0m     [31m/[31m-[31m-[32m|[31m-[31m-[34m|[31m-[31m-[32m|[31m-[31m-[31m-[31m-[31m-[33m|[31m-[31m-[31m-[31m-[31m-[31m-[31m-[31m-[31m-[31m-[31m-[31m-[31m-[31m-[31m|[31m-[31m-[31m-[31m-[31m-[31m-[31m-[31m-[31m-[31m-[31m-[33m|[31m-[31m-[31m-[31m-[31m-[31m-[31m-[31m-[31m-[31m-[31m-[31m-[31m-[31m-[31m-[31m-[31m-[31m-[31m-[31m-[31m-[31m-[31m-[31m-[31m-[31m-[31m-[31m-[31m-[31m-[31m-[31m-[31m-[31m-[31m-[31m-[31m-[31m-[31m-[31m-[31m-[31m-[31m-[31m-[31m-[31m-[31m-[32m|[31m-[31m-[31m-[31m-[31m-[31m-[31m-[31m-[31m-[31m-[31m-[31m-[31m-[31m-[31m-[31m-[31m-[31m-[31m-[31m-[31m-[31m-[31m-[0m 0f 85 8d 07 00 00    	[33mjne    [0m[35m403165[0m <[32m_Z13calc_speed_upv[0m[35m+0x[0m[35mab5[0m>
  4029d8:	[36m|[0m  [37m|[0m  [32m/--[31m|[32m--[32m|[32m--[34m|[32m--[32m|[32m-----[33m|[32m--------------[31m|[32m-----------[33m|[32m-----------------------------------------------[32m|[32m---------------------->[0m 49 89 5f 10          	[33mmov    [0mQWORD PTR [[34mr15[0m+[35m0x10[0m],[34mrbx[0m
  4029dc:	[36m|[0m  [37m|[0m  [32m|[0m  [31m|[0m  [32m|[0m  [34m|[0m  [32m|[0m     [33m|[0m              [31m|[0m           [33m|[0m                                               [32m|[0m                        c6 04 1f 00          	[33mmov    [0mBYTE PTR [[34mrdi[0m+[34mrbx[0m*[35m1[0m],[35m0x0[0m
  4029e0:	[36m|[0m  [37m|[0m  [32m|[0m  [31m|[0m  [32m|[0m  [34m|[0m  [32m|[0m     [33m|[0m              [31m|[0m           [33m|[0m                                               [32m|[0m                        48 8b 8c 24 e8 00 00 	[33mmov    [0m[34mrcx[0m,QWORD PTR [[34mrsp[0m+[35m0xe8[0m]
  4029e7:	[36m|[0m  [37m|[0m  [32m|[0m  [31m|[0m  [32m|[0m  [34m|[0m  [32m|[0m     [33m|[0m              [31m|[0m           [33m|[0m                                               [32m|[0m                        00 
  4029e8:	[36m|[0m  [37m|[0m  [32m|[0m  [31m|[0m  [32m|[0m  [34m|[0m  [32m|[0m     [33m|[0m              [31m|[0m           [33m|[0m                                               [32m|[0m                        48 8b b4 24 f0 00 00 	[33mmov    [0m[34mrsi[0m,QWORD PTR [[34mrsp[0m+[35m0xf0[0m]
  4029ef:	[36m|[0m  [37m|[0m  [32m|[0m  [31m|[0m  [32m|[0m  [34m|[0m  [32m|[0m     [33m|[0m              [31m|[0m           [33m|[0m                                               [32m|[0m                        00 
  4029f0:	[36m|[0m  [37m|[0m  [32m|[0m  [31m|[0m  [32m|[0m  [34m|[0m  [32m|[0m     [33m|[0m              [31m|[0m           [33m|[0m                                               [32m|[0m                        49 8d 47 30          	[33mlea    [0m[34mrax[0m,[[34mr15[0m+[35m0x30[0m]
  4029f4:	[36m|[0m  [37m|[0m  [32m|[0m  [31m|[0m  [32m|[0m  [34m|[0m  [32m|[0m     [33m|[0m              [31m|[0m           [33m|[0m                                               [32m|[0m                        49 8d 7f 48          	[33mlea    [0m[34mrdi[0m,[[34mr15[0m+[35m0x48[0m]
  4029f8:	[36m|[0m  [37m|[0m  [32m|[0m  [31m|[0m  [32m|[0m  [34m|[0m  [32m|[0m     [33m|[0m              [31m|[0m           [33m|[0m                                               [32m|[0m                        4d 8d 47 38          	[33mlea    [0m[34mr8[0m,[[34mr15[0m+[35m0x38[0m]
  4029fc:	[36m|[0m  [37m|[0m  [32m|[0m  [31m|[0m  [32m|[0m  [34m|[0m  [32m|[0m     [33m|[0m              [31m|[0m           [33m|[0m                                               [32m|[0m                        48 8b 9c 24 00 01 00 	[33mmov    [0m[34mrbx[0m,QWORD PTR [[34mrsp[0m+[35m0x100[0m]
  402a03:	[36m|[0m  [37m|[0m  [32m|[0m  [31m|[0m  [32m|[0m  [34m|[0m  [32m|[0m     [33m|[0m              [31m|[0m           [33m|[0m                                               [32m|[0m                        00 
  402a04:	[36m|[0m  [37m|[0m  [32m|[0m  [31m|[0m  [32m|[0m  [34m|[0m  [32m|[0m     [33m|[0m              [31m|[0m           [33m|[0m                                               [32m|[0m                        48 8b ac 24 f8 00 00 	[33mmov    [0m[34mrbp[0m,QWORD PTR [[34mrsp[0m+[35m0xf8[0m]
  402a0b:	[36m|[0m  [37m|[0m  [32m|[0m  [31m|[0m  [32m|[0m  [34m|[0m  [32m|[0m     [33m|[0m              [31m|[0m           [33m|[0m                                               [32m|[0m                        00 
  402a0c:	[36m|[0m  [37m|[0m  [32m|[0m  [31m|[0m  [32m|[0m  [34m|[0m  [32m|[0m     [33m|[0m              [31m|[0m           [33m|[0m                                               [32m|[0m                        48 89 44 24 08       	[33mmov    [0mQWORD PTR [[34mrsp[0m+[35m0x8[0m],[34mrax[0m
  402a11:	[36m|[0m  [37m|[0m  [32m|[0m  [31m|[0m  [32m|[0m  [34m|[0m  [32m|[0m     [33m|[0m              [31m|[0m           [33m|[0m                                               [32m|[0m                        49 89 7f 38          	[33mmov    [0mQWORD PTR [[34mr15[0m+[35m0x38[0m],[34mrdi[0m
  402a15:	[36m|[0m  [37m|[0m  [32m|[0m  [31m|[0m  [32m|[0m  [34m|[0m  [32m|[0m     [33m|[0m              [31m|[0m           [33m|[0m                                               [32m|[0m                        49 89 4f 28          	[33mmov    [0mQWORD PTR [[34mr15[0m+[35m0x28[0m],[34mrcx[0m
  402a19:	[36m|[0m  [37m|[0m  [32m|[0m  [31m|[0m  [32m|[0m  [34m|[0m  [32m|[0m     [33m|[0m              [31m|[0m           [33m|[0m                                               [32m|[0m                        49 89 77 30          	[33mmov    [0mQWORD PTR [[34mr15[0m+[35m0x30[0m],[34mrsi[0m
  402a1d:	[36m|[0m  [37m|[0m  [32m|[0m  [31m|[0m  [32m|[0m  [34m|[0m  [32m|[0m     [33m|[0m              [31m|[0m           [33m|[0m                                               [32m|[0m                        48 89 5c 24 30       	[33mmov    [0mQWORD PTR [[34mrsp[0m+[35m0x30[0m],[34mrbx[0m
  402a22:	[36m|[0m  [37m|[0m  [32m|[0m  [31m|[0m  [32m|[0m  [34m|[0m  [32m|[0m     [33m|[0m              [31m|[0m           [33m|[0m                                               [32m|[0m                        48 83 fb 0f          	[33mcmp    [0m[34mrbx[0m,[35m0xf[0m
  402a26:	[36m|[0m  [37m|[0m  [32m|[0m  [31m|[0m  [32m|[0m  [34m|[0m  [32m|[0m     [33m|[0m              [31m|[0m     [36m/-----[33m|[36m-----------------------------------------------[32m|[36m-----------------------[0m 0f 87 e2 06 00 00    	[33mja     [0m[35m40310e[0m <[32m_Z13calc_speed_upv[0m[35m+0x[0m[35ma5e[0m>
  402a2c:	[36m|[0m  [37m|[0m  [32m|[0m  [31m|[0m  [32m|[0m  [34m|[0m  [32m|[0m     [33m|[0m              [31m|[0m     [36m|[0m     [33m|[0m                                               [32m|[0m                        48 83 fb 01          	[33mcmp    [0m[34mrbx[0m,[35m0x1[0m
  402a30:	[36m|[0m  [37m|[0m  [32m|[0m  [31m|[0m  [32m|[0m  [34m|[0m  [32m|[0m     [33m|[0m              [31m|[0m     [36m|[0m     [33m|[0m  [37m/[37m-[37m-[37m-[37m-[37m-[37m-[37m-[37m-[37m-[37m-[37m-[37m-[37m-[37m-[37m-[37m-[37m-[37m-[37m-[37m-[37m-[37m-[37m-[37m-[37m-[37m-[37m-[37m-[37m-[37m-[37m-[37m-[37m-[37m-[37m-[37m-[37m-[37m-[37m-[37m-[37m-[37m-[37m-[37m-[32m|[37m-[37m-[37m-[37m-[37m-[37m-[37m-[37m-[37m-[37m-[37m-[37m-[37m-[37m-[37m-[37m-[37m-[37m-[37m-[37m-[37m-[37m-[37m-[0m 0f 84 ca 06 00 00    	[33mje     [0m[35m403100[0m <[32m_Z13calc_speed_upv[0m[35m+0x[0m[35ma50[0m>
  402a36:	[36m|[0m  [37m|[0m  [32m|[0m  [31m|[0m  [32m|[0m  [34m|[0m  [32m|[0m     [33m|[0m              [31m|[0m     [36m|[0m     [33m|[0m  [37m|[0m                                            [32m|[0m                        48 85 db             	[33mtest   [0m[34mrbx[0m,[34mrbx[0m
  402a39:	[36m|[0m  [37m|[0m  [32m|[0m  [31m|[0m  [32m|[0m  [34m|[0m  [32m|[0m     [33m|[0m           [37m/[37m-[37m-[31m|[37m-[37m-[37m-[37m-[37m-[36m|[37m-[37m-[37m-[37m-[37m-[33m|[37m-[37m-[37m|[37m-[37m-[37m-[37m-[37m-[37m-[37m-[37m-[37m-[37m-[37m-[37m-[37m-[37m-[37m-[37m-[37m-[37m-[37m-[37m-[37m-[37m-[37m-[37m-[37m-[37m-[37m-[37m-[37m-[37m-[37m-[37m-[37m-[37m-[37m-[37m-[37m-[37m-[37m-[37m-[37m-[37m-[37m-[37m-[32m|[37m-[37m-[37m-[37m-[37m-[37m-[37m-[37m-[37m-[37m-[37m-[37m-[37m-[37m-[37m-[37m-[37m-[37m-[37m-[37m-[37m-[37m-[37m-[0m 0f 85 ee 06 00 00    	[33mjne    [0m[35m40312d[0m <[32m_Z13calc_speed_upv[0m[35m+0x[0m[35ma7d[0m>
  402a3f:	[36m|[0m  [37m|[0m  [32m|[0m  [31m|[0m  [32m|[0m  [34m|[0m  [32m|[0m     [33m|[0m     [36m/[36m-[36m-[36m-[36m-[36m-[37m|[36m-[36m-[31m|[36m-[36m-[36m-[36m-[36m-[36m|[36m-[36m-[36m-[36m-[36m-[33m|[36m-[36m-[37m|[36m-[36m-[36m-[36m-[36m-[36m-[36m-[36m-[36m-[36m-[36m-[36m-[36m-[36m-[36m-[36m-[36m-[36m-[36m-[36m-[36m-[36m-[36m-[36m-[36m-[36m-[36m-[36m-[36m-[36m-[36m-[36m-[36m-[36m-[36m-[36m-[36m-[36m-[36m-[36m-[36m-[36m-[36m-[36m-[32m|[36m-[36m-[36m-[36m-[36m-[36m-[36m-[36m-[36m-[36m-[36m-[36m-[36m-[36m-[36m-[36m-[36m-[36m-[36m-[36m-[36m-[36m-[36m>[0m 49 89 5f 40          	[33mmov    [0mQWORD PTR [[34mr15[0m+[35m0x40[0m],[34mrbx[0m
  402a43:	[36m|[0m  [37m|[0m  [32m|[0m  [31m|[0m  [32m|[0m  [34m|[0m  [32m|[0m     [33m|[0m     [36m|[0m     [37m|[0m  [31m|[0m     [36m|[0m     [33m|[0m  [37m|[0m                                            [32m|[0m                        c6 04 1f 00          	[33mmov    [0mBYTE PTR [[34mrdi[0m+[34mrbx[0m*[35m1[0m],[35m0x0[0m
  402a47:	[36m|[0m  [37m|[0m  [32m|[0m  [31m|[0m  [32m|[0m  [34m|[0m  [32m|[0m     [33m|[0m     [36m|[0m     [37m|[0m  [31m|[0m     [36m|[0m     [33m|[0m  [37m|[0m                                            [32m|[0m                        48 8b bc 24 18 01 00 	[33mmov    [0m[34mrdi[0m,QWORD PTR [[34mrsp[0m+[35m0x118[0m]
  402a4e:	[36m|[0m  [37m|[0m  [32m|[0m  [31m|[0m  [32m|[0m  [34m|[0m  [32m|[0m     [33m|[0m     [36m|[0m     [37m|[0m  [31m|[0m     [36m|[0m     [33m|[0m  [37m|[0m                                            [32m|[0m                        00 
  402a4f:	[36m|[0m  [37m|[0m  [32m|[0m  [31m|[0m  [32m|[0m  [34m|[0m  [32m|[0m     [33m|[0m     [36m|[0m     [37m|[0m  [31m|[0m     [36m|[0m     [33m|[0m  [37m|[0m                                            [32m|[0m                        4c 8b 9c 24 20 01 00 	[33mmov    [0m[34mr11[0m,QWORD PTR [[34mrsp[0m+[35m0x120[0m]
  402a56:	[36m|[0m  [37m|[0m  [32m|[0m  [31m|[0m  [32m|[0m  [34m|[0m  [32m|[0m     [33m|[0m     [36m|[0m     [37m|[0m  [31m|[0m     [36m|[0m     [33m|[0m  [37m|[0m                                            [32m|[0m                        00 
  402a57:	[36m|[0m  [37m|[0m  [32m|[0m  [31m|[0m  [32m|[0m  [34m|[0m  [32m|[0m     [33m|[0m     [36m|[0m     [37m|[0m  [31m|[0m     [36m|[0m     [33m|[0m  [37m|[0m                                            [32m|[0m                        49 8d 4f 68          	[33mlea    [0m[34mrcx[0m,[[34mr15[0m+[35m0x68[0m]
  402a5b:	[36m|[0m  [37m|[0m  [32m|[0m  [31m|[0m  [32m|[0m  [34m|[0m  [32m|[0m     [33m|[0m     [36m|[0m     [37m|[0m  [31m|[0m     [36m|[0m     [33m|[0m  [37m|[0m                                            [32m|[0m                        48 8b 9c 24 30 01 00 	[33mmov    [0m[34mrbx[0m,QWORD PTR [[34mrsp[0m+[35m0x130[0m]
  402a62:	[36m|[0m  [37m|[0m  [32m|[0m  [31m|[0m  [32m|[0m  [34m|[0m  [32m|[0m     [33m|[0m     [36m|[0m     [37m|[0m  [31m|[0m     [36m|[0m     [33m|[0m  [37m|[0m                                            [32m|[0m                        00 
  402a63:	[36m|[0m  [37m|[0m  [32m|[0m  [31m|[0m  [32m|[0m  [34m|[0m  [32m|[0m     [33m|[0m     [36m|[0m     [37m|[0m  [31m|[0m     [36m|[0m     [33m|[0m  [37m|[0m                                            [32m|[0m                        48 8b ac 24 28 01 00 	[33mmov    [0m[34mrbp[0m,QWORD PTR [[34mrsp[0m+[35m0x128[0m]
  402a6a:	[36m|[0m  [37m|[0m  [32m|[0m  [31m|[0m  [32m|[0m  [34m|[0m  [32m|[0m     [33m|[0m     [36m|[0m     [37m|[0m  [31m|[0m     [36m|[0m     [33m|[0m  [37m|[0m                                            [32m|[0m                        00 
  402a6b:	[36m|[0m  [37m|[0m  [32m|[0m  [31m|[0m  [32m|[0m  [34m|[0m  [32m|[0m     [33m|[0m     [36m|[0m     [37m|[0m  [31m|[0m     [36m|[0m     [33m|[0m  [37m|[0m                                            [32m|[0m                        49 89 7f 58          	[33mmov    [0mQWORD PTR [[34mr15[0m+[35m0x58[0m],[34mrdi[0m
  402a6f:	[36m|[0m  [37m|[0m  [32m|[0m  [31m|[0m  [32m|[0m  [34m|[0m  [32m|[0m     [33m|[0m     [36m|[0m     [37m|[0m  [31m|[0m     [36m|[0m     [33m|[0m  [37m|[0m                                            [32m|[0m                        49 8d 7f 78          	[33mlea    [0m[34mrdi[0m,[[34mr15[0m+[35m0x78[0m]
  402a73:	[36m|[0m  [37m|[0m  [32m|[0m  [31m|[0m  [32m|[0m  [34m|[0m  [32m|[0m     [33m|[0m     [36m|[0m     [37m|[0m  [31m|[0m     [36m|[0m     [33m|[0m  [37m|[0m                                            [32m|[0m                        4d 89 5f 60          	[33mmov    [0mQWORD PTR [[34mr15[0m+[35m0x60[0m],[34mr11[0m
  402a77:	[36m|[0m  [37m|[0m  [32m|[0m  [31m|[0m  [32m|[0m  [34m|[0m  [32m|[0m     [33m|[0m     [36m|[0m     [37m|[0m  [31m|[0m     [36m|[0m     [33m|[0m  [37m|[0m                                            [32m|[0m                        49 89 7f 68          	[33mmov    [0mQWORD PTR [[34mr15[0m+[35m0x68[0m],[34mrdi[0m
  402a7b:	[36m|[0m  [37m|[0m  [32m|[0m  [31m|[0m  [32m|[0m  [34m|[0m  [32m|[0m     [33m|[0m     [36m|[0m     [37m|[0m  [31m|[0m     [36m|[0m     [33m|[0m  [37m|[0m                                            [32m|[0m                        48 89 5c 24 30       	[33mmov    [0mQWORD PTR [[34mrsp[0m+[35m0x30[0m],[34mrbx[0m
  402a80:	[36m|[0m  [37m|[0m  [32m|[0m  [31m|[0m  [32m|[0m  [34m|[0m  [32m|[0m     [33m|[0m     [36m|[0m     [37m|[0m  [31m|[0m     [36m|[0m     [33m|[0m  [37m|[0m                                            [32m|[0m                        48 83 fb 0f          	[33mcmp    [0m[34mrbx[0m,[35m0xf[0m
  402a84:	[36m|[0m  [37m|[0m  [32m|[0m  [31m|[0m  [32m|[0m  [34m|[0m  [32m|[0m     [33m|[0m     [36m|[0m  [36m/--[37m|[36m--[31m|[36m-----[36m|[36m-----[33m|[36m--[37m|[36m--------------------------------------------[32m|[36m-----------------------[0m 0f 87 f4 06 00 00    	[33mja     [0m[35m40317e[0m <[32m_Z13calc_speed_upv[0m[35m+0x[0m[35mace[0m>
  402a8a:	[36m|[0m  [37m|[0m  [32m|[0m  [31m|[0m  [32m|[0m  [34m|[0m  [32m|[0m     [33m|[0m     [36m|[0m  [36m|[0m  [37m|[0m  [31m|[0m     [36m|[0m     [33m|[0m  [37m|[0m                                            [32m|[0m                        48 83 fb 01          	[33mcmp    [0m[34mrbx[0m,[35m0x1[0m
  402a8e:	[36m|[0m  [37m|[0m  [32m|[0m  [31m|[0m  [32m|[0m  [34m|[0m  [32m|[0m     [33m|[0m     [36m|[0m  [36m|[0m  [37m|[0m  [31m|[0m     [36m|[0m     [33m|[0m  [37m|[0m     [36m/--------------------------------------[32m|[36m-----------------------[0m 0f 84 5f 06 00 00    	[33mje     [0m[35m4030f3[0m <[32m_Z13calc_speed_upv[0m[35m+0x[0m[35ma43[0m>
  402a94:	[36m|[0m  [37m|[0m  [32m|[0m  [31m|[0m  [32m|[0m  [34m|[0m  [32m|[0m     [33m|[0m     [36m|[0m  [36m|[0m  [37m|[0m  [31m|[0m     [36m|[0m     [33m|[0m  [37m|[0m     [36m|[0m                                      [32m|[0m                        48 85 db             	[33mtest   [0m[34mrbx[0m,[34mrbx[0m
  402a97:	[36m|[0m  [37m|[0m  [32m|[0m  [31m|[0m  [32m|[0m  [34m|[0m  [32m|[0m     [33m|[0m  [35m/[35m-[35m-[36m|[35m-[35m-[36m|[35m-[35m-[37m|[35m-[35m-[31m|[35m-[35m-[35m-[35m-[35m-[36m|[35m-[35m-[35m-[35m-[35m-[33m|[35m-[35m-[37m|[35m-[35m-[35m-[35m-[35m-[36m|[35m-[35m-[35m-[35m-[35m-[35m-[35m-[35m-[35m-[35m-[35m-[35m-[35m-[35m-[35m-[35m-[35m-[35m-[35m-[35m-[35m-[35m-[35m-[35m-[35m-[35m-[35m-[35m-[35m-[35m-[35m-[35m-[35m-[35m-[35m-[35m-[35m-[35m-[32m|[35m-[35m-[35m-[35m-[35m-[35m-[35m-[35m-[35m-[35m-[35m-[35m-[35m-[35m-[35m-[35m-[35m-[35m-[35m-[35m-[35m-[35m-[35m-[0m 0f 85 00 07 00 00    	[33mjne    [0m[35m40319d[0m <[32m_Z13calc_speed_upv[0m[35m+0x[0m[35maed[0m>
  402a9d:	[36m|[0m  [37m|[0m  [32m|[0m  [31m|[0m  [32m|[0m  [34m|[0m  [32m|[0m  [37m/[37m-[37m-[33m|[37m-[37m-[35m|[37m-[37m-[36m|[37m-[37m-[36m|[37m-[37m-[37m|[37m-[37m-[31m|[37m-[37m-[37m-[37m-[37m-[36m|[37m-[37m-[37m-[37m-[37m-[33m|[37m-[37m-[37m|[37m-[37m-[37m-[37m-[37m-[36m|[37m-[37m-[37m-[37m-[37m-[37m-[37m-[37m-[37m-[37m-[37m-[37m-[37m-[37m-[37m-[37m-[37m-[37m-[37m-[37m-[37m-[37m-[37m-[37m-[37m-[37m-[37m-[37m-[37m-[37m-[37m-[37m-[37m-[37m-[37m-[37m-[37m-[37m-[32m|[37m-[37m-[37m-[37m-[37m-[37m-[37m-[37m-[37m-[37m-[37m-[37m-[37m-[37m-[37m-[37m-[37m-[37m-[37m-[37m-[37m-[37m-[37m>[0m 49 89 5f 70          	[33mmov    [0mQWORD PTR [[34mr15[0m+[35m0x70[0m],[34mrbx[0m
  402aa1:	[36m|[0m  [37m|[0m  [32m|[0m  [31m|[0m  [32m|[0m  [34m|[0m  [32m|[0m  [37m|[0m  [33m|[0m  [35m|[0m  [36m|[0m  [36m|[0m  [37m|[0m  [31m|[0m     [36m|[0m     [33m|[0m  [37m|[0m     [36m|[0m                                      [32m|[0m                        c6 04 1f 00          	[33mmov    [0mBYTE PTR [[34mrdi[0m+[34mrbx[0m*[35m1[0m],[35m0x0[0m
  402aa5:	[36m|[0m  [37m|[0m  [32m|[0m  [31m|[0m  [32m|[0m  [34m|[0m  [32m|[0m  [37m|[0m  [33m|[0m  [35m|[0m  [36m|[0m  [36m|[0m  [37m|[0m  [31m|[0m     [36m|[0m     [33m|[0m  [37m|[0m     [36m|[0m                                      [32m|[0m                        48 8b b4 24 48 01 00 	[33mmov    [0m[34mrsi[0m,QWORD PTR [[34mrsp[0m+[35m0x148[0m]
  402aac:	[36m|[0m  [37m|[0m  [32m|[0m  [31m|[0m  [32m|[0m  [34m|[0m  [32m|[0m  [37m|[0m  [33m|[0m  [35m|[0m  [36m|[0m  [36m|[0m  [37m|[0m  [31m|[0m     [36m|[0m     [33m|[0m  [37m|[0m     [36m|[0m                                      [32m|[0m                        00 
  402aad:	[36m|[0m  [37m|[0m  [32m|[0m  [31m|[0m  [32m|[0m  [34m|[0m  [32m|[0m  [37m|[0m  [33m|[0m  [35m|[0m  [36m|[0m  [36m|[0m  [37m|[0m  [31m|[0m     [36m|[0m     [33m|[0m  [37m|[0m     [36m|[0m                                      [32m|[0m                        4c 8b 84 24 50 01 00 	[33mmov    [0m[34mr8[0m,QWORD PTR [[34mrsp[0m+[35m0x150[0m]
  402ab4:	[36m|[0m  [37m|[0m  [32m|[0m  [31m|[0m  [32m|[0m  [34m|[0m  [32m|[0m  [37m|[0m  [33m|[0m  [35m|[0m  [36m|[0m  [36m|[0m  [37m|[0m  [31m|[0m     [36m|[0m     [33m|[0m  [37m|[0m     [36m|[0m                                      [32m|[0m                        00 
  402ab5:	[36m|[0m  [37m|[0m  [32m|[0m  [31m|[0m  [32m|[0m  [34m|[0m  [32m|[0m  [37m|[0m  [33m|[0m  [35m|[0m  [36m|[0m  [36m|[0m  [37m|[0m  [31m|[0m     [36m|[0m     [33m|[0m  [37m|[0m     [36m|[0m                                      [32m|[0m                        49 8d bf a8 00 00 00 	[33mlea    [0m[34mrdi[0m,[[34mr15[0m+[35m0xa8[0m]
  402abc:	[36m|[0m  [37m|[0m  [32m|[0m  [31m|[0m  [32m|[0m  [34m|[0m  [32m|[0m  [37m|[0m  [33m|[0m  [35m|[0m  [36m|[0m  [36m|[0m  [37m|[0m  [31m|[0m     [36m|[0m     [33m|[0m  [37m|[0m     [36m|[0m                                      [32m|[0m                        4d 8d 8f 98 00 00 00 	[33mlea    [0m[34mr9[0m,[[34mr15[0m+[35m0x98[0m]
  402ac3:	[36m|[0m  [37m|[0m  [32m|[0m  [31m|[0m  [32m|[0m  [34m|[0m  [32m|[0m  [37m|[0m  [33m|[0m  [35m|[0m  [36m|[0m  [36m|[0m  [37m|[0m  [31m|[0m     [36m|[0m     [33m|[0m  [37m|[0m     [36m|[0m                                      [32m|[0m                        48 8b 9c 24 60 01 00 	[33mmov    [0m[34mrbx[0m,QWORD PTR [[34mrsp[0m+[35m0x160[0m]
  402aca:	[36m|[0m  [37m|[0m  [32m|[0m  [31m|[0m  [32m|[0m  [34m|[0m  [32m|[0m  [37m|[0m  [33m|[0m  [35m|[0m  [36m|[0m  [36m|[0m  [37m|[0m  [31m|[0m     [36m|[0m     [33m|[0m  [37m|[0m     [36m|[0m                                      [32m|[0m                        00 
  402acb:	[36m|[0m  [37m|[0m  [32m|[0m  [31m|[0m  [32m|[0m  [34m|[0m  [32m|[0m  [37m|[0m  [33m|[0m  [35m|[0m  [36m|[0m  [36m|[0m  [37m|[0m  [31m|[0m     [36m|[0m     [33m|[0m  [37m|[0m     [36m|[0m                                      [32m|[0m                        48 8b ac 24 58 01 00 	[33mmov    [0m[34mrbp[0m,QWORD PTR [[34mrsp[0m+[35m0x158[0m]
  402ad2:	[36m|[0m  [37m|[0m  [32m|[0m  [31m|[0m  [32m|[0m  [34m|[0m  [32m|[0m  [37m|[0m  [33m|[0m  [35m|[0m  [36m|[0m  [36m|[0m  [37m|[0m  [31m|[0m     [36m|[0m     [33m|[0m  [37m|[0m     [36m|[0m                                      [32m|[0m                        00 
  402ad3:	[36m|[0m  [37m|[0m  [32m|[0m  [31m|[0m  [32m|[0m  [34m|[0m  [32m|[0m  [37m|[0m  [33m|[0m  [35m|[0m  [36m|[0m  [36m|[0m  [37m|[0m  [31m|[0m     [36m|[0m     [33m|[0m  [37m|[0m     [36m|[0m                                      [32m|[0m                        49 89 bf 98 00 00 00 	[33mmov    [0mQWORD PTR [[34mr15[0m+[35m0x98[0m],[34mrdi[0m
  402ada:	[36m|[0m  [37m|[0m  [32m|[0m  [31m|[0m  [32m|[0m  [34m|[0m  [32m|[0m  [37m|[0m  [33m|[0m  [35m|[0m  [36m|[0m  [36m|[0m  [37m|[0m  [31m|[0m     [36m|[0m     [33m|[0m  [37m|[0m     [36m|[0m                                      [32m|[0m                        49 89 b7 88 00 00 00 	[33mmov    [0mQWORD PTR [[34mr15[0m+[35m0x88[0m],[34mrsi[0m
  402ae1:	[36m|[0m  [37m|[0m  [32m|[0m  [31m|[0m  [32m|[0m  [34m|[0m  [32m|[0m  [37m|[0m  [33m|[0m  [35m|[0m  [36m|[0m  [36m|[0m  [37m|[0m  [31m|[0m     [36m|[0m     [33m|[0m  [37m|[0m     [36m|[0m                                      [32m|[0m                        4d 89 87 90 00 00 00 	[33mmov    [0mQWORD PTR [[34mr15[0m+[35m0x90[0m],[34mr8[0m
  402ae8:	[36m|[0m  [37m|[0m  [32m|[0m  [31m|[0m  [32m|[0m  [34m|[0m  [32m|[0m  [37m|[0m  [33m|[0m  [35m|[0m  [36m|[0m  [36m|[0m  [37m|[0m  [31m|[0m     [36m|[0m     [33m|[0m  [37m|[0m     [36m|[0m                                      [32m|[0m                        48 89 5c 24 30       	[33mmov    [0mQWORD PTR [[34mrsp[0m+[35m0x30[0m],[34mrbx[0m
  402aed:	[36m|[0m  [37m|[0m  [32m|[0m  [31m|[0m  [32m|[0m  [34m|[0m  [32m|[0m  [37m|[0m  [33m|[0m  [35m|[0m  [36m|[0m  [36m|[0m  [37m|[0m  [31m|[0m     [36m|[0m     [33m|[0m  [37m|[0m     [36m|[0m                                      [32m|[0m                        48 83 fb 0f          	[33mcmp    [0m[34mrbx[0m,[35m0xf[0m
  402af1:	[36m|[0m  [37m|[0m  [32m|[0m  [31m|[0m  [32m|[0m  [34m|[0m  [32m|[0m  [37m|[0m  [33m|[0m  [35m|[0m  [36m|[0m  [36m|[0m  [37m|[0m  [31m|[0m     [36m|[0m     [33m|[0m  [37m|[0m  [33m/--[36m|[33m--------------------------------------[32m|[33m-----------------------[0m 0f 87 bf 06 00 00    	[33mja     [0m[35m4031b6[0m <[32m_Z13calc_speed_upv[0m[35m+0x[0m[35mb06[0m>
  402af7:	[36m|[0m  [37m|[0m  [32m|[0m  [31m|[0m  [32m|[0m  [34m|[0m  [32m|[0m  [37m|[0m  [33m|[0m  [35m|[0m  [36m|[0m  [36m|[0m  [37m|[0m  [31m|[0m     [36m|[0m     [33m|[0m  [37m|[0m  [33m|[0m  [36m|[0m                                      [32m|[0m                        48 83 fb 01          	[33mcmp    [0m[34mrbx[0m,[35m0x1[0m
  402afb:	[36m|[0m  [37m|[0m  [32m|[0m  [31m|[0m  [32m|[0m  [34m|[0m  [32m|[0m  [37m|[0m  [33m|[0m  [35m|[0m  [36m|[0m  [36m|[0m  [37m|[0m  [31m|[0m     [36m|[0m     [33m|[0m  [37m|[0m  [33m|[0m  [36m|[0m  [34m/[34m-[34m-[34m-[34m-[34m-[34m-[34m-[34m-[34m-[34m-[34m-[34m-[34m-[34m-[34m-[34m-[34m-[34m-[34m-[34m-[34m-[34m-[34m-[34m-[34m-[34m-[34m-[34m-[34m-[34m-[34m-[34m-[34m-[34m-[34m-[32m|[34m-[34m-[34m-[34m-[34m-[34m-[34m-[34m-[34m-[34m-[34m-[34m-[34m-[34m-[34m-[34m-[34m-[34m-[34m-[34m-[34m-[34m-[34m-[0m 0f 84 d3 05 00 00    	[33mje     [0m[35m4030d4[0m <[32m_Z13calc_speed_upv[0m[35m+0x[0m[35ma24[0m>
  402b01:	[36m|[0m  [37m|[0m  [32m|[0m  [31m|[0m  [32m|[0m  [34m|[0m  [32m|[0m  [37m|[0m  [33m|[0m  [35m|[0m  [36m|[0m  [36m|[0m  [37m|[0m  [31m|[0m     [36m|[0m     [33m|[0m  [37m|[0m  [33m|[0m  [36m|[0m  [34m|[0m                                   [32m|[0m                        48 85 db             	[33mtest   [0m[34mrbx[0m,[34mrbx[0m
  402b04:	[36m|[0m  [37m|[0m  [32m|[0m  [31m|[0m  [32m|[0m  [34m|[0m  [32m|[0m  [37m|[0m  [33m|[0m  [35m|[0m  [36m|[0m  [36m|[0m  [37m|[0m  [31m|[0m     [36m|[0m  [32m/[32m-[32m-[33m|[32m-[32m-[37m|[32m-[32m-[33m|[32m-[32m-[36m|[32m-[32m-[34m|[32m-[32m-[32m-[32m-[32m-[32m-[32m-[32m-[32m-[32m-[32m-[32m-[32m-[32m-[32m-[32m-[32m-[32m-[32m-[32m-[32m-[32m-[32m-[32m-[32m-[32m-[32m-[32m-[32m-[32m-[32m-[32m-[32m-[32m-[32m-[32m|[32m-[32m-[32m-[32m-[32m-[32m-[32m-[32m-[32m-[32m-[32m-[32m-[32m-[32m-[32m-[32m-[32m-[32m-[32m-[32m-[32m-[32m-[32m-[0m 0f 85 d1 06 00 00    	[33mjne    [0m[35m4031db[0m <[32m_Z13calc_speed_upv[0m[35m+0x[0m[35mb2b[0m>
  402b0a:	[36m|[0m  [37m|[0m  [32m|[0m  [31m|[0m  [32m|[0m  [34m|[0m  [32m|[0m  [37m|[0m  [33m|[0m  [35m|[0m  [36m|[0m  [36m|[0m  [37m|[0m  [31m|[0m  [37m/[37m-[37m-[36m|[37m-[37m-[32m|[37m-[37m-[33m|[37m-[37m-[37m|[37m-[37m-[33m|[37m-[37m-[36m|[37m-[37m-[34m|[37m-[37m-[37m-[37m-[37m-[37m-[37m-[37m-[37m-[37m-[37m-[37m-[37m-[37m-[37m-[37m-[37m-[37m-[37m-[37m-[37m-[37m-[37m-[37m-[37m-[37m-[37m-[37m-[37m-[37m-[37m-[37m-[37m-[37m-[37m-[32m|[37m-[37m-[37m-[37m-[37m-[37m-[37m-[37m-[37m-[37m-[37m-[37m-[37m-[37m-[37m-[37m-[37m-[37m-[37m-[37m-[37m-[37m-[37m>[0m 49 89 9f a0 00 00 00 	[33mmov    [0mQWORD PTR [[34mr15[0m+[35m0xa0[0m],[34mrbx[0m
  402b11:	[36m|[0m  [37m|[0m  [32m|[0m  [31m|[0m  [32m|[0m  [34m|[0m  [32m|[0m  [37m|[0m  [33m|[0m  [35m|[0m  [36m|[0m  [36m|[0m  [37m|[0m  [31m|[0m  [37m|[0m  [36m|[0m  [32m|[0m  [33m|[0m  [37m|[0m  [33m|[0m  [36m|[0m  [34m|[0m                                   [32m|[0m                        c6 04 1f 00          	[33mmov    [0mBYTE PTR [[34mrdi[0m+[34mrbx[0m*[35m1[0m],[35m0x0[0m
  402b15:	[36m|[0m  [37m|[0m  [32m|[0m  [31m|[0m  [32m|[0m  [34m|[0m  [32m|[0m  [37m|[0m  [33m|[0m  [35m|[0m  [36m|[0m  [36m|[0m  [37m|[0m  [31m|[0m  [37m|[0m  [36m|[0m  [32m|[0m  [33m|[0m  [37m|[0m  [33m|[0m  [36m|[0m  [34m|[0m                                   [32m|[0m                        48 8b bc 24 78 01 00 	[33mmov    [0m[34mrdi[0m,QWORD PTR [[34mrsp[0m+[35m0x178[0m]
  402b1c:	[36m|[0m  [37m|[0m  [32m|[0m  [31m|[0m  [32m|[0m  [34m|[0m  [32m|[0m  [37m|[0m  [33m|[0m  [35m|[0m  [36m|[0m  [36m|[0m  [37m|[0m  [31m|[0m  [37m|[0m  [36m|[0m  [32m|[0m  [33m|[0m  [37m|[0m  [33m|[0m  [36m|[0m  [34m|[0m                                   [32m|[0m                        00 
  402b1d:	[36m|[0m  [37m|[0m  [32m|[0m  [31m|[0m  [32m|[0m  [34m|[0m  [32m|[0m  [37m|[0m  [33m|[0m  [35m|[0m  [36m|[0m  [36m|[0m  [37m|[0m  [31m|[0m  [37m|[0m  [36m|[0m  [32m|[0m  [33m|[0m  [37m|[0m  [33m|[0m  [36m|[0m  [34m|[0m                                   [32m|[0m                        49 8d 8f c0 00 00 00 	[33mlea    [0m[34mrcx[0m,[[34mr15[0m+[35m0xc0[0m]
  402b24:	[36m|[0m  [37m|[0m  [32m|[0m  [31m|[0m  [32m|[0m  [34m|[0m  [32m|[0m  [37m|[0m  [33m|[0m  [35m|[0m  [36m|[0m  [36m|[0m  [37m|[0m  [31m|[0m  [37m|[0m  [36m|[0m  [32m|[0m  [33m|[0m  [37m|[0m  [33m|[0m  [36m|[0m  [34m|[0m                                   [32m|[0m                        48 89 0c 24          	[33mmov    [0mQWORD PTR [[34mrsp[0m],[34mrcx[0m
  402b28:	[36m|[0m  [37m|[0m  [32m|[0m  [31m|[0m  [32m|[0m  [34m|[0m  [32m|[0m  [37m|[0m  [33m|[0m  [35m|[0m  [36m|[0m  [36m|[0m  [37m|[0m  [31m|[0m  [37m|[0m  [36m|[0m  [32m|[0m  [33m|[0m  [37m|[0m  [33m|[0m  [36m|[0m  [34m|[0m                                   [32m|[0m                        48 8d ac 24 80 01 00 	[33mlea    [0m[34mrbp[0m,[[34mrsp[0m+[35m0x180[0m]
  402b2f:	[36m|[0m  [37m|[0m  [32m|[0m  [31m|[0m  [32m|[0m  [34m|[0m  [32m|[0m  [37m|[0m  [33m|[0m  [35m|[0m  [36m|[0m  [36m|[0m  [37m|[0m  [31m|[0m  [37m|[0m  [36m|[0m  [32m|[0m  [33m|[0m  [37m|[0m  [33m|[0m  [36m|[0m  [34m|[0m                                   [32m|[0m                        00 
  402b30:	[36m|[0m  [37m|[0m  [32m|[0m  [31m|[0m  [32m|[0m  [34m|[0m  [32m|[0m  [37m|[0m  [33m|[0m  [35m|[0m  [36m|[0m  [36m|[0m  [37m|[0m  [31m|[0m  [37m|[0m  [36m|[0m  [32m|[0m  [33m|[0m  [37m|[0m  [33m|[0m  [36m|[0m  [34m|[0m                                   [32m|[0m                        48 8d 9c 24 c0 00 00 	[33mlea    [0m[34mrbx[0m,[[34mrsp[0m+[35m0xc0[0m]
  402b37:	[36m|[0m  [37m|[0m  [32m|[0m  [31m|[0m  [32m|[0m  [34m|[0m  [32m|[0m  [37m|[0m  [33m|[0m  [35m|[0m  [36m|[0m  [36m|[0m  [37m|[0m  [31m|[0m  [37m|[0m  [36m|[0m  [32m|[0m  [33m|[0m  [37m|[0m  [33m|[0m  [36m|[0m  [34m|[0m                                   [32m|[0m                        00 
  402b38:	[36m|[0m  [37m|[0m  [32m|[0m  [31m|[0m  [32m|[0m  [34m|[0m  [32m|[0m  [37m|[0m  [33m|[0m  [35m|[0m  [36m|[0m  [36m|[0m  [37m|[0m  [31m|[0m  [37m|[0m  [36m|[0m  [32m|[0m  [33m|[0m  [37m|[0m  [33m|[0m  [36m|[0m  [34m|[0m                                   [32m|[0m                        49 89 bf b8 00 00 00 	[33mmov    [0mQWORD PTR [[34mr15[0m+[35m0xb8[0m],[34mrdi[0m
  402b3f:	[36m|[0m  [37m|[0m  [32m|[0m  [31m|[0m  [32m|[0m  [34m|[0m  [32m|[0m  [37m|[0m  [33m|[0m  [35m|[0m  [36m|[0m  [36m|[0m  [37m|[0m  [31m|[0m  [37m|[0m  [36m|[0m  [32m|[0m  [33m|[0m  [37m|[0m  [33m|[0m  [36m|[0m  [34m|[0m  [36m/[36m-[36m-[36m-[36m-[36m-[36m-[36m-[36m-[36m-[36m-[36m-[36m-[36m-[36m-[36m-[36m-[36m-[36m-[36m-[36m-[36m-[36m-[36m-[36m-[36m-[36m-[36m-[36m-[36m-[36m-[36m-[36m-[32m|[36m-[36m-[36m-[36m-[36m-[36m-[36m-[36m-[36m-[36m-[36m-[36m-[36m-[36m-[36m-[36m-[36m-[36m-[36m-[36m-[36m-[36m-[36m>[0m 48 8b 7d d8          	[33mmov    [0m[34mrdi[0m,QWORD PTR [[34mrbp[0m[35m-[0m[35m0x28[0m]
  402b43:	[36m|[0m  [37m|[0m  [32m|[0m  [31m|[0m  [32m|[0m  [34m|[0m  [32m|[0m  [37m|[0m  [33m|[0m  [35m|[0m  [36m|[0m  [36m|[0m  [37m|[0m  [31m|[0m  [37m|[0m  [36m|[0m  [32m|[0m  [33m|[0m  [37m|[0m  [33m|[0m  [36m|[0m  [34m|[0m  [36m|[0m                                [32m|[0m                        48 83 ed 30          	[33msub    [0m[34mrbp[0m,[35m0x30[0m
  402b47:	[36m|[0m  [37m|[0m  [32m|[0m  [31m|[0m  [32m|[0m  [34m|[0m  [32m|[0m  [37m|[0m  [33m|[0m  [35m|[0m  [36m|[0m  [36m|[0m  [37m|[0m  [31m|[0m  [37m|[0m  [36m|[0m  [32m|[0m  [33m|[0m  [37m|[0m  [33m|[0m  [36m|[0m  [34m|[0m  [36m|[0m                                [32m|[0m                        48 8d 55 18          	[33mlea    [0m[34mrdx[0m,[[34mrbp[0m+[35m0x18[0m]
  402b4b:	[36m|[0m  [37m|[0m  [32m|[0m  [31m|[0m  [32m|[0m  [34m|[0m  [32m|[0m  [37m|[0m  [33m|[0m  [35m|[0m  [36m|[0m  [36m|[0m  [37m|[0m  [31m|[0m  [37m|[0m  [36m|[0m  [32m|[0m  [33m|[0m  [37m|[0m  [33m|[0m  [36m|[0m  [34m|[0m  [36m|[0m                                [32m|[0m                        48 39 d7             	[33mcmp    [0m[34mrdi[0m,[34mrdx[0m
  402b4e:	[36m|[0m  [37m|[0m  [32m|[0m  [31m|[0m  [32m|[0m  [34m|[0m  [32m|[0m  [37m|[0m  [33m|[0m  [35m|[0m  [36m|[0m  [36m|[0m  [37m|[0m  [31m|[0m  [37m|[0m  [36m|[0m  [32m|[0m  [33m|[0m  [37m|[0m  [33m|[0m  [36m|[0m  [34m|[0m  [36m|[0m  [36m/-----------------------------[32m|[36m-----------------------[0m 0f 84 cf 04 00 00    	[33mje     [0m[35m403023[0m <[32m_Z13calc_speed_upv[0m[35m+0x[0m[35m973[0m>
  402b54:	[36m|[0m  [37m|[0m  [32m|[0m  [31m|[0m  [32m|[0m  [34m|[0m  [32m|[0m  [37m|[0m  [33m|[0m  [35m|[0m  [36m|[0m  [36m|[0m  [37m|[0m  [31m|[0m  [37m|[0m  [36m|[0m  [32m|[0m  [33m|[0m  [37m|[0m  [33m|[0m  [36m|[0m  [34m|[0m  [36m|[0m  [36m|[0m                             [32m|[0m                        48 8b 45 18          	[33mmov    [0m[34mrax[0m,QWORD PTR [[34mrbp[0m+[35m0x18[0m]
  402b58:	[36m|[0m  [37m|[0m  [32m|[0m  [31m|[0m  [32m|[0m  [34m|[0m  [32m|[0m  [37m|[0m  [33m|[0m  [35m|[0m  [36m|[0m  [36m|[0m  [37m|[0m  [31m|[0m  [37m|[0m  [36m|[0m  [32m|[0m  [33m|[0m  [37m|[0m  [33m|[0m  [36m|[0m  [34m|[0m  [36m|[0m  [36m|[0m                             [32m|[0m                        48 8d 70 01          	[33mlea    [0m[34mrsi[0m,[[34mrax[0m+[35m0x1[0m]
  402b5c:	[36m|[0m  [37m|[0m  [32m|[0m  [31m|[0m  [32m|[0m  [34m|[0m  [32m|[0m  [37m|[0m  [33m|[0m  [35m|[0m  [36m|[0m  [36m|[0m  [37m|[0m  [31m|[0m  [37m|[0m  [36m|[0m  [32m|[0m  [33m|[0m  [37m|[0m  [33m|[0m  [36m|[0m  [34m|[0m  [36m|[0m  [36m|[0m                             [32m|[0m                        e8 5f f5 ff ff       	[33mcall   [0m[35m4020c0[0m <[32m_ZdlPvm@plt[0m>
  402b61:	[36m|[0m  [37m|[0m  [32m|[0m  [31m|[0m  [32m|[0m  [34m|[0m  [32m|[0m  [37m|[0m  [33m|[0m  [35m|[0m  [36m|[0m  [36m|[0m  [37m|[0m  [31m|[0m  [37m|[0m  [36m|[0m  [32m|[0m  [33m|[0m  [37m|[0m  [33m|[0m  [36m|[0m  [34m|[0m  [36m|[0m  [36m|[0m                             [32m|[0m                        48 39 dd             	[33mcmp    [0m[34mrbp[0m,[34mrbx[0m
  402b64:	[36m|[0m  [37m|[0m  [32m|[0m  [31m|[0m  [32m|[0m  [34m|[0m  [32m|[0m  [37m|[0m  [33m|[0m  [35m|[0m  [36m|[0m  [36m|[0m  [37m|[0m  [31m|[0m  [37m|[0m  [36m|[0m  [32m|[0m  [33m|[0m  [37m|[0m  [33m|[0m  [36m|[0m  [34m|[0m  [36m+[36m-[36m-[36m|[36m-[36m-[36m-[36m-[36m-[36m-[36m-[36m-[36m-[36m-[36m-[36m-[36m-[36m-[36m-[36m-[36m-[36m-[36m-[36m-[36m-[36m-[36m-[36m-[36m-[36m-[36m-[36m-[36m-[32m|[36m-[36m-[36m-[36m-[36m-[36m-[36m-[36m-[36m-[36m-[36m-[36m-[36m-[36m-[36m-[36m-[36m-[36m-[36m-[36m-[36m-[36m-[36m-[0m 75 d9                	[33mjne    [0m[35m402b3f[0m <[32m_Z13calc_speed_upv[0m[35m+0x[0m[35m48f[0m>
  402b66:	[36m|[0m  [37m|[0m  [32m|[0m  [31m|[0m  [32m|[0m  [34m|[0m  [32m|[0m  [37m|[0m  [33m|[0m  [35m|[0m  [36m|[0m  [36m|[0m  [37m|[0m  [31m|[0m  [37m|[0m  [36m|[0m  [32m|[0m  [33m|[0m  [37m|[0m  [33m|[0m  [36m|[0m  [34m|[0m  [36m|[0m  [36m|[0m  [35m/[35m-[35m-[35m-[35m-[35m-[35m-[35m-[35m-[35m-[35m-[35m-[35m-[35m-[35m-[35m-[35m-[35m-[35m-[35m-[35m-[35m-[35m-[35m-[35m-[35m-[35m-[32m|[35m-[35m-[35m-[35m-[35m-[35m-[35m-[35m-[35m-[35m-[35m-[35m-[35m-[35m-[35m-[35m-[35m-[35m-[35m-[35m-[35m-[35m-[35m>[0m 48 8b bc 24 a0 00 00 	[33mmov    [0m[34mrdi[0m,QWORD PTR [[34mrsp[0m+[35m0xa0[0m]
  402b6d:	[36m|[0m  [37m|[0m  [32m|[0m  [31m|[0m  [32m|[0m  [34m|[0m  [32m|[0m  [37m|[0m  [33m|[0m  [35m|[0m  [36m|[0m  [36m|[0m  [37m|[0m  [31m|[0m  [37m|[0m  [36m|[0m  [32m|[0m  [33m|[0m  [37m|[0m  [33m|[0m  [36m|[0m  [34m|[0m  [36m|[0m  [36m|[0m  [35m|[0m                          [32m|[0m                        00 
  402b6e:	[36m|[0m  [37m|[0m  [32m|[0m  [31m|[0m  [32m|[0m  [34m|[0m  [32m|[0m  [37m|[0m  [33m|[0m  [35m|[0m  [36m|[0m  [36m|[0m  [37m|[0m  [31m|[0m  [37m|[0m  [36m|[0m  [32m|[0m  [33m|[0m  [37m|[0m  [33m|[0m  [36m|[0m  [34m|[0m  [36m|[0m  [36m|[0m  [35m|[0m                          [32m|[0m                        4c 39 ef             	[33mcmp    [0m[34mrdi[0m,[34mr13[0m
  402b71:	[36m|[0m  [37m|[0m  [32m|[0m  [31m|[0m  [32m|[0m  [34m|[0m  [32m|[0m  [37m|[0m  [33m|[0m  [35m|[0m  [36m|[0m  [36m|[0m  [37m|[0m  [31m|[0m  [37m|[0m  [36m|[0m  [32m|[0m  [33m|[0m  [37m|[0m  [33m|[0m  [36m|[0m  [34m|[0m  [36m|[0m  [36m|[0m  [35m|[0m                          [32m|[0m                    [34m/--[0m 74 11                	[33mje     [0m[35m402b84[0m <[32m_Z13calc_speed_upv[0m[35m+0x[0m[35m4d4[0m>
  402b73:	[36m|[0m  [37m|[0m  [32m|[0m  [31m|[0m  [32m|[0m  [34m|[0m  [32m|[0m  [37m|[0m  [33m|[0m  [35m|[0m  [36m|[0m  [36m|[0m  [37m|[0m  [31m|[0m  [37m|[0m  [36m|[0m  [32m|[0m  [33m|[0m  [37m|[0m  [33m|[0m  [36m|[0m  [34m|[0m  [36m|[0m  [36m|[0m  [35m|[0m                          [32m|[0m                    [34m|[0m   4c 8b ac 24 b0 00 00 	[33mmov    [0m[34mr13[0m,QWORD PTR [[34mrsp[0m+[35m0xb0[0m]
  402b7a:	[36m|[0m  [37m|[0m  [32m|[0m  [31m|[0m  [32m|[0m  [34m|[0m  [32m|[0m  [37m|[0m  [33m|[0m  [35m|[0m  [36m|[0m  [36m|[0m  [37m|[0m  [31m|[0m  [37m|[0m  [36m|[0m  [32m|[0m  [33m|[0m  [37m|[0m  [33m|[0m  [36m|[0m  [34m|[0m  [36m|[0m  [36m|[0m  [35m|[0m                          [32m|[0m                    [34m|[0m   00 
  402b7b:	[36m|[0m  [37m|[0m  [32m|[0m  [31m|[0m  [32m|[0m  [34m|[0m  [32m|[0m  [37m|[0m  [33m|[0m  [35m|[0m  [36m|[0m  [36m|[0m  [37m|[0m  [31m|[0m  [37m|[0m  [36m|[0m  [32m|[0m  [33m|[0m  [37m|[0m  [33m|[0m  [36m|[0m  [34m|[0m  [36m|[0m  [36m|[0m  [35m|[0m                          [32m|[0m                    [34m|[0m   49 8d 75 01          	[33mlea    [0m[34mrsi[0m,[[34mr13[0m+[35m0x1[0m]
  402b7f:	[36m|[0m  [37m|[0m  [32m|[0m  [31m|[0m  [32m|[0m  [34m|[0m  [32m|[0m  [37m|[0m  [33m|[0m  [35m|[0m  [36m|[0m  [36m|[0m  [37m|[0m  [31m|[0m  [37m|[0m  [36m|[0m  [32m|[0m  [33m|[0m  [37m|[0m  [33m|[0m  [36m|[0m  [34m|[0m  [36m|[0m  [36m|[0m  [35m|[0m                          [32m|[0m                    [34m|[0m   e8 3c f5 ff ff       	[33mcall   [0m[35m4020c0[0m <[32m_ZdlPvm@plt[0m>
  402b84:	[36m|[0m  [37m|[0m  [32m|[0m  [31m|[0m  [32m|[0m  [34m|[0m  [32m|[0m  [37m|[0m  [33m|[0m  [35m|[0m  [36m|[0m  [36m|[0m  [37m|[0m  [31m|[0m  [37m|[0m  [36m|[0m  [32m|[0m  [33m|[0m  [37m|[0m  [33m|[0m  [36m|[0m  [34m|[0m  [36m|[0m  [36m|[0m  [35m|[0m                          [32m|[0m                    [34m\->[0m 48 8b bc 24 80 00 00 	[33mmov    [0m[34mrdi[0m,QWORD PTR [[34mrsp[0m+[35m0x80[0m]
  402b8b:	[36m|[0m  [37m|[0m  [32m|[0m  [31m|[0m  [32m|[0m  [34m|[0m  [32m|[0m  [37m|[0m  [33m|[0m  [35m|[0m  [36m|[0m  [36m|[0m  [37m|[0m  [31m|[0m  [37m|[0m  [36m|[0m  [32m|[0m  [33m|[0m  [37m|[0m  [33m|[0m  [36m|[0m  [34m|[0m  [36m|[0m  [36m|[0m  [35m|[0m                          [32m|[0m                        00 
  402b8c:	[36m|[0m  [37m|[0m  [32m|[0m  [31m|[0m  [32m|[0m  [34m|[0m  [32m|[0m  [37m|[0m  [33m|[0m  [35m|[0m  [36m|[0m  [36m|[0m  [37m|[0m  [31m|[0m  [37m|[0m  [36m|[0m  [32m|[0m  [33m|[0m  [37m|[0m  [33m|[0m  [36m|[0m  [34m|[0m  [36m|[0m  [36m|[0m  [35m|[0m                          [32m|[0m                        4c 39 e7             	[33mcmp    [0m[34mrdi[0m,[34mr12[0m
  402b8f:	[36m|[0m  [37m|[0m  [32m|[0m  [31m|[0m  [32m|[0m  [34m|[0m  [32m|[0m  [37m|[0m  [33m|[0m  [35m|[0m  [36m|[0m  [36m|[0m  [37m|[0m  [31m|[0m  [37m|[0m  [36m|[0m  [32m|[0m  [33m|[0m  [37m|[0m  [33m|[0m  [36m|[0m  [34m|[0m  [36m|[0m  [36m|[0m  [35m|[0m                          [32m|[0m                    [36m/--[0m 74 12                	[33mje     [0m[35m402ba3[0m <[32m_Z13calc_speed_upv[0m[35m+0x[0m[35m4f3[0m>
  402b91:	[36m|[0m  [37m|[0m  [32m|[0m  [31m|[0m  [32m|[0m  [34m|[0m  [32m|[0m  [37m|[0m  [33m|[0m  [35m|[0m  [36m|[0m  [36m|[0m  [37m|[0m  [31m|[0m  [37m|[0m  [36m|[0m  [32m|[0m  [33m|[0m  [37m|[0m  [33m|[0m  [36m|[0m  [34m|[0m  [36m|[0m  [36m|[0m  [35m|[0m                          [32m|[0m                    [36m|[0m   4c 8b a4 24 90 00 00 	[33mmov    [0m[34mr12[0m,QWORD PTR [[34mrsp[0m+[35m0x90[0m]
  402b98:	[36m|[0m  [37m|[0m  [32m|[0m  [31m|[0m  [32m|[0m  [34m|[0m  [32m|[0m  [37m|[0m  [33m|[0m  [35m|[0m  [36m|[0m  [36m|[0m  [37m|[0m  [31m|[0m  [37m|[0m  [36m|[0m  [32m|[0m  [33m|[0m  [37m|[0m  [33m|[0m  [36m|[0m  [34m|[0m  [36m|[0m  [36m|[0m  [35m|[0m                          [32m|[0m                    [36m|[0m   00 
  402b99:	[36m|[0m  [37m|[0m  [32m|[0m  [31m|[0m  [32m|[0m  [34m|[0m  [32m|[0m  [37m|[0m  [33m|[0m  [35m|[0m  [36m|[0m  [36m|[0m  [37m|[0m  [31m|[0m  [37m|[0m  [36m|[0m  [32m|[0m  [33m|[0m  [37m|[0m  [33m|[0m  [36m|[0m  [34m|[0m  [36m|[0m  [36m|[0m  [35m|[0m                          [32m|[0m                    [36m|[0m   49 8d 74 24 01       	[33mlea    [0m[34mrsi[0m,[[34mr12[0m+[35m0x1[0m]
  402b9e:	[36m|[0m  [37m|[0m  [32m|[0m  [31m|[0m  [32m|[0m  [34m|[0m  [32m|[0m  [37m|[0m  [33m|[0m  [35m|[0m  [36m|[0m  [36m|[0m  [37m|[0m  [31m|[0m  [37m|[0m  [36m|[0m  [32m|[0m  [33m|[0m  [37m|[0m  [33m|[0m  [36m|[0m  [34m|[0m  [36m|[0m  [36m|[0m  [35m|[0m                          [32m|[0m                    [36m|[0m   e8 1d f5 ff ff       	[33mcall   [0m[35m4020c0[0m <[32m_ZdlPvm@plt[0m>
  402ba3:	[36m|[0m  [37m|[0m  [32m|[0m  [31m|[0m  [32m|[0m  [34m|[0m  [32m|[0m  [37m|[0m  [33m|[0m  [35m|[0m  [36m|[0m  [36m|[0m  [37m|[0m  [31m|[0m  [37m|[0m  [36m|[0m  [32m|[0m  [33m|[0m  [37m|[0m  [33m|[0m  [36m|[0m  [34m|[0m  [36m|[0m  [36m|[0m  [35m|[0m                          [32m|[0m                    [36m\->[0m 48 8b 7c 24 60       	[33mmov    [0m[34mrdi[0m,QWORD PTR [[34mrsp[0m+[35m0x60[0m]
  402ba8:	[36m|[0m  [37m|[0m  [32m|[0m  [31m|[0m  [32m|[0m  [34m|[0m  [32m|[0m  [37m|[0m  [33m|[0m  [35m|[0m  [36m|[0m  [36m|[0m  [37m|[0m  [31m|[0m  [37m|[0m  [36m|[0m  [32m|[0m  [33m|[0m  [37m|[0m  [33m|[0m  [36m|[0m  [34m|[0m  [36m|[0m  [36m|[0m  [35m|[0m                          [32m|[0m                        48 8d 74 24 70       	[33mlea    [0m[34mrsi[0m,[[34mrsp[0m+[35m0x70[0m]
  402bad:	[36m|[0m  [37m|[0m  [32m|[0m  [31m|[0m  [32m|[0m  [34m|[0m  [32m|[0m  [37m|[0m  [33m|[0m  [35m|[0m  [36m|[0m  [36m|[0m  [37m|[0m  [31m|[0m  [37m|[0m  [36m|[0m  [32m|[0m  [33m|[0m  [37m|[0m  [33m|[0m  [36m|[0m  [34m|[0m  [36m|[0m  [36m|[0m  [35m|[0m                          [32m|[0m                        48 39 f7             	[33mcmp    [0m[34mrdi[0m,[34mrsi[0m
  402bb0:	[36m|[0m  [37m|[0m  [32m|[0m  [31m|[0m  [32m|[0m  [34m|[0m  [32m|[0m  [37m|[0m  [33m|[0m  [35m|[0m  [36m|[0m  [36m|[0m  [37m|[0m  [31m|[0m  [37m|[0m  [36m|[0m  [32m|[0m  [33m|[0m  [37m|[0m  [33m|[0m  [36m|[0m  [34m|[0m  [36m|[0m  [36m|[0m  [35m|[0m                          [32m|[0m                    [32m/[32m-[32m-[0m 74 0e                	[33mje     [0m[35m402bc0[0m <[32m_Z13calc_speed_upv[0m[35m+0x[0m[35m510[0m>
  402bb2:	[36m|[0m  [37m|[0m  [32m|[0m  [31m|[0m  [32m|[0m  [34m|[0m  [32m|[0m  [37m|[0m  [33m|[0m  [35m|[0m  [36m|[0m  [36m|[0m  [37m|[0m  [31m|[0m  [37m|[0m  [36m|[0m  [32m|[0m  [33m|[0m  [37m|[0m  [33m|[0m  [36m|[0m  [34m|[0m  [36m|[0m  [36m|[0m  [35m|[0m                          [32m|[0m                    [32m|[0m   4c 8b 44 24 70       	[33mmov    [0m[34mr8[0m,QWORD PTR [[34mrsp[0m+[35m0x70[0m]
  402bb7:	[36m|[0m  [37m|[0m  [32m|[0m  [31m|[0m  [32m|[0m  [34m|[0m  [32m|[0m  [37m|[0m  [33m|[0m  [35m|[0m  [36m|[0m  [36m|[0m  [37m|[0m  [31m|[0m  [37m|[0m  [36m|[0m  [32m|[0m  [33m|[0m  [37m|[0m  [33m|[0m  [36m|[0m  [34m|[0m  [36m|[0m  [36m|[0m  [35m|[0m                          [32m|[0m                    [32m|[0m   49 8d 70 01          	[33mlea    [0m[34mrsi[0m,[[34mr8[0m+[35m0x1[0m]
  402bbb:	[36m|[0m  [37m|[0m  [32m|[0m  [31m|[0m  [32m|[0m  [34m|[0m  [32m|[0m  [37m|[0m  [33m|[0m  [35m|[0m  [36m|[0m  [36m|[0m  [37m|[0m  [31m|[0m  [37m|[0m  [36m|[0m  [32m|[0m  [33m|[0m  [37m|[0m  [33m|[0m  [36m|[0m  [34m|[0m  [36m|[0m  [36m|[0m  [35m|[0m                          [32m|[0m                    [32m|[0m   e8 00 f5 ff ff       	[33mcall   [0m[35m4020c0[0m <[32m_ZdlPvm@plt[0m>
  402bc0:	[36m|[0m  [37m|[0m  [32m|[0m  [31m|[0m  [32m|[0m  [34m|[0m  [32m|[0m  [37m|[0m  [33m|[0m  [35m|[0m  [36m|[0m  [36m|[0m  [37m|[0m  [31m|[0m  [37m|[0m  [36m|[0m  [32m|[0m  [33m|[0m  [37m|[0m  [33m|[0m  [36m|[0m  [34m|[0m  [36m|[0m  [36m|[0m  [35m|[0m                          [32m|[0m                    [32m\[32m-[32m>[0m 48 8b 7c 24 40       	[33mmov    [0m[34mrdi[0m,QWORD PTR [[34mrsp[0m+[35m0x40[0m]
  402bc5:	[36m|[0m  [37m|[0m  [32m|[0m  [31m|[0m  [32m|[0m  [34m|[0m  [32m|[0m  [37m|[0m  [33m|[0m  [35m|[0m  [36m|[0m  [36m|[0m  [37m|[0m  [31m|[0m  [37m|[0m  [36m|[0m  [32m|[0m  [33m|[0m  [37m|[0m  [33m|[0m  [36m|[0m  [34m|[0m  [36m|[0m  [36m|[0m  [35m|[0m                          [32m|[0m                        4c 39 f7             	[33mcmp    [0m[34mrdi[0m,[34mr14[0m
  402bc8:	[36m|[0m  [37m|[0m  [32m|[0m  [31m|[0m  [32m|[0m  [34m|[0m  [32m|[0m  [37m|[0m  [33m|[0m  [35m|[0m  [36m|[0m  [36m|[0m  [37m|[0m  [31m|[0m  [37m|[0m  [36m|[0m  [32m|[0m  [33m|[0m  [37m|[0m  [33m|[0m  [36m|[0m  [34m|[0m  [36m|[0m  [36m|[0m  [35m|[0m                          [32m|[0m                    [32m/--[0m 74 0e                	[33mje     [0m[35m402bd8[0m <[32m_Z13calc_speed_upv[0m[35m+0x[0m[35m528[0m>
  402bca:	[36m|[0m  [37m|[0m  [32m|[0m  [31m|[0m  [32m|[0m  [34m|[0m  [32m|[0m  [37m|[0m  [33m|[0m  [35m|[0m  [36m|[0m  [36m|[0m  [37m|[0m  [31m|[0m  [37m|[0m  [36m|[0m  [32m|[0m  [33m|[0m  [37m|[0m  [33m|[0m  [36m|[0m  [34m|[0m  [36m|[0m  [36m|[0m  [35m|[0m                          [32m|[0m                    [32m|[0m   4c 8b 74 24 50       	[33mmov    [0m[34mr14[0m,QWORD PTR [[34mrsp[0m+[35m0x50[0m]
  402bcf:	[36m|[0m  [37m|[0m  [32m|[0m  [31m|[0m  [32m|[0m  [34m|[0m  [32m|[0m  [37m|[0m  [33m|[0m  [35m|[0m  [36m|[0m  [36m|[0m  [37m|[0m  [31m|[0m  [37m|[0m  [36m|[0m  [32m|[0m  [33m|[0m  [37m|[0m  [33m|[0m  [36m|[0m  [34m|[0m  [36m|[0m  [36m|[0m  [35m|[0m                          [32m|[0m                    [32m|[0m   49 8d 76 01          	[33mlea    [0m[34mrsi[0m,[[34mr14[0m+[35m0x1[0m]
  402bd3:	[36m|[0m  [37m|[0m  [32m|[0m  [31m|[0m  [32m|[0m  [34m|[0m  [32m|[0m  [37m|[0m  [33m|[0m  [35m|[0m  [36m|[0m  [36m|[0m  [37m|[0m  [31m|[0m  [37m|[0m  [36m|[0m  [32m|[0m  [33m|[0m  [37m|[0m  [33m|[0m  [36m|[0m  [34m|[0m  [36m|[0m  [36m|[0m  [35m|[0m                          [32m|[0m                    [32m|[0m   e8 e8 f4 ff ff       	[33mcall   [0m[35m4020c0[0m <[32m_ZdlPvm@plt[0m>
  402bd8:	[36m|[0m  [37m|[0m  [32m|[0m  [31m|[0m  [32m|[0m  [34m|[0m  [32m|[0m  [37m|[0m  [33m|[0m  [35m|[0m  [36m|[0m  [36m|[0m  [37m|[0m  [31m|[0m  [37m|[0m  [36m|[0m  [32m|[0m  [33m|[0m  [37m|[0m  [33m|[0m  [36m|[0m  [34m|[0m  [36m|[0m  [36m|[0m  [35m|[0m                          [32m|[0m                    [32m\->[0m 4d 8d 8f f0 00 00 00 	[33mlea    [0m[34mr9[0m,[[34mr15[0m+[35m0xf0[0m]
  402bdf:	[36m|[0m  [37m|[0m  [32m|[0m  [31m|[0m  [32m|[0m  [34m|[0m  [32m|[0m  [37m|[0m  [33m|[0m  [35m|[0m  [36m|[0m  [36m|[0m  [37m|[0m  [31m|[0m  [37m|[0m  [36m|[0m  [32m|[0m  [33m|[0m  [37m|[0m  [33m|[0m  [36m|[0m  [34m|[0m  [36m|[0m  [36m|[0m  [35m|[0m                          [32m|[0m                        4c 8b 74 24 08       	[33mmov    [0m[34mr14[0m,QWORD PTR [[34mrsp[0m+[35m0x8[0m]
  402be4:	[36m|[0m  [37m|[0m  [32m|[0m  [31m|[0m  [32m|[0m  [34m|[0m  [32m|[0m  [37m|[0m  [33m|[0m  [35m|[0m  [36m|[0m  [36m|[0m  [37m|[0m  [31m|[0m  [37m|[0m  [36m|[0m  [32m|[0m  [33m|[0m  [37m|[0m  [33m|[0m  [36m|[0m  [34m|[0m  [36m|[0m  [36m|[0m  [35m|[0m                          [32m|[0m                        4c 89 4c 24 08       	[33mmov    [0mQWORD PTR [[34mrsp[0m+[35m0x8[0m],[34mr9[0m
  402be9:	[36m|[0m  [37m|[0m  [32m|[0m  [31m|[0m  [32m|[0m  [34m|[0m  [32m|[0m  [37m|[0m  [33m|[0m  [35m|[0m  [36m|[0m  [36m|[0m  [37m|[0m  [31m|[0m  [37m|[0m  [36m|[0m  [32m|[0m  [33m|[0m  [37m|[0m  [33m|[0m  [36m|[0m  [34m|[0m  [36m|[0m  [36m|[0m  [35m|[0m                          [32m|[0m                        0f 1f 80 00 00 00 00 	[33mnop    [0mDWORD PTR [[34mrax[0m+[35m0x0[0m]
  402bf0:	[36m|[0m  [37m|[0m  [32m|[0m  [31m|[0m  [32m|[0m  [34m|[0m  [32m|[0m  [37m|[0m  [33m|[0m  [35m|[0m  [36m|[0m  [36m|[0m  [37m|[0m  [31m|[0m  [37m|[0m  [36m|[0m  [32m|[0m  [33m|[0m  [37m|[0m  [33m|[0m  [36m|[0m  [34m|[0m  [36m|[0m  [36m|[0m  [35m|[0m                          [32m|[0m              [34m/[34m-[34m-[34m-[34m-[34m-[34m-[34m-[34m>[0m be 80 02 00 00       	[33mmov    [0m[34mesi[0m,[35m0x280[0m
  402bf5:	[36m|[0m  [37m|[0m  [32m|[0m  [31m|[0m  [32m|[0m  [34m|[0m  [32m|[0m  [37m|[0m  [33m|[0m  [35m|[0m  [36m|[0m  [36m|[0m  [37m|[0m  [31m|[0m  [37m|[0m  [36m|[0m  [32m|[0m  [33m|[0m  [37m|[0m  [33m|[0m  [36m|[0m  [34m|[0m  [36m|[0m  [36m|[0m  [35m|[0m                          [32m|[0m              [34m|[0m         48 8d 7c 24 10       	[33mlea    [0m[34mrdi[0m,[[34mrsp[0m+[35m0x10[0m]
  402bfa:	[36m|[0m  [37m|[0m  [32m|[0m  [31m|[0m  [32m|[0m  [34m|[0m  [32m|[0m  [37m|[0m  [33m|[0m  [35m|[0m  [36m|[0m  [36m|[0m  [37m|[0m  [31m|[0m  [37m|[0m  [36m|[0m  [32m|[0m  [33m|[0m  [37m|[0m  [33m|[0m  [36m|[0m  [34m|[0m  [36m|[0m  [36m|[0m  [35m|[0m                          [32m|[0m              [34m|[0m         4d 8b 6e d0          	[33mmov    [0m[34mr13[0m,QWORD PTR [[34mr14[0m[35m-[0m[35m0x30[0m]
  402bfe:	[36m|[0m  [37m|[0m  [32m|[0m  [31m|[0m  [32m|[0m  [34m|[0m  [32m|[0m  [37m|[0m  [33m|[0m  [35m|[0m  [36m|[0m  [36m|[0m  [37m|[0m  [31m|[0m  [37m|[0m  [36m|[0m  [32m|[0m  [33m|[0m  [37m|[0m  [33m|[0m  [36m|[0m  [34m|[0m  [36m|[0m  [36m|[0m  [35m|[0m                          [32m|[0m              [34m|[0m         e8 3d 19 00 00       	[33mcall   [0m[35m404540[0m <[32m_ZN3MtxC1Ej[0m>
  402c03:	[36m|[0m  [37m|[0m  [32m|[0m  [31m|[0m  [32m|[0m  [34m|[0m  [32m|[0m  [37m|[0m  [33m|[0m  [35m|[0m  [36m|[0m  [36m|[0m  [37m|[0m  [31m|[0m  [37m|[0m  [36m|[0m  [32m|[0m  [33m|[0m  [37m|[0m  [33m|[0m  [36m|[0m  [34m|[0m  [36m|[0m  [36m|[0m  [35m|[0m                          [32m|[0m              [34m|[0m         be 80 02 00 00       	[33mmov    [0m[34mesi[0m,[35m0x280[0m
  402c08:	[36m|[0m  [37m|[0m  [32m|[0m  [31m|[0m  [32m|[0m  [34m|[0m  [32m|[0m  [37m|[0m  [33m|[0m  [35m|[0m  [36m|[0m  [36m|[0m  [37m|[0m  [31m|[0m  [37m|[0m  [36m|[0m  [32m|[0m  [33m|[0m  [37m|[0m  [33m|[0m  [36m|[0m  [34m|[0m  [36m|[0m  [36m|[0m  [35m|[0m                          [32m|[0m              [34m|[0m         48 8d 7c 24 20       	[33mlea    [0m[34mrdi[0m,[[34mrsp[0m+[35m0x20[0m]
  402c0d:	[36m|[0m  [37m|[0m  [32m|[0m  [31m|[0m  [32m|[0m  [34m|[0m  [32m|[0m  [37m|[0m  [33m|[0m  [35m|[0m  [36m|[0m  [36m|[0m  [37m|[0m  [31m|[0m  [37m|[0m  [36m|[0m  [32m|[0m  [33m|[0m  [37m|[0m  [33m|[0m  [36m|[0m  [34m|[0m  [36m|[0m  [36m|[0m  [35m|[0m                          [32m|[0m              [34m|[0m         e8 2e 19 00 00       	[33mcall   [0m[35m404540[0m <[32m_ZN3MtxC1Ej[0m>
  402c12:	[36m|[0m  [37m|[0m  [32m|[0m  [31m|[0m  [32m|[0m  [34m|[0m  [32m|[0m  [37m|[0m  [33m|[0m  [35m|[0m  [36m|[0m  [36m|[0m  [37m|[0m  [31m|[0m  [37m|[0m  [36m|[0m  [32m|[0m  [33m|[0m  [37m|[0m  [33m|[0m  [36m|[0m  [34m|[0m  [36m|[0m  [36m|[0m  [35m|[0m                          [32m|[0m              [34m|[0m         be 80 02 00 00       	[33mmov    [0m[34mesi[0m,[35m0x280[0m
  402c17:	[36m|[0m  [37m|[0m  [32m|[0m  [31m|[0m  [32m|[0m  [34m|[0m  [32m|[0m  [37m|[0m  [33m|[0m  [35m|[0m  [36m|[0m  [36m|[0m  [37m|[0m  [31m|[0m  [37m|[0m  [36m|[0m  [32m|[0m  [33m|[0m  [37m|[0m  [33m|[0m  [36m|[0m  [34m|[0m  [36m|[0m  [36m|[0m  [35m|[0m                          [32m|[0m              [34m|[0m         48 8d 7c 24 30       	[33mlea    [0m[34mrdi[0m,[[34mrsp[0m+[35m0x30[0m]
  402c1c:	[36m|[0m  [37m|[0m  [32m|[0m  [31m|[0m  [32m|[0m  [34m|[0m  [32m|[0m  [37m|[0m  [33m|[0m  [35m|[0m  [36m|[0m  [36m|[0m  [37m|[0m  [31m|[0m  [37m|[0m  [36m|[0m  [32m|[0m  [33m|[0m  [37m|[0m  [33m|[0m  [36m|[0m  [34m|[0m  [36m|[0m  [36m|[0m  [35m|[0m                          [32m|[0m              [34m|[0m         e8 1f 19 00 00       	[33mcall   [0m[35m404540[0m <[32m_ZN3MtxC1Ej[0m>
  402c21:	[36m|[0m  [37m|[0m  [32m|[0m  [31m|[0m  [32m|[0m  [34m|[0m  [32m|[0m  [37m|[0m  [33m|[0m  [35m|[0m  [36m|[0m  [36m|[0m  [37m|[0m  [31m|[0m  [37m|[0m  [36m|[0m  [32m|[0m  [33m|[0m  [37m|[0m  [33m|[0m  [36m|[0m  [34m|[0m  [36m|[0m  [36m|[0m  [35m|[0m                          [32m|[0m              [34m|[0m         4c 8b 15 10 24 00 00 	[33mmov    [0m[34mr10[0m,QWORD PTR [[34mrip[0m+[35m0x2410[0m]        # 405038 <_IO_stdin_used+0x38>
  402c28:	[36m|[0m  [37m|[0m  [32m|[0m  [31m|[0m  [32m|[0m  [34m|[0m  [32m|[0m  [37m|[0m  [33m|[0m  [35m|[0m  [36m|[0m  [36m|[0m  [37m|[0m  [31m|[0m  [37m|[0m  [36m|[0m  [32m|[0m  [33m|[0m  [37m|[0m  [33m|[0m  [36m|[0m  [34m|[0m  [36m|[0m  [36m|[0m  [35m|[0m                          [32m|[0m              [34m|[0m         4c 8b 1d 11 24 00 00 	[33mmov    [0m[34mr11[0m,QWORD PTR [[34mrip[0m+[35m0x2411[0m]        # 405040 <_IO_stdin_used+0x40>
  402c2f:	[36m|[0m  [37m|[0m  [32m|[0m  [31m|[0m  [32m|[0m  [34m|[0m  [32m|[0m  [37m|[0m  [33m|[0m  [35m|[0m  [36m|[0m  [36m|[0m  [37m|[0m  [31m|[0m  [37m|[0m  [36m|[0m  [32m|[0m  [33m|[0m  [37m|[0m  [33m|[0m  [36m|[0m  [34m|[0m  [36m|[0m  [36m|[0m  [35m|[0m                          [32m|[0m              [34m|[0m         48 8d 7c 24 10       	[33mlea    [0m[34mrdi[0m,[[34mrsp[0m+[35m0x10[0m]
  402c34:	[36m|[0m  [37m|[0m  [32m|[0m  [31m|[0m  [32m|[0m  [34m|[0m  [32m|[0m  [37m|[0m  [33m|[0m  [35m|[0m  [36m|[0m  [36m|[0m  [37m|[0m  [31m|[0m  [37m|[0m  [36m|[0m  [32m|[0m  [33m|[0m  [37m|[0m  [33m|[0m  [36m|[0m  [34m|[0m  [36m|[0m  [36m|[0m  [35m|[0m                          [32m|[0m              [34m|[0m         c4 c1 f9 6e ca       	[33mvmovq  [0m[34mxmm1[0m,[34mr10[0m
  402c39:	[36m|[0m  [37m|[0m  [32m|[0m  [31m|[0m  [32m|[0m  [34m|[0m  [32m|[0m  [37m|[0m  [33m|[0m  [35m|[0m  [36m|[0m  [36m|[0m  [37m|[0m  [31m|[0m  [37m|[0m  [36m|[0m  [32m|[0m  [33m|[0m  [37m|[0m  [33m|[0m  [36m|[0m  [34m|[0m  [36m|[0m  [36m|[0m  [35m|[0m                          [32m|[0m              [34m|[0m         c4 c1 f9 6e c3       	[33mvmovq  [0m[34mxmm0[0m,[34mr11[0m
  402c3e:	[36m|[0m  [37m|[0m  [32m|[0m  [31m|[0m  [32m|[0m  [34m|[0m  [32m|[0m  [37m|[0m  [33m|[0m  [35m|[0m  [36m|[0m  [36m|[0m  [37m|[0m  [31m|[0m  [37m|[0m  [36m|[0m  [32m|[0m  [33m|[0m  [37m|[0m  [33m|[0m  [36m|[0m  [34m|[0m  [36m|[0m  [36m|[0m  [35m|[0m                          [32m|[0m              [34m|[0m         e8 ad 19 00 00       	[33mcall   [0m[35m4045f0[0m <[32m_ZN3Mtx8generateEdd[0m>
  402c43:	[36m|[0m  [37m|[0m  [32m|[0m  [31m|[0m  [32m|[0m  [34m|[0m  [32m|[0m  [37m|[0m  [33m|[0m  [35m|[0m  [36m|[0m  [36m|[0m  [37m|[0m  [31m|[0m  [37m|[0m  [36m|[0m  [32m|[0m  [33m|[0m  [37m|[0m  [33m|[0m  [36m|[0m  [34m|[0m  [36m|[0m  [36m|[0m  [35m|[0m                          [32m|[0m              [34m|[0m         48 8b 3d ee 23 00 00 	[33mmov    [0m[34mrdi[0m,QWORD PTR [[34mrip[0m+[35m0x23ee[0m]        # 405038 <_IO_stdin_used+0x38>
  402c4a:	[36m|[0m  [37m|[0m  [32m|[0m  [31m|[0m  [32m|[0m  [34m|[0m  [32m|[0m  [37m|[0m  [33m|[0m  [35m|[0m  [36m|[0m  [36m|[0m  [37m|[0m  [31m|[0m  [37m|[0m  [36m|[0m  [32m|[0m  [33m|[0m  [37m|[0m  [33m|[0m  [36m|[0m  [34m|[0m  [36m|[0m  [36m|[0m  [35m|[0m                          [32m|[0m              [34m|[0m         48 8b 0d ef 23 00 00 	[33mmov    [0m[34mrcx[0m,QWORD PTR [[34mrip[0m+[35m0x23ef[0m]        # 405040 <_IO_stdin_used+0x40>
  402c51:	[36m|[0m  [37m|[0m  [32m|[0m  [31m|[0m  [32m|[0m  [34m|[0m  [32m|[0m  [37m|[0m  [33m|[0m  [35m|[0m  [36m|[0m  [36m|[0m  [37m|[0m  [31m|[0m  [37m|[0m  [36m|[0m  [32m|[0m  [33m|[0m  [37m|[0m  [33m|[0m  [36m|[0m  [34m|[0m  [36m|[0m  [36m|[0m  [35m|[0m                          [32m|[0m              [34m|[0m         c4 e1 f9 6e cf       	[33mvmovq  [0m[34mxmm1[0m,[34mrdi[0m
  402c56:	[36m|[0m  [37m|[0m  [32m|[0m  [31m|[0m  [32m|[0m  [34m|[0m  [32m|[0m  [37m|[0m  [33m|[0m  [35m|[0m  [36m|[0m  [36m|[0m  [37m|[0m  [31m|[0m  [37m|[0m  [36m|[0m  [32m|[0m  [33m|[0m  [37m|[0m  [33m|[0m  [36m|[0m  [34m|[0m  [36m|[0m  [36m|[0m  [35m|[0m                          [32m|[0m              [34m|[0m         c4 e1 f9 6e c1       	[33mvmovq  [0m[34mxmm0[0m,[34mrcx[0m
  402c5b:	[36m|[0m  [37m|[0m  [32m|[0m  [31m|[0m  [32m|[0m  [34m|[0m  [32m|[0m  [37m|[0m  [33m|[0m  [35m|[0m  [36m|[0m  [36m|[0m  [37m|[0m  [31m|[0m  [37m|[0m  [36m|[0m  [32m|[0m  [33m|[0m  [37m|[0m  [33m|[0m  [36m|[0m  [34m|[0m  [36m|[0m  [36m|[0m  [35m|[0m                          [32m|[0m              [34m|[0m         48 8d 7c 24 20       	[33mlea    [0m[34mrdi[0m,[[34mrsp[0m+[35m0x20[0m]
  402c60:	[36m|[0m  [37m|[0m  [32m|[0m  [31m|[0m  [32m|[0m  [34m|[0m  [32m|[0m  [37m|[0m  [33m|[0m  [35m|[0m  [36m|[0m  [36m|[0m  [37m|[0m  [31m|[0m  [37m|[0m  [36m|[0m  [32m|[0m  [33m|[0m  [37m|[0m  [33m|[0m  [36m|[0m  [34m|[0m  [36m|[0m  [36m|[0m  [35m|[0m                          [32m|[0m              [34m|[0m         e8 8b 19 00 00       	[33mcall   [0m[35m4045f0[0m <[32m_ZN3Mtx8generateEdd[0m>
  402c65:	[36m|[0m  [37m|[0m  [32m|[0m  [31m|[0m  [32m|[0m  [34m|[0m  [32m|[0m  [37m|[0m  [33m|[0m  [35m|[0m  [36m|[0m  [36m|[0m  [37m|[0m  [31m|[0m  [37m|[0m  [36m|[0m  [32m|[0m  [33m|[0m  [37m|[0m  [33m|[0m  [36m|[0m  [34m|[0m  [36m|[0m  [36m|[0m  [35m|[0m                          [32m|[0m              [34m|[0m         48 8d 7c 24 30       	[33mlea    [0m[34mrdi[0m,[[34mrsp[0m+[35m0x30[0m]
  402c6a:	[36m|[0m  [37m|[0m  [32m|[0m  [31m|[0m  [32m|[0m  [34m|[0m  [32m|[0m  [37m|[0m  [33m|[0m  [35m|[0m  [36m|[0m  [36m|[0m  [37m|[0m  [31m|[0m  [37m|[0m  [36m|[0m  [32m|[0m  [33m|[0m  [37m|[0m  [33m|[0m  [36m|[0m  [34m|[0m  [36m|[0m  [36m|[0m  [35m|[0m                          [32m|[0m              [34m|[0m         e8 51 19 00 00       	[33mcall   [0m[35m4045c0[0m <[32m_ZN3Mtx4zeroEv[0m>
  402c6f:	[36m|[0m  [37m|[0m  [32m|[0m  [31m|[0m  [32m|[0m  [34m|[0m  [32m|[0m  [37m|[0m  [33m|[0m  [35m|[0m  [36m|[0m  [36m|[0m  [37m|[0m  [31m|[0m  [37m|[0m  [36m|[0m  [32m|[0m  [33m|[0m  [37m|[0m  [33m|[0m  [36m|[0m  [34m|[0m  [36m|[0m  [36m|[0m  [35m|[0m                          [32m|[0m              [34m|[0m         e8 7c 18 00 00       	[33mcall   [0m[35m4044f0[0m <[32m_Z13get_timestampv[0m>
  402c74:	[36m|[0m  [37m|[0m  [32m|[0m  [31m|[0m  [32m|[0m  [34m|[0m  [32m|[0m  [37m|[0m  [33m|[0m  [35m|[0m  [36m|[0m  [36m|[0m  [37m|[0m  [31m|[0m  [37m|[0m  [36m|[0m  [32m|[0m  [33m|[0m  [37m|[0m  [33m|[0m  [36m|[0m  [34m|[0m  [36m|[0m  [36m|[0m  [35m|[0m                          [32m|[0m              [34m|[0m         48 8b 4c 24 30       	[33mmov    [0m[34mrcx[0m,QWORD PTR [[34mrsp[0m+[35m0x30[0m]
  402c79:	[36m|[0m  [37m|[0m  [32m|[0m  [31m|[0m  [32m|[0m  [34m|[0m  [32m|[0m  [37m|[0m  [33m|[0m  [35m|[0m  [36m|[0m  [36m|[0m  [37m|[0m  [31m|[0m  [37m|[0m  [36m|[0m  [32m|[0m  [33m|[0m  [37m|[0m  [33m|[0m  [36m|[0m  [34m|[0m  [36m|[0m  [36m|[0m  [35m|[0m                          [32m|[0m              [34m|[0m         48 8b 54 24 20       	[33mmov    [0m[34mrdx[0m,QWORD PTR [[34mrsp[0m+[35m0x20[0m]
  402c7e:	[36m|[0m  [37m|[0m  [32m|[0m  [31m|[0m  [32m|[0m  [34m|[0m  [32m|[0m  [37m|[0m  [33m|[0m  [35m|[0m  [36m|[0m  [36m|[0m  [37m|[0m  [31m|[0m  [37m|[0m  [36m|[0m  [32m|[0m  [33m|[0m  [37m|[0m  [33m|[0m  [36m|[0m  [34m|[0m  [36m|[0m  [36m|[0m  [35m|[0m                          [32m|[0m              [34m|[0m         48 89 c5             	[33mmov    [0m[34mrbp[0m,[34mrax[0m
  402c81:	[36m|[0m  [37m|[0m  [32m|[0m  [31m|[0m  [32m|[0m  [34m|[0m  [32m|[0m  [37m|[0m  [33m|[0m  [35m|[0m  [36m|[0m  [36m|[0m  [37m|[0m  [31m|[0m  [37m|[0m  [36m|[0m  [32m|[0m  [33m|[0m  [37m|[0m  [33m|[0m  [36m|[0m  [34m|[0m  [36m|[0m  [36m|[0m  [35m|[0m                          [32m|[0m              [34m|[0m         bf 80 02 00 00       	[33mmov    [0m[34medi[0m,[35m0x280[0m
  402c86:	[36m|[0m  [37m|[0m  [32m|[0m  [31m|[0m  [32m|[0m  [34m|[0m  [32m|[0m  [37m|[0m  [33m|[0m  [35m|[0m  [36m|[0m  [36m|[0m  [37m|[0m  [31m|[0m  [37m|[0m  [36m|[0m  [32m|[0m  [33m|[0m  [37m|[0m  [33m|[0m  [36m|[0m  [34m|[0m  [36m|[0m  [36m|[0m  [35m|[0m                          [32m|[0m              [34m|[0m         48 8b 74 24 10       	[33mmov    [0m[34mrsi[0m,QWORD PTR [[34mrsp[0m+[35m0x10[0m]
  402c8b:	[36m|[0m  [37m|[0m  [32m|[0m  [31m|[0m  [32m|[0m  [34m|[0m  [32m|[0m  [37m|[0m  [33m|[0m  [35m|[0m  [36m|[0m  [36m|[0m  [37m|[0m  [31m|[0m  [37m|[0m  [36m|[0m  [32m|[0m  [33m|[0m  [37m|[0m  [33m|[0m  [36m|[0m  [34m|[0m  [36m|[0m  [36m|[0m  [35m|[0m                          [32m|[0m              [34m|[0m         41 ff d5             	[33mcall   [0m[34mr13[0m
  402c8e:	[36m|[0m  [37m|[0m  [32m|[0m  [31m|[0m  [32m|[0m  [34m|[0m  [32m|[0m  [37m|[0m  [33m|[0m  [35m|[0m  [36m|[0m  [36m|[0m  [37m|[0m  [31m|[0m  [37m|[0m  [36m|[0m  [32m|[0m  [33m|[0m  [37m|[0m  [33m|[0m  [36m|[0m  [34m|[0m  [36m|[0m  [36m|[0m  [35m|[0m                          [32m|[0m              [34m|[0m         e8 5d 18 00 00       	[33mcall   [0m[35m4044f0[0m <[32m_Z13get_timestampv[0m>
  402c93:	[36m|[0m  [37m|[0m  [32m|[0m  [31m|[0m  [32m|[0m  [34m|[0m  [32m|[0m  [37m|[0m  [33m|[0m  [35m|[0m  [36m|[0m  [36m|[0m  [37m|[0m  [31m|[0m  [37m|[0m  [36m|[0m  [32m|[0m  [33m|[0m  [37m|[0m  [33m|[0m  [36m|[0m  [34m|[0m  [36m|[0m  [36m|[0m  [35m|[0m                          [32m|[0m              [34m|[0m         48 29 e8             	[33msub    [0m[34mrax[0m,[34mrbp[0m
  402c96:	[36m|[0m  [37m|[0m  [32m|[0m  [31m|[0m  [32m|[0m  [34m|[0m  [32m|[0m  [37m|[0m  [33m|[0m  [35m|[0m  [36m|[0m  [36m|[0m  [37m|[0m  [31m|[0m  [37m|[0m  [36m|[0m  [32m|[0m  [33m|[0m  [37m|[0m  [33m|[0m  [36m|[0m  [34m|[0m  [36m|[0m  [36m|[0m  [35m|[0m                          [32m|[0m              [34m|[0m         41 bc 0a 00 00 00    	[33mmov    [0m[34mr12d[0m,[35m0xa[0m
  402c9c:	[36m|[0m  [37m|[0m  [32m|[0m  [31m|[0m  [32m|[0m  [34m|[0m  [32m|[0m  [37m|[0m  [33m|[0m  [35m|[0m  [36m|[0m  [36m|[0m  [37m|[0m  [31m|[0m  [37m|[0m  [36m|[0m  [32m|[0m  [33m|[0m  [37m|[0m  [33m|[0m  [36m|[0m  [34m|[0m  [36m|[0m  [36m|[0m  [35m|[0m                          [32m|[0m              [34m|[0m         48 89 c3             	[33mmov    [0m[34mrbx[0m,[34mrax[0m
  402c9f:	[36m|[0m  [37m|[0m  [32m|[0m  [31m|[0m  [32m|[0m  [34m|[0m  [32m|[0m  [37m|[0m  [33m|[0m  [35m|[0m  [36m|[0m  [36m|[0m  [37m|[0m  [31m|[0m  [37m|[0m  [36m|[0m  [32m|[0m  [33m|[0m  [37m|[0m  [33m|[0m  [36m|[0m  [34m|[0m  [36m|[0m  [36m|[0m  [35m|[0m                          [32m|[0m              [34m|[0m         90                   	[33mnop[0m
  402ca0:	[36m|[0m  [37m|[0m  [32m|[0m  [31m|[0m  [32m|[0m  [34m|[0m  [32m|[0m  [37m|[0m  [33m|[0m  [35m|[0m  [36m|[0m  [36m|[0m  [37m|[0m  [31m|[0m  [37m|[0m  [36m|[0m  [32m|[0m  [33m|[0m  [37m|[0m  [33m|[0m  [36m|[0m  [34m|[0m  [36m|[0m  [36m|[0m  [35m|[0m                          [32m|[0m              [34m|[0m     [31m/[31m-[31m>[0m 48 8b 15 91 23 00 00 	[33mmov    [0m[34mrdx[0m,QWORD PTR [[34mrip[0m+[35m0x2391[0m]        # 405038 <_IO_stdin_used+0x38>
  402ca7:	[36m|[0m  [37m|[0m  [32m|[0m  [31m|[0m  [32m|[0m  [34m|[0m  [32m|[0m  [37m|[0m  [33m|[0m  [35m|[0m  [36m|[0m  [36m|[0m  [37m|[0m  [31m|[0m  [37m|[0m  [36m|[0m  [32m|[0m  [33m|[0m  [37m|[0m  [33m|[0m  [36m|[0m  [34m|[0m  [36m|[0m  [36m|[0m  [35m|[0m                          [32m|[0m              [34m|[0m     [31m|[0m   48 8b 05 92 23 00 00 	[33mmov    [0m[34mrax[0m,QWORD PTR [[34mrip[0m+[35m0x2392[0m]        # 405040 <_IO_stdin_used+0x40>
  402cae:	[36m|[0m  [37m|[0m  [32m|[0m  [31m|[0m  [32m|[0m  [34m|[0m  [32m|[0m  [37m|[0m  [33m|[0m  [35m|[0m  [36m|[0m  [36m|[0m  [37m|[0m  [31m|[0m  [37m|[0m  [36m|[0m  [32m|[0m  [33m|[0m  [37m|[0m  [33m|[0m  [36m|[0m  [34m|[0m  [36m|[0m  [36m|[0m  [35m|[0m                          [32m|[0m              [34m|[0m     [31m|[0m   48 8d 7c 24 10       	[33mlea    [0m[34mrdi[0m,[[34mrsp[0m+[35m0x10[0m]
  402cb3:	[36m|[0m  [37m|[0m  [32m|[0m  [31m|[0m  [32m|[0m  [34m|[0m  [32m|[0m  [37m|[0m  [33m|[0m  [35m|[0m  [36m|[0m  [36m|[0m  [37m|[0m  [31m|[0m  [37m|[0m  [36m|[0m  [32m|[0m  [33m|[0m  [37m|[0m  [33m|[0m  [36m|[0m  [34m|[0m  [36m|[0m  [36m|[0m  [35m|[0m                          [32m|[0m              [34m|[0m     [31m|[0m   c4 e1 f9 6e ca       	[33mvmovq  [0m[34mxmm1[0m,[34mrdx[0m
  402cb8:	[36m|[0m  [37m|[0m  [32m|[0m  [31m|[0m  [32m|[0m  [34m|[0m  [32m|[0m  [37m|[0m  [33m|[0m  [35m|[0m  [36m|[0m  [36m|[0m  [37m|[0m  [31m|[0m  [37m|[0m  [36m|[0m  [32m|[0m  [33m|[0m  [37m|[0m  [33m|[0m  [36m|[0m  [34m|[0m  [36m|[0m  [36m|[0m  [35m|[0m                          [32m|[0m              [34m|[0m     [31m|[0m   c4 e1 f9 6e c0       	[33mvmovq  [0m[34mxmm0[0m,[34mrax[0m
  402cbd:	[36m|[0m  [37m|[0m  [32m|[0m  [31m|[0m  [32m|[0m  [34m|[0m  [32m|[0m  [37m|[0m  [33m|[0m  [35m|[0m  [36m|[0m  [36m|[0m  [37m|[0m  [31m|[0m  [37m|[0m  [36m|[0m  [32m|[0m  [33m|[0m  [37m|[0m  [33m|[0m  [36m|[0m  [34m|[0m  [36m|[0m  [36m|[0m  [35m|[0m                          [32m|[0m              [34m|[0m     [31m|[0m   e8 2e 19 00 00       	[33mcall   [0m[35m4045f0[0m <[32m_ZN3Mtx8generateEdd[0m>
  402cc2:	[36m|[0m  [37m|[0m  [32m|[0m  [31m|[0m  [32m|[0m  [34m|[0m  [32m|[0m  [37m|[0m  [33m|[0m  [35m|[0m  [36m|[0m  [36m|[0m  [37m|[0m  [31m|[0m  [37m|[0m  [36m|[0m  [32m|[0m  [33m|[0m  [37m|[0m  [33m|[0m  [36m|[0m  [34m|[0m  [36m|[0m  [36m|[0m  [35m|[0m                          [32m|[0m              [34m|[0m     [31m|[0m   48 8b 35 6f 23 00 00 	[33mmov    [0m[34mrsi[0m,QWORD PTR [[34mrip[0m+[35m0x236f[0m]        # 405038 <_IO_stdin_used+0x38>
  402cc9:	[36m|[0m  [37m|[0m  [32m|[0m  [31m|[0m  [32m|[0m  [34m|[0m  [32m|[0m  [37m|[0m  [33m|[0m  [35m|[0m  [36m|[0m  [36m|[0m  [37m|[0m  [31m|[0m  [37m|[0m  [36m|[0m  [32m|[0m  [33m|[0m  [37m|[0m  [33m|[0m  [36m|[0m  [34m|[0m  [36m|[0m  [36m|[0m  [35m|[0m                          [32m|[0m              [34m|[0m     [31m|[0m   4c 8b 05 70 23 00 00 	[33mmov    [0m[34mr8[0m,QWORD PTR [[34mrip[0m+[35m0x2370[0m]        # 405040 <_IO_stdin_used+0x40>
  402cd0:	[36m|[0m  [37m|[0m  [32m|[0m  [31m|[0m  [32m|[0m  [34m|[0m  [32m|[0m  [37m|[0m  [33m|[0m  [35m|[0m  [36m|[0m  [36m|[0m  [37m|[0m  [31m|[0m  [37m|[0m  [36m|[0m  [32m|[0m  [33m|[0m  [37m|[0m  [33m|[0m  [36m|[0m  [34m|[0m  [36m|[0m  [36m|[0m  [35m|[0m                          [32m|[0m              [34m|[0m     [31m|[0m   48 8d 7c 24 20       	[33mlea    [0m[34mrdi[0m,[[34mrsp[0m+[35m0x20[0m]
  402cd5:	[36m|[0m  [37m|[0m  [32m|[0m  [31m|[0m  [32m|[0m  [34m|[0m  [32m|[0m  [37m|[0m  [33m|[0m  [35m|[0m  [36m|[0m  [36m|[0m  [37m|[0m  [31m|[0m  [37m|[0m  [36m|[0m  [32m|[0m  [33m|[0m  [37m|[0m  [33m|[0m  [36m|[0m  [34m|[0m  [36m|[0m  [36m|[0m  [35m|[0m                          [32m|[0m              [34m|[0m     [31m|[0m   c4 e1 f9 6e ce       	[33mvmovq  [0m[34mxmm1[0m,[34mrsi[0m
  402cda:	[36m|[0m  [37m|[0m  [32m|[0m  [31m|[0m  [32m|[0m  [34m|[0m  [32m|[0m  [37m|[0m  [33m|[0m  [35m|[0m  [36m|[0m  [36m|[0m  [37m|[0m  [31m|[0m  [37m|[0m  [36m|[0m  [32m|[0m  [33m|[0m  [37m|[0m  [33m|[0m  [36m|[0m  [34m|[0m  [36m|[0m  [36m|[0m  [35m|[0m                          [32m|[0m              [34m|[0m     [31m|[0m   c4 c1 f9 6e c0       	[33mvmovq  [0m[34mxmm0[0m,[34mr8[0m
  402cdf:	[36m|[0m  [37m|[0m  [32m|[0m  [31m|[0m  [32m|[0m  [34m|[0m  [32m|[0m  [37m|[0m  [33m|[0m  [35m|[0m  [36m|[0m  [36m|[0m  [37m|[0m  [31m|[0m  [37m|[0m  [36m|[0m  [32m|[0m  [33m|[0m  [37m|[0m  [33m|[0m  [36m|[0m  [34m|[0m  [36m|[0m  [36m|[0m  [35m|[0m                          [32m|[0m              [34m|[0m     [31m|[0m   e8 0c 19 00 00       	[33mcall   [0m[35m4045f0[0m <[32m_ZN3Mtx8generateEdd[0m>
  402ce4:	[36m|[0m  [37m|[0m  [32m|[0m  [31m|[0m  [32m|[0m  [34m|[0m  [32m|[0m  [37m|[0m  [33m|[0m  [35m|[0m  [36m|[0m  [36m|[0m  [37m|[0m  [31m|[0m  [37m|[0m  [36m|[0m  [32m|[0m  [33m|[0m  [37m|[0m  [33m|[0m  [36m|[0m  [34m|[0m  [36m|[0m  [36m|[0m  [35m|[0m                          [32m|[0m              [34m|[0m     [31m|[0m   48 8d 7c 24 30       	[33mlea    [0m[34mrdi[0m,[[34mrsp[0m+[35m0x30[0m]
  402ce9:	[36m|[0m  [37m|[0m  [32m|[0m  [31m|[0m  [32m|[0m  [34m|[0m  [32m|[0m  [37m|[0m  [33m|[0m  [35m|[0m  [36m|[0m  [36m|[0m  [37m|[0m  [31m|[0m  [37m|[0m  [36m|[0m  [32m|[0m  [33m|[0m  [37m|[0m  [33m|[0m  [36m|[0m  [34m|[0m  [36m|[0m  [36m|[0m  [35m|[0m                          [32m|[0m              [34m|[0m     [31m|[0m   e8 d2 18 00 00       	[33mcall   [0m[35m4045c0[0m <[32m_ZN3Mtx4zeroEv[0m>
  402cee:	[36m|[0m  [37m|[0m  [32m|[0m  [31m|[0m  [32m|[0m  [34m|[0m  [32m|[0m  [37m|[0m  [33m|[0m  [35m|[0m  [36m|[0m  [36m|[0m  [37m|[0m  [31m|[0m  [37m|[0m  [36m|[0m  [32m|[0m  [33m|[0m  [37m|[0m  [33m|[0m  [36m|[0m  [34m|[0m  [36m|[0m  [36m|[0m  [35m|[0m                          [32m|[0m              [34m|[0m     [31m|[0m   e8 fd 17 00 00       	[33mcall   [0m[35m4044f0[0m <[32m_Z13get_timestampv[0m>
  402cf3:	[36m|[0m  [37m|[0m  [32m|[0m  [31m|[0m  [32m|[0m  [34m|[0m  [32m|[0m  [37m|[0m  [33m|[0m  [35m|[0m  [36m|[0m  [36m|[0m  [37m|[0m  [31m|[0m  [37m|[0m  [36m|[0m  [32m|[0m  [33m|[0m  [37m|[0m  [33m|[0m  [36m|[0m  [34m|[0m  [36m|[0m  [36m|[0m  [35m|[0m                          [32m|[0m              [34m|[0m     [31m|[0m   48 8b 4c 24 30       	[33mmov    [0m[34mrcx[0m,QWORD PTR [[34mrsp[0m+[35m0x30[0m]
  402cf8:	[36m|[0m  [37m|[0m  [32m|[0m  [31m|[0m  [32m|[0m  [34m|[0m  [32m|[0m  [37m|[0m  [33m|[0m  [35m|[0m  [36m|[0m  [36m|[0m  [37m|[0m  [31m|[0m  [37m|[0m  [36m|[0m  [32m|[0m  [33m|[0m  [37m|[0m  [33m|[0m  [36m|[0m  [34m|[0m  [36m|[0m  [36m|[0m  [35m|[0m                          [32m|[0m              [34m|[0m     [31m|[0m   48 8b 54 24 20       	[33mmov    [0m[34mrdx[0m,QWORD PTR [[34mrsp[0m+[35m0x20[0m]
  402cfd:	[36m|[0m  [37m|[0m  [32m|[0m  [31m|[0m  [32m|[0m  [34m|[0m  [32m|[0m  [37m|[0m  [33m|[0m  [35m|[0m  [36m|[0m  [36m|[0m  [37m|[0m  [31m|[0m  [37m|[0m  [36m|[0m  [32m|[0m  [33m|[0m  [37m|[0m  [33m|[0m  [36m|[0m  [34m|[0m  [36m|[0m  [36m|[0m  [35m|[0m                          [32m|[0m              [34m|[0m     [31m|[0m   48 89 c5             	[33mmov    [0m[34mrbp[0m,[34mrax[0m
  402d00:	[36m|[0m  [37m|[0m  [32m|[0m  [31m|[0m  [32m|[0m  [34m|[0m  [32m|[0m  [37m|[0m  [33m|[0m  [35m|[0m  [36m|[0m  [36m|[0m  [37m|[0m  [31m|[0m  [37m|[0m  [36m|[0m  [32m|[0m  [33m|[0m  [37m|[0m  [33m|[0m  [36m|[0m  [34m|[0m  [36m|[0m  [36m|[0m  [35m|[0m                          [32m|[0m              [34m|[0m     [31m|[0m   bf 80 02 00 00       	[33mmov    [0m[34medi[0m,[35m0x280[0m
  402d05:	[36m|[0m  [37m|[0m  [32m|[0m  [31m|[0m  [32m|[0m  [34m|[0m  [32m|[0m  [37m|[0m  [33m|[0m  [35m|[0m  [36m|[0m  [36m|[0m  [37m|[0m  [31m|[0m  [37m|[0m  [36m|[0m  [32m|[0m  [33m|[0m  [37m|[0m  [33m|[0m  [36m|[0m  [34m|[0m  [36m|[0m  [36m|[0m  [35m|[0m                          [32m|[0m              [34m|[0m     [31m|[0m   48 8b 74 24 10       	[33mmov    [0m[34mrsi[0m,QWORD PTR [[34mrsp[0m+[35m0x10[0m]
  402d0a:	[36m|[0m  [37m|[0m  [32m|[0m  [31m|[0m  [32m|[0m  [34m|[0m  [32m|[0m  [37m|[0m  [33m|[0m  [35m|[0m  [36m|[0m  [36m|[0m  [37m|[0m  [31m|[0m  [37m|[0m  [36m|[0m  [32m|[0m  [33m|[0m  [37m|[0m  [33m|[0m  [36m|[0m  [34m|[0m  [36m|[0m  [36m|[0m  [35m|[0m                          [32m|[0m              [34m|[0m     [31m|[0m   41 ff d5             	[33mcall   [0m[34mr13[0m
  402d0d:	[36m|[0m  [37m|[0m  [32m|[0m  [31m|[0m  [32m|[0m  [34m|[0m  [32m|[0m  [37m|[0m  [33m|[0m  [35m|[0m  [36m|[0m  [36m|[0m  [37m|[0m  [31m|[0m  [37m|[0m  [36m|[0m  [32m|[0m  [33m|[0m  [37m|[0m  [33m|[0m  [36m|[0m  [34m|[0m  [36m|[0m  [36m|[0m  [35m|[0m                          [32m|[0m              [34m|[0m     [31m|[0m   e8 de 17 00 00       	[33mcall   [0m[35m4044f0[0m <[32m_Z13get_timestampv[0m>
  402d12:	[36m|[0m  [37m|[0m  [32m|[0m  [31m|[0m  [32m|[0m  [34m|[0m  [32m|[0m  [37m|[0m  [33m|[0m  [35m|[0m  [36m|[0m  [36m|[0m  [37m|[0m  [31m|[0m  [37m|[0m  [36m|[0m  [32m|[0m  [33m|[0m  [37m|[0m  [33m|[0m  [36m|[0m  [34m|[0m  [36m|[0m  [36m|[0m  [35m|[0m                          [32m|[0m              [34m|[0m     [31m|[0m   48 29 e8             	[33msub    [0m[34mrax[0m,[34mrbp[0m
  402d15:	[36m|[0m  [37m|[0m  [32m|[0m  [31m|[0m  [32m|[0m  [34m|[0m  [32m|[0m  [37m|[0m  [33m|[0m  [35m|[0m  [36m|[0m  [36m|[0m  [37m|[0m  [31m|[0m  [37m|[0m  [36m|[0m  [32m|[0m  [33m|[0m  [37m|[0m  [33m|[0m  [36m|[0m  [34m|[0m  [36m|[0m  [36m|[0m  [35m|[0m                          [32m|[0m              [34m|[0m     [31m|[0m   4c 8b 0d 24 23 00 00 	[33mmov    [0m[34mr9[0m,QWORD PTR [[34mrip[0m+[35m0x2324[0m]        # 405040 <_IO_stdin_used+0x40>
  402d1c:	[36m|[0m  [37m|[0m  [32m|[0m  [31m|[0m  [32m|[0m  [34m|[0m  [32m|[0m  [37m|[0m  [33m|[0m  [35m|[0m  [36m|[0m  [36m|[0m  [37m|[0m  [31m|[0m  [37m|[0m  [36m|[0m  [32m|[0m  [33m|[0m  [37m|[0m  [33m|[0m  [36m|[0m  [34m|[0m  [36m|[0m  [36m|[0m  [35m|[0m                          [32m|[0m              [34m|[0m     [31m|[0m   48 8d 7c 24 10       	[33mlea    [0m[34mrdi[0m,[[34mrsp[0m+[35m0x10[0m]
  402d21:	[36m|[0m  [37m|[0m  [32m|[0m  [31m|[0m  [32m|[0m  [34m|[0m  [32m|[0m  [37m|[0m  [33m|[0m  [35m|[0m  [36m|[0m  [36m|[0m  [37m|[0m  [31m|[0m  [37m|[0m  [36m|[0m  [32m|[0m  [33m|[0m  [37m|[0m  [33m|[0m  [36m|[0m  [34m|[0m  [36m|[0m  [36m|[0m  [35m|[0m                          [32m|[0m              [34m|[0m     [31m|[0m   41 ff cc             	[33mdec    [0m[34mr12d[0m
  402d24:	[36m|[0m  [37m|[0m  [32m|[0m  [31m|[0m  [32m|[0m  [34m|[0m  [32m|[0m  [37m|[0m  [33m|[0m  [35m|[0m  [36m|[0m  [36m|[0m  [37m|[0m  [31m|[0m  [37m|[0m  [36m|[0m  [32m|[0m  [33m|[0m  [37m|[0m  [33m|[0m  [36m|[0m  [34m|[0m  [36m|[0m  [36m|[0m  [35m|[0m                          [32m|[0m              [34m|[0m     [31m|[0m   48 8d 2c 03          	[33mlea    [0m[34mrbp[0m,[[34mrbx[0m+[34mrax[0m*[35m1[0m]
  402d28:	[36m|[0m  [37m|[0m  [32m|[0m  [31m|[0m  [32m|[0m  [34m|[0m  [32m|[0m  [37m|[0m  [33m|[0m  [35m|[0m  [36m|[0m  [36m|[0m  [37m|[0m  [31m|[0m  [37m|[0m  [36m|[0m  [32m|[0m  [33m|[0m  [37m|[0m  [33m|[0m  [36m|[0m  [34m|[0m  [36m|[0m  [36m|[0m  [35m|[0m                          [32m|[0m              [34m|[0m     [31m|[0m   48 8b 1d 09 23 00 00 	[33mmov    [0m[34mrbx[0m,QWORD PTR [[34mrip[0m+[35m0x2309[0m]        # 405038 <_IO_stdin_used+0x38>
  402d2f:	[36m|[0m  [37m|[0m  [32m|[0m  [31m|[0m  [32m|[0m  [34m|[0m  [32m|[0m  [37m|[0m  [33m|[0m  [35m|[0m  [36m|[0m  [36m|[0m  [37m|[0m  [31m|[0m  [37m|[0m  [36m|[0m  [32m|[0m  [33m|[0m  [37m|[0m  [33m|[0m  [36m|[0m  [34m|[0m  [36m|[0m  [36m|[0m  [35m|[0m                          [32m|[0m              [34m|[0m     [31m|[0m   c4 c1 f9 6e c1       	[33mvmovq  [0m[34mxmm0[0m,[34mr9[0m
  402d34:	[36m|[0m  [37m|[0m  [32m|[0m  [31m|[0m  [32m|[0m  [34m|[0m  [32m|[0m  [37m|[0m  [33m|[0m  [35m|[0m  [36m|[0m  [36m|[0m  [37m|[0m  [31m|[0m  [37m|[0m  [36m|[0m  [32m|[0m  [33m|[0m  [37m|[0m  [33m|[0m  [36m|[0m  [34m|[0m  [36m|[0m  [36m|[0m  [35m|[0m                          [32m|[0m              [34m|[0m     [31m|[0m   c4 e1 f9 6e cb       	[33mvmovq  [0m[34mxmm1[0m,[34mrbx[0m
  402d39:	[36m|[0m  [37m|[0m  [32m|[0m  [31m|[0m  [32m|[0m  [34m|[0m  [32m|[0m  [37m|[0m  [33m|[0m  [35m|[0m  [36m|[0m  [36m|[0m  [37m|[0m  [31m|[0m  [37m|[0m  [36m|[0m  [32m|[0m  [33m|[0m  [37m|[0m  [33m|[0m  [36m|[0m  [34m|[0m  [36m|[0m  [36m|[0m  [35m|[0m                          [32m|[0m              [34m|[0m     [31m|[0m   e8 b2 18 00 00       	[33mcall   [0m[35m4045f0[0m <[32m_ZN3Mtx8generateEdd[0m>
  402d3e:	[36m|[0m  [37m|[0m  [32m|[0m  [31m|[0m  [32m|[0m  [34m|[0m  [32m|[0m  [37m|[0m  [33m|[0m  [35m|[0m  [36m|[0m  [36m|[0m  [37m|[0m  [31m|[0m  [37m|[0m  [36m|[0m  [32m|[0m  [33m|[0m  [37m|[0m  [33m|[0m  [36m|[0m  [34m|[0m  [36m|[0m  [36m|[0m  [35m|[0m                          [32m|[0m              [34m|[0m     [31m|[0m   4c 8b 15 f3 22 00 00 	[33mmov    [0m[34mr10[0m,QWORD PTR [[34mrip[0m+[35m0x22f3[0m]        # 405038 <_IO_stdin_used+0x38>
  402d45:	[36m|[0m  [37m|[0m  [32m|[0m  [31m|[0m  [32m|[0m  [34m|[0m  [32m|[0m  [37m|[0m  [33m|[0m  [35m|[0m  [36m|[0m  [36m|[0m  [37m|[0m  [31m|[0m  [37m|[0m  [36m|[0m  [32m|[0m  [33m|[0m  [37m|[0m  [33m|[0m  [36m|[0m  [34m|[0m  [36m|[0m  [36m|[0m  [35m|[0m                          [32m|[0m              [34m|[0m     [31m|[0m   4c 8b 1d f4 22 00 00 	[33mmov    [0m[34mr11[0m,QWORD PTR [[34mrip[0m+[35m0x22f4[0m]        # 405040 <_IO_stdin_used+0x40>
  402d4c:	[36m|[0m  [37m|[0m  [32m|[0m  [31m|[0m  [32m|[0m  [34m|[0m  [32m|[0m  [37m|[0m  [33m|[0m  [35m|[0m  [36m|[0m  [36m|[0m  [37m|[0m  [31m|[0m  [37m|[0m  [36m|[0m  [32m|[0m  [33m|[0m  [37m|[0m  [33m|[0m  [36m|[0m  [34m|[0m  [36m|[0m  [36m|[0m  [35m|[0m                          [32m|[0m              [34m|[0m     [31m|[0m   48 8d 7c 24 20       	[33mlea    [0m[34mrdi[0m,[[34mrsp[0m+[35m0x20[0m]
  402d51:	[36m|[0m  [37m|[0m  [32m|[0m  [31m|[0m  [32m|[0m  [34m|[0m  [32m|[0m  [37m|[0m  [33m|[0m  [35m|[0m  [36m|[0m  [36m|[0m  [37m|[0m  [31m|[0m  [37m|[0m  [36m|[0m  [32m|[0m  [33m|[0m  [37m|[0m  [33m|[0m  [36m|[0m  [34m|[0m  [36m|[0m  [36m|[0m  [35m|[0m                          [32m|[0m              [34m|[0m     [31m|[0m   c4 c1 f9 6e ca       	[33mvmovq  [0m[34mxmm1[0m,[34mr10[0m
  402d56:	[36m|[0m  [37m|[0m  [32m|[0m  [31m|[0m  [32m|[0m  [34m|[0m  [32m|[0m  [37m|[0m  [33m|[0m  [35m|[0m  [36m|[0m  [36m|[0m  [37m|[0m  [31m|[0m  [37m|[0m  [36m|[0m  [32m|[0m  [33m|[0m  [37m|[0m  [33m|[0m  [36m|[0m  [34m|[0m  [36m|[0m  [36m|[0m  [35m|[0m                          [32m|[0m              [34m|[0m     [31m|[0m   c4 c1 f9 6e c3       	[33mvmovq  [0m[34mxmm0[0m,[34mr11[0m
  402d5b:	[36m|[0m  [37m|[0m  [32m|[0m  [31m|[0m  [32m|[0m  [34m|[0m  [32m|[0m  [37m|[0m  [33m|[0m  [35m|[0m  [36m|[0m  [36m|[0m  [37m|[0m  [31m|[0m  [37m|[0m  [36m|[0m  [32m|[0m  [33m|[0m  [37m|[0m  [33m|[0m  [36m|[0m  [34m|[0m  [36m|[0m  [36m|[0m  [35m|[0m                          [32m|[0m              [34m|[0m     [31m|[0m   e8 90 18 00 00       	[33mcall   [0m[35m4045f0[0m <[32m_ZN3Mtx8generateEdd[0m>
  402d60:	[36m|[0m  [37m|[0m  [32m|[0m  [31m|[0m  [32m|[0m  [34m|[0m  [32m|[0m  [37m|[0m  [33m|[0m  [35m|[0m  [36m|[0m  [36m|[0m  [37m|[0m  [31m|[0m  [37m|[0m  [36m|[0m  [32m|[0m  [33m|[0m  [37m|[0m  [33m|[0m  [36m|[0m  [34m|[0m  [36m|[0m  [36m|[0m  [35m|[0m                          [32m|[0m              [34m|[0m     [31m|[0m   48 8d 7c 24 30       	[33mlea    [0m[34mrdi[0m,[[34mrsp[0m+[35m0x30[0m]
  402d65:	[36m|[0m  [37m|[0m  [32m|[0m  [31m|[0m  [32m|[0m  [34m|[0m  [32m|[0m  [37m|[0m  [33m|[0m  [35m|[0m  [36m|[0m  [36m|[0m  [37m|[0m  [31m|[0m  [37m|[0m  [36m|[0m  [32m|[0m  [33m|[0m  [37m|[0m  [33m|[0m  [36m|[0m  [34m|[0m  [36m|[0m  [36m|[0m  [35m|[0m                          [32m|[0m              [34m|[0m     [31m|[0m   e8 56 18 00 00       	[33mcall   [0m[35m4045c0[0m <[32m_ZN3Mtx4zeroEv[0m>
  402d6a:	[36m|[0m  [37m|[0m  [32m|[0m  [31m|[0m  [32m|[0m  [34m|[0m  [32m|[0m  [37m|[0m  [33m|[0m  [35m|[0m  [36m|[0m  [36m|[0m  [37m|[0m  [31m|[0m  [37m|[0m  [36m|[0m  [32m|[0m  [33m|[0m  [37m|[0m  [33m|[0m  [36m|[0m  [34m|[0m  [36m|[0m  [36m|[0m  [35m|[0m                          [32m|[0m              [34m|[0m     [31m|[0m   e8 81 17 00 00       	[33mcall   [0m[35m4044f0[0m <[32m_Z13get_timestampv[0m>
  402d6f:	[36m|[0m  [37m|[0m  [32m|[0m  [31m|[0m  [32m|[0m  [34m|[0m  [32m|[0m  [37m|[0m  [33m|[0m  [35m|[0m  [36m|[0m  [36m|[0m  [37m|[0m  [31m|[0m  [37m|[0m  [36m|[0m  [32m|[0m  [33m|[0m  [37m|[0m  [33m|[0m  [36m|[0m  [34m|[0m  [36m|[0m  [36m|[0m  [35m|[0m                          [32m|[0m              [34m|[0m     [31m|[0m   48 8b 4c 24 30       	[33mmov    [0m[34mrcx[0m,QWORD PTR [[34mrsp[0m+[35m0x30[0m]
  402d74:	[36m|[0m  [37m|[0m  [32m|[0m  [31m|[0m  [32m|[0m  [34m|[0m  [32m|[0m  [37m|[0m  [33m|[0m  [35m|[0m  [36m|[0m  [36m|[0m  [37m|[0m  [31m|[0m  [37m|[0m  [36m|[0m  [32m|[0m  [33m|[0m  [37m|[0m  [33m|[0m  [36m|[0m  [34m|[0m  [36m|[0m  [36m|[0m  [35m|[0m                          [32m|[0m              [34m|[0m     [31m|[0m   48 8b 54 24 20       	[33mmov    [0m[34mrdx[0m,QWORD PTR [[34mrsp[0m+[35m0x20[0m]
  402d79:	[36m|[0m  [37m|[0m  [32m|[0m  [31m|[0m  [32m|[0m  [34m|[0m  [32m|[0m  [37m|[0m  [33m|[0m  [35m|[0m  [36m|[0m  [36m|[0m  [37m|[0m  [31m|[0m  [37m|[0m  [36m|[0m  [32m|[0m  [33m|[0m  [37m|[0m  [33m|[0m  [36m|[0m  [34m|[0m  [36m|[0m  [36m|[0m  [35m|[0m                          [32m|[0m              [34m|[0m     [31m|[0m   48 89 c3             	[33mmov    [0m[34mrbx[0m,[34mrax[0m
  402d7c:	[36m|[0m  [37m|[0m  [32m|[0m  [31m|[0m  [32m|[0m  [34m|[0m  [32m|[0m  [37m|[0m  [33m|[0m  [35m|[0m  [36m|[0m  [36m|[0m  [37m|[0m  [31m|[0m  [37m|[0m  [36m|[0m  [32m|[0m  [33m|[0m  [37m|[0m  [33m|[0m  [36m|[0m  [34m|[0m  [36m|[0m  [36m|[0m  [35m|[0m                          [32m|[0m              [34m|[0m     [31m|[0m   bf 80 02 00 00       	[33mmov    [0m[34medi[0m,[35m0x280[0m
  402d81:	[36m|[0m  [37m|[0m  [32m|[0m  [31m|[0m  [32m|[0m  [34m|[0m  [32m|[0m  [37m|[0m  [33m|[0m  [35m|[0m  [36m|[0m  [36m|[0m  [37m|[0m  [31m|[0m  [37m|[0m  [36m|[0m  [32m|[0m  [33m|[0m  [37m|[0m  [33m|[0m  [36m|[0m  [34m|[0m  [36m|[0m  [36m|[0m  [35m|[0m                          [32m|[0m              [34m|[0m     [31m|[0m   48 8b 74 24 10       	[33mmov    [0m[34mrsi[0m,QWORD PTR [[34mrsp[0m+[35m0x10[0m]
  402d86:	[36m|[0m  [37m|[0m  [32m|[0m  [31m|[0m  [32m|[0m  [34m|[0m  [32m|[0m  [37m|[0m  [33m|[0m  [35m|[0m  [36m|[0m  [36m|[0m  [37m|[0m  [31m|[0m  [37m|[0m  [36m|[0m  [32m|[0m  [33m|[0m  [37m|[0m  [33m|[0m  [36m|[0m  [34m|[0m  [36m|[0m  [36m|[0m  [35m|[0m                          [32m|[0m              [34m|[0m     [31m|[0m   41 ff d5             	[33mcall   [0m[34mr13[0m
  402d89:	[36m|[0m  [37m|[0m  [32m|[0m  [31m|[0m  [32m|[0m  [34m|[0m  [32m|[0m  [37m|[0m  [33m|[0m  [35m|[0m  [36m|[0m  [36m|[0m  [37m|[0m  [31m|[0m  [37m|[0m  [36m|[0m  [32m|[0m  [33m|[0m  [37m|[0m  [33m|[0m  [36m|[0m  [34m|[0m  [36m|[0m  [36m|[0m  [35m|[0m                          [32m|[0m              [34m|[0m     [31m|[0m   e8 62 17 00 00       	[33mcall   [0m[35m4044f0[0m <[32m_Z13get_timestampv[0m>
  402d8e:	[36m|[0m  [37m|[0m  [32m|[0m  [31m|[0m  [32m|[0m  [34m|[0m  [32m|[0m  [37m|[0m  [33m|[0m  [35m|[0m  [36m|[0m  [36m|[0m  [37m|[0m  [31m|[0m  [37m|[0m  [36m|[0m  [32m|[0m  [33m|[0m  [37m|[0m  [33m|[0m  [36m|[0m  [34m|[0m  [36m|[0m  [36m|[0m  [35m|[0m                          [32m|[0m              [34m|[0m     [31m|[0m   48 29 d8             	[33msub    [0m[34mrax[0m,[34mrbx[0m
  402d91:	[36m|[0m  [37m|[0m  [32m|[0m  [31m|[0m  [32m|[0m  [34m|[0m  [32m|[0m  [37m|[0m  [33m|[0m  [35m|[0m  [36m|[0m  [36m|[0m  [37m|[0m  [31m|[0m  [37m|[0m  [36m|[0m  [32m|[0m  [33m|[0m  [37m|[0m  [33m|[0m  [36m|[0m  [34m|[0m  [36m|[0m  [36m|[0m  [35m|[0m                          [32m|[0m              [34m|[0m     [31m|[0m   41 ff cc             	[33mdec    [0m[34mr12d[0m
  402d94:	[36m|[0m  [37m|[0m  [32m|[0m  [31m|[0m  [32m|[0m  [34m|[0m  [32m|[0m  [37m|[0m  [33m|[0m  [35m|[0m  [36m|[0m  [36m|[0m  [37m|[0m  [31m|[0m  [37m|[0m  [36m|[0m  [32m|[0m  [33m|[0m  [37m|[0m  [33m|[0m  [36m|[0m  [34m|[0m  [36m|[0m  [36m|[0m  [35m|[0m                          [32m|[0m              [34m|[0m     [31m|[0m   48 8d 5c 05 00       	[33mlea    [0m[34mrbx[0m,[[34mrbp[0m+[34mrax[0m*[35m1[0m+[35m0x0[0m]
  402d99:	[36m|[0m  [37m|[0m  [32m|[0m  [31m|[0m  [32m|[0m  [34m|[0m  [32m|[0m  [37m|[0m  [33m|[0m  [35m|[0m  [36m|[0m  [36m|[0m  [37m|[0m  [31m|[0m  [37m|[0m  [36m|[0m  [32m|[0m  [33m|[0m  [37m|[0m  [33m|[0m  [36m|[0m  [34m|[0m  [36m|[0m  [36m|[0m  [35m|[0m                          [32m|[0m              [34m|[0m     [31m\[31m-[31m-[0m 0f 85 01 ff ff ff    	[33mjne    [0m[35m402ca0[0m <[32m_Z13calc_speed_upv[0m[35m+0x[0m[35m5f0[0m>
  402d9f:	[36m|[0m  [37m|[0m  [32m|[0m  [31m|[0m  [32m|[0m  [34m|[0m  [32m|[0m  [37m|[0m  [33m|[0m  [35m|[0m  [36m|[0m  [36m|[0m  [37m|[0m  [31m|[0m  [37m|[0m  [36m|[0m  [32m|[0m  [33m|[0m  [37m|[0m  [33m|[0m  [36m|[0m  [34m|[0m  [36m|[0m  [36m|[0m  [35m|[0m                          [32m|[0m              [34m|[0m         48 8d 7c 24 30       	[33mlea    [0m[34mrdi[0m,[[34mrsp[0m+[35m0x30[0m]
  402da4:	[36m|[0m  [37m|[0m  [32m|[0m  [31m|[0m  [32m|[0m  [34m|[0m  [32m|[0m  [37m|[0m  [33m|[0m  [35m|[0m  [36m|[0m  [36m|[0m  [37m|[0m  [31m|[0m  [37m|[0m  [36m|[0m  [32m|[0m  [33m|[0m  [37m|[0m  [33m|[0m  [36m|[0m  [34m|[0m  [36m|[0m  [36m|[0m  [35m|[0m                          [32m|[0m              [34m|[0m         e8 07 18 00 00       	[33mcall   [0m[35m4045b0[0m <[32m_ZN3MtxD1Ev[0m>
  402da9:	[36m|[0m  [37m|[0m  [32m|[0m  [31m|[0m  [32m|[0m  [34m|[0m  [32m|[0m  [37m|[0m  [33m|[0m  [35m|[0m  [36m|[0m  [36m|[0m  [37m|[0m  [31m|[0m  [37m|[0m  [36m|[0m  [32m|[0m  [33m|[0m  [37m|[0m  [33m|[0m  [36m|[0m  [34m|[0m  [36m|[0m  [36m|[0m  [35m|[0m                          [32m|[0m              [34m|[0m         48 8d 7c 24 20       	[33mlea    [0m[34mrdi[0m,[[34mrsp[0m+[35m0x20[0m]
  402dae:	[36m|[0m  [37m|[0m  [32m|[0m  [31m|[0m  [32m|[0m  [34m|[0m  [32m|[0m  [37m|[0m  [33m|[0m  [35m|[0m  [36m|[0m  [36m|[0m  [37m|[0m  [31m|[0m  [37m|[0m  [36m|[0m  [32m|[0m  [33m|[0m  [37m|[0m  [33m|[0m  [36m|[0m  [34m|[0m  [36m|[0m  [36m|[0m  [35m|[0m                          [32m|[0m              [34m|[0m         e8 fd 17 00 00       	[33mcall   [0m[35m4045b0[0m <[32m_ZN3MtxD1Ev[0m>
  402db3:	[36m|[0m  [37m|[0m  [32m|[0m  [31m|[0m  [32m|[0m  [34m|[0m  [32m|[0m  [37m|[0m  [33m|[0m  [35m|[0m  [36m|[0m  [36m|[0m  [37m|[0m  [31m|[0m  [37m|[0m  [36m|[0m  [32m|[0m  [33m|[0m  [37m|[0m  [33m|[0m  [36m|[0m  [34m|[0m  [36m|[0m  [36m|[0m  [35m|[0m                          [32m|[0m              [34m|[0m         48 8d 7c 24 10       	[33mlea    [0m[34mrdi[0m,[[34mrsp[0m+[35m0x10[0m]
  402db8:	[36m|[0m  [37m|[0m  [32m|[0m  [31m|[0m  [32m|[0m  [34m|[0m  [32m|[0m  [37m|[0m  [33m|[0m  [35m|[0m  [36m|[0m  [36m|[0m  [37m|[0m  [31m|[0m  [37m|[0m  [36m|[0m  [32m|[0m  [33m|[0m  [37m|[0m  [33m|[0m  [36m|[0m  [34m|[0m  [36m|[0m  [36m|[0m  [35m|[0m                          [32m|[0m              [34m|[0m         e8 f3 17 00 00       	[33mcall   [0m[35m4045b0[0m <[32m_ZN3MtxD1Ev[0m>
  402dbd:	[36m|[0m  [37m|[0m  [32m|[0m  [31m|[0m  [32m|[0m  [34m|[0m  [32m|[0m  [37m|[0m  [33m|[0m  [35m|[0m  [36m|[0m  [36m|[0m  [37m|[0m  [31m|[0m  [37m|[0m  [36m|[0m  [32m|[0m  [33m|[0m  [37m|[0m  [33m|[0m  [36m|[0m  [34m|[0m  [36m|[0m  [36m|[0m  [35m|[0m                          [32m|[0m              [34m|[0m         48 85 db             	[33mtest   [0m[34mrbx[0m,[34mrbx[0m
  402dc0:	[36m|[0m  [37m|[0m  [32m|[0m  [31m|[0m  [32m|[0m  [34m|[0m  [32m|[0m  [37m|[0m  [33m|[0m  [35m|[0m  [36m|[0m  [36m|[0m  [37m|[0m  [31m|[0m  [37m|[0m  [36m|[0m  [32m|[0m  [33m|[0m  [37m|[0m  [33m|[0m  [36m|[0m  [34m|[0m  [36m|[0m  [36m|[0m  [35m|[0m        [36m/[36m-[36m-[36m-[36m-[36m-[36m-[36m-[36m-[36m-[36m-[36m-[36m-[36m-[36m-[36m-[36m-[36m-[32m|[36m-[36m-[36m-[36m-[36m-[36m-[36m-[36m-[36m-[36m-[36m-[36m-[36m-[36m-[34m|[36m-[36m-[36m-[36m-[36m-[36m-[36m-[36m-[0m 0f 88 ba 01 00 00    	[33mjs     [0m[35m402f80[0m <[32m_Z13calc_speed_upv[0m[35m+0x[0m[35m8d0[0m>
  402dc6:	[36m|[0m  [37m|[0m  [32m|[0m  [31m|[0m  [32m|[0m  [34m|[0m  [32m|[0m  [37m|[0m  [33m|[0m  [35m|[0m  [36m|[0m  [36m|[0m  [37m|[0m  [31m|[0m  [37m|[0m  [36m|[0m  [32m|[0m  [33m|[0m  [37m|[0m  [33m|[0m  [36m|[0m  [34m|[0m  [36m|[0m  [36m|[0m  [35m|[0m        [36m|[0m                 [32m|[0m              [34m|[0m         c5 e9 57 d2          	[33mvxorpd [0m[34mxmm2[0m,[34mxmm2[0m,[34mxmm2[0m
  402dca:	[36m|[0m  [37m|[0m  [32m|[0m  [31m|[0m  [32m|[0m  [34m|[0m  [32m|[0m  [37m|[0m  [33m|[0m  [35m|[0m  [36m|[0m  [36m|[0m  [37m|[0m  [31m|[0m  [37m|[0m  [36m|[0m  [32m|[0m  [33m|[0m  [37m|[0m  [33m|[0m  [36m|[0m  [34m|[0m  [36m|[0m  [36m|[0m  [35m|[0m        [36m|[0m                 [32m|[0m              [34m|[0m         c4 e1 eb 2a eb       	[33mvcvtsi2sd [0m[34mxmm5[0m,[34mxmm2[0m,[34mrbx[0m
  402dcf:	[36m|[0m  [37m|[0m  [32m|[0m  [31m|[0m  [32m|[0m  [34m|[0m  [32m|[0m  [37m|[0m  [33m|[0m  [35m|[0m  [36m|[0m  [36m|[0m  [37m|[0m  [31m|[0m  [37m|[0m  [36m|[0m  [32m|[0m  [33m|[0m  [37m|[0m  [33m|[0m  [36m|[0m  [34m|[0m  [36m|[0m  [36m|[0m  [35m|[0m     [32m/--[36m|[32m-----------------[32m|[32m--------------[34m|[32m------->[0m c5 d3 5e 35 71 22 00 	[33mvdivsd [0m[34mxmm6[0m,[34mxmm5[0m,QWORD PTR [[34mrip[0m+[35m0x2271[0m]        # 405048 <_IO_stdin_used+0x48>
  402dd6:	[36m|[0m  [37m|[0m  [32m|[0m  [31m|[0m  [32m|[0m  [34m|[0m  [32m|[0m  [37m|[0m  [33m|[0m  [35m|[0m  [36m|[0m  [36m|[0m  [37m|[0m  [31m|[0m  [37m|[0m  [36m|[0m  [32m|[0m  [33m|[0m  [37m|[0m  [33m|[0m  [36m|[0m  [34m|[0m  [36m|[0m  [36m|[0m  [35m|[0m     [32m|[0m  [36m|[0m                 [32m|[0m              [34m|[0m         00 
  402dd7:	[36m|[0m  [37m|[0m  [32m|[0m  [31m|[0m  [32m|[0m  [34m|[0m  [32m|[0m  [37m|[0m  [33m|[0m  [35m|[0m  [36m|[0m  [36m|[0m  [37m|[0m  [31m|[0m  [37m|[0m  [36m|[0m  [32m|[0m  [33m|[0m  [37m|[0m  [33m|[0m  [36m|[0m  [34m|[0m  [36m|[0m  [36m|[0m  [35m|[0m     [32m|[0m  [36m|[0m                 [32m|[0m              [34m|[0m         c5 f9 2f 35 71 22 00 	[33mvcomisd [0m[34mxmm6[0m,QWORD PTR [[34mrip[0m+[35m0x2271[0m]        # 405050 <_IO_stdin_used+0x50>
  402dde:	[36m|[0m  [37m|[0m  [32m|[0m  [31m|[0m  [32m|[0m  [34m|[0m  [32m|[0m  [37m|[0m  [33m|[0m  [35m|[0m  [36m|[0m  [36m|[0m  [37m|[0m  [31m|[0m  [37m|[0m  [36m|[0m  [32m|[0m  [33m|[0m  [37m|[0m  [33m|[0m  [36m|[0m  [34m|[0m  [36m|[0m  [36m|[0m  [35m|[0m     [32m|[0m  [36m|[0m                 [32m|[0m              [34m|[0m         00 
  402ddf:	[36m|[0m  [37m|[0m  [32m|[0m  [31m|[0m  [32m|[0m  [34m|[0m  [32m|[0m  [37m|[0m  [33m|[0m  [35m|[0m  [36m|[0m  [36m|[0m  [37m|[0m  [31m|[0m  [37m|[0m  [36m|[0m  [32m|[0m  [33m|[0m  [37m|[0m  [33m|[0m  [36m|[0m  [34m|[0m  [36m|[0m  [36m|[0m  [35m|[0m     [32m|[0m  [36m|[0m     [36m/[36m-[36m-[36m-[36m-[36m-[36m-[36m-[36m-[36m-[36m-[36m-[32m|[36m-[36m-[36m-[36m-[36m-[36m-[36m-[36m-[36m-[36m-[36m-[36m-[36m-[36m-[34m|[36m-[36m-[36m-[36m-[36m-[36m-[36m-[36m-[0m 0f 83 7b 01 00 00    	[33mjae    [0m[35m402f60[0m <[32m_Z13calc_speed_upv[0m[35m+0x[0m[35m8b0[0m>
  402de5:	[36m|[0m  [37m|[0m  [32m|[0m  [31m|[0m  [32m|[0m  [34m|[0m  [32m|[0m  [37m|[0m  [33m|[0m  [35m|[0m  [36m|[0m  [36m|[0m  [37m|[0m  [31m|[0m  [37m|[0m  [36m|[0m  [32m|[0m  [33m|[0m  [37m|[0m  [33m|[0m  [36m|[0m  [34m|[0m  [36m|[0m  [36m|[0m  [35m|[0m     [32m|[0m  [36m|[0m     [36m|[0m           [32m|[0m              [34m|[0m         c4 e1 fb 2c fe       	[33mvcvttsd2si [0m[34mrdi[0m,[34mxmm6[0m
  402dea:	[36m|[0m  [37m|[0m  [32m|[0m  [31m|[0m  [32m|[0m  [34m|[0m  [32m|[0m  [37m|[0m  [33m|[0m  [35m|[0m  [36m|[0m  [36m|[0m  [37m|[0m  [31m|[0m  [37m|[0m  [36m|[0m  [32m|[0m  [33m|[0m  [37m|[0m  [33m|[0m  [36m|[0m  [34m|[0m  [36m|[0m  [36m|[0m  [35m|[0m     [32m|[0m  [36m|[0m     [36m|[0m           [32m|[0m              [34m|[0m         49 89 7e f8          	[33mmov    [0mQWORD PTR [[34mr14[0m[35m-[0m[35m0x8[0m],[34mrdi[0m
  402dee:	[36m|[0m  [37m|[0m  [32m|[0m  [31m|[0m  [32m|[0m  [34m|[0m  [32m|[0m  [37m|[0m  [33m|[0m  [35m|[0m  [36m|[0m  [36m|[0m  [37m|[0m  [31m|[0m  [37m|[0m  [36m|[0m  [32m|[0m  [33m|[0m  [37m|[0m  [33m|[0m  [36m|[0m  [34m|[0m  [36m|[0m  [36m|[0m  [35m|[0m     [32m|[0m  [36m|[0m  [32m/[32m-[32m-[36m|[32m-[32m-[32m-[32m-[32m-[32m-[32m-[32m-[32m-[32m-[32m-[32m|[32m-[32m-[32m-[32m-[32m-[32m-[32m-[32m-[32m-[32m-[32m-[32m-[32m-[32m-[34m|[32m-[32m-[32m-[32m-[32m-[32m-[32m-[32m>[0m 4c 8b 25 0b 43 00 00 	[33mmov    [0m[34mr12[0m,QWORD PTR [[34mrip[0m+[35m0x430b[0m]        # 407100 <_ZSt4cout@GLIBCXX_3.4>
  402df5:	[36m|[0m  [37m|[0m  [32m|[0m  [31m|[0m  [32m|[0m  [34m|[0m  [32m|[0m  [37m|[0m  [33m|[0m  [35m|[0m  [36m|[0m  [36m|[0m  [37m|[0m  [31m|[0m  [37m|[0m  [36m|[0m  [32m|[0m  [33m|[0m  [37m|[0m  [33m|[0m  [36m|[0m  [34m|[0m  [36m|[0m  [36m|[0m  [35m|[0m     [32m|[0m  [36m|[0m  [32m|[0m  [36m|[0m           [32m|[0m              [34m|[0m         bf 00 71 40 00       	[33mmov    [0m[34medi[0m,[35m0x407100[0m
  402dfa:	[36m|[0m  [37m|[0m  [32m|[0m  [31m|[0m  [32m|[0m  [34m|[0m  [32m|[0m  [37m|[0m  [33m|[0m  [35m|[0m  [36m|[0m  [36m|[0m  [37m|[0m  [31m|[0m  [37m|[0m  [36m|[0m  [32m|[0m  [33m|[0m  [37m|[0m  [33m|[0m  [36m|[0m  [34m|[0m  [36m|[0m  [36m|[0m  [35m|[0m     [32m|[0m  [36m|[0m  [32m|[0m  [36m|[0m           [32m|[0m              [34m|[0m         49 8b 76 d8          	[33mmov    [0m[34mrsi[0m,QWORD PTR [[34mr14[0m[35m-[0m[35m0x28[0m]
  402dfe:	[36m|[0m  [37m|[0m  [32m|[0m  [31m|[0m  [32m|[0m  [34m|[0m  [32m|[0m  [37m|[0m  [33m|[0m  [35m|[0m  [36m|[0m  [36m|[0m  [37m|[0m  [31m|[0m  [37m|[0m  [36m|[0m  [32m|[0m  [33m|[0m  [37m|[0m  [33m|[0m  [36m|[0m  [34m|[0m  [36m|[0m  [36m|[0m  [35m|[0m     [32m|[0m  [36m|[0m  [32m|[0m  [36m|[0m           [32m|[0m              [34m|[0m         49 8b 54 24 e8       	[33mmov    [0m[34mrdx[0m,QWORD PTR [[34mr12[0m[35m-[0m[35m0x18[0m]
  402e03:	[36m|[0m  [37m|[0m  [32m|[0m  [31m|[0m  [32m|[0m  [34m|[0m  [32m|[0m  [37m|[0m  [33m|[0m  [35m|[0m  [36m|[0m  [36m|[0m  [37m|[0m  [31m|[0m  [37m|[0m  [36m|[0m  [32m|[0m  [33m|[0m  [37m|[0m  [33m|[0m  [36m|[0m  [34m|[0m  [36m|[0m  [36m|[0m  [35m|[0m     [32m|[0m  [36m|[0m  [32m|[0m  [36m|[0m           [32m|[0m              [34m|[0m         48 c7 82 10 71 40 00 	[33mmov    [0mQWORD PTR [[34mrdx[0m+[35m0x407110[0m],[35m0x14[0m
  402e0a:	[36m|[0m  [37m|[0m  [32m|[0m  [31m|[0m  [32m|[0m  [34m|[0m  [32m|[0m  [37m|[0m  [33m|[0m  [35m|[0m  [36m|[0m  [36m|[0m  [37m|[0m  [31m|[0m  [37m|[0m  [36m|[0m  [32m|[0m  [33m|[0m  [37m|[0m  [33m|[0m  [36m|[0m  [34m|[0m  [36m|[0m  [36m|[0m  [35m|[0m     [32m|[0m  [36m|[0m  [32m|[0m  [36m|[0m           [32m|[0m              [34m|[0m         14 00 00 00 
  402e0e:	[36m|[0m  [37m|[0m  [32m|[0m  [31m|[0m  [32m|[0m  [34m|[0m  [32m|[0m  [37m|[0m  [33m|[0m  [35m|[0m  [36m|[0m  [36m|[0m  [37m|[0m  [31m|[0m  [37m|[0m  [36m|[0m  [32m|[0m  [33m|[0m  [37m|[0m  [33m|[0m  [36m|[0m  [34m|[0m  [36m|[0m  [36m|[0m  [35m|[0m     [32m|[0m  [36m|[0m  [32m|[0m  [36m|[0m           [32m|[0m              [34m|[0m         49 8b 56 e0          	[33mmov    [0m[34mrdx[0m,QWORD PTR [[34mr14[0m[35m-[0m[35m0x20[0m]
  402e12:	[36m|[0m  [37m|[0m  [32m|[0m  [31m|[0m  [32m|[0m  [34m|[0m  [32m|[0m  [37m|[0m  [33m|[0m  [35m|[0m  [36m|[0m  [36m|[0m  [37m|[0m  [31m|[0m  [37m|[0m  [36m|[0m  [32m|[0m  [33m|[0m  [37m|[0m  [33m|[0m  [36m|[0m  [34m|[0m  [36m|[0m  [36m|[0m  [35m|[0m     [32m|[0m  [36m|[0m  [32m|[0m  [36m|[0m           [32m|[0m              [34m|[0m         e8 c9 f2 ff ff       	[33mcall   [0m[35m4020e0[0m <[32m_ZSt16__ostream_insertIcSt11char_traitsIcEERSt13basic_ostreamIT_T0_ES6_PKS3_l@plt[0m>
  402e17:	[36m|[0m  [37m|[0m  [32m|[0m  [31m|[0m  [32m|[0m  [34m|[0m  [32m|[0m  [37m|[0m  [33m|[0m  [35m|[0m  [36m|[0m  [36m|[0m  [37m|[0m  [31m|[0m  [37m|[0m  [36m|[0m  [32m|[0m  [33m|[0m  [37m|[0m  [33m|[0m  [36m|[0m  [34m|[0m  [36m|[0m  [36m|[0m  [35m|[0m     [32m|[0m  [36m|[0m  [32m|[0m  [36m|[0m           [32m|[0m              [34m|[0m         ba 10 00 00 00       	[33mmov    [0m[34medx[0m,[35m0x10[0m
  402e1c:	[36m|[0m  [37m|[0m  [32m|[0m  [31m|[0m  [32m|[0m  [34m|[0m  [32m|[0m  [37m|[0m  [33m|[0m  [35m|[0m  [36m|[0m  [36m|[0m  [37m|[0m  [31m|[0m  [37m|[0m  [36m|[0m  [32m|[0m  [33m|[0m  [37m|[0m  [33m|[0m  [36m|[0m  [34m|[0m  [36m|[0m  [36m|[0m  [35m|[0m     [32m|[0m  [36m|[0m  [32m|[0m  [36m|[0m           [32m|[0m              [34m|[0m         be 04 50 40 00       	[33mmov    [0m[34mesi[0m,[35m0x405004[0m
  402e21:	[36m|[0m  [37m|[0m  [32m|[0m  [31m|[0m  [32m|[0m  [34m|[0m  [32m|[0m  [37m|[0m  [33m|[0m  [35m|[0m  [36m|[0m  [36m|[0m  [37m|[0m  [31m|[0m  [37m|[0m  [36m|[0m  [32m|[0m  [33m|[0m  [37m|[0m  [33m|[0m  [36m|[0m  [34m|[0m  [36m|[0m  [36m|[0m  [35m|[0m     [32m|[0m  [36m|[0m  [32m|[0m  [36m|[0m           [32m|[0m              [34m|[0m         48 89 c7             	[33mmov    [0m[34mrdi[0m,[34mrax[0m
  402e24:	[36m|[0m  [37m|[0m  [32m|[0m  [31m|[0m  [32m|[0m  [34m|[0m  [32m|[0m  [37m|[0m  [33m|[0m  [35m|[0m  [36m|[0m  [36m|[0m  [37m|[0m  [31m|[0m  [37m|[0m  [36m|[0m  [32m|[0m  [33m|[0m  [37m|[0m  [33m|[0m  [36m|[0m  [34m|[0m  [36m|[0m  [36m|[0m  [35m|[0m     [32m|[0m  [36m|[0m  [32m|[0m  [36m|[0m           [32m|[0m              [34m|[0m         48 89 c5             	[33mmov    [0m[34mrbp[0m,[34mrax[0m
  402e27:	[36m|[0m  [37m|[0m  [32m|[0m  [31m|[0m  [32m|[0m  [34m|[0m  [32m|[0m  [37m|[0m  [33m|[0m  [35m|[0m  [36m|[0m  [36m|[0m  [37m|[0m  [31m|[0m  [37m|[0m  [36m|[0m  [32m|[0m  [33m|[0m  [37m|[0m  [33m|[0m  [36m|[0m  [34m|[0m  [36m|[0m  [36m|[0m  [35m|[0m     [32m|[0m  [36m|[0m  [32m|[0m  [36m|[0m           [32m|[0m              [34m|[0m         e8 b4 f2 ff ff       	[33mcall   [0m[35m4020e0[0m <[32m_ZSt16__ostream_insertIcSt11char_traitsIcEERSt13basic_ostreamIT_T0_ES6_PKS3_l@plt[0m>
  402e2c:	[36m|[0m  [37m|[0m  [32m|[0m  [31m|[0m  [32m|[0m  [34m|[0m  [32m|[0m  [37m|[0m  [33m|[0m  [35m|[0m  [36m|[0m  [36m|[0m  [37m|[0m  [31m|[0m  [37m|[0m  [36m|[0m  [32m|[0m  [33m|[0m  [37m|[0m  [33m|[0m  [36m|[0m  [34m|[0m  [36m|[0m  [36m|[0m  [35m|[0m     [32m|[0m  [36m|[0m  [32m|[0m  [36m|[0m           [32m|[0m              [34m|[0m         48 8b 45 00          	[33mmov    [0m[34mrax[0m,QWORD PTR [[34mrbp[0m+[35m0x0[0m]
  402e30:	[36m|[0m  [37m|[0m  [32m|[0m  [31m|[0m  [32m|[0m  [34m|[0m  [32m|[0m  [37m|[0m  [33m|[0m  [35m|[0m  [36m|[0m  [36m|[0m  [37m|[0m  [31m|[0m  [37m|[0m  [36m|[0m  [32m|[0m  [33m|[0m  [37m|[0m  [33m|[0m  [36m|[0m  [34m|[0m  [36m|[0m  [36m|[0m  [35m|[0m     [32m|[0m  [36m|[0m  [32m|[0m  [36m|[0m           [32m|[0m              [34m|[0m         48 89 ef             	[33mmov    [0m[34mrdi[0m,[34mrbp[0m
  402e33:	[36m|[0m  [37m|[0m  [32m|[0m  [31m|[0m  [32m|[0m  [34m|[0m  [32m|[0m  [37m|[0m  [33m|[0m  [35m|[0m  [36m|[0m  [36m|[0m  [37m|[0m  [31m|[0m  [37m|[0m  [36m|[0m  [32m|[0m  [33m|[0m  [37m|[0m  [33m|[0m  [36m|[0m  [34m|[0m  [36m|[0m  [36m|[0m  [35m|[0m     [32m|[0m  [36m|[0m  [32m|[0m  [36m|[0m           [32m|[0m              [34m|[0m         48 8b 70 e8          	[33mmov    [0m[34mrsi[0m,QWORD PTR [[34mrax[0m[35m-[0m[35m0x18[0m]
  402e37:	[36m|[0m  [37m|[0m  [32m|[0m  [31m|[0m  [32m|[0m  [34m|[0m  [32m|[0m  [37m|[0m  [33m|[0m  [35m|[0m  [36m|[0m  [36m|[0m  [37m|[0m  [31m|[0m  [37m|[0m  [36m|[0m  [32m|[0m  [33m|[0m  [37m|[0m  [33m|[0m  [36m|[0m  [34m|[0m  [36m|[0m  [36m|[0m  [35m|[0m     [32m|[0m  [36m|[0m  [32m|[0m  [36m|[0m           [32m|[0m              [34m|[0m         48 c7 44 35 10 0a 00 	[33mmov    [0mQWORD PTR [[34mrbp[0m+[34mrsi[0m*[35m1[0m+[35m0x10[0m],[35m0xa[0m
  402e3e:	[36m|[0m  [37m|[0m  [32m|[0m  [31m|[0m  [32m|[0m  [34m|[0m  [32m|[0m  [37m|[0m  [33m|[0m  [35m|[0m  [36m|[0m  [36m|[0m  [37m|[0m  [31m|[0m  [37m|[0m  [36m|[0m  [32m|[0m  [33m|[0m  [37m|[0m  [33m|[0m  [36m|[0m  [34m|[0m  [36m|[0m  [36m|[0m  [35m|[0m     [32m|[0m  [36m|[0m  [32m|[0m  [36m|[0m           [32m|[0m              [34m|[0m         00 00 
  402e40:	[36m|[0m  [37m|[0m  [32m|[0m  [31m|[0m  [32m|[0m  [34m|[0m  [32m|[0m  [37m|[0m  [33m|[0m  [35m|[0m  [36m|[0m  [36m|[0m  [37m|[0m  [31m|[0m  [37m|[0m  [36m|[0m  [32m|[0m  [33m|[0m  [37m|[0m  [33m|[0m  [36m|[0m  [34m|[0m  [36m|[0m  [36m|[0m  [35m|[0m     [32m|[0m  [36m|[0m  [32m|[0m  [36m|[0m           [32m|[0m              [34m|[0m         49 8b 76 f8          	[33mmov    [0m[34mrsi[0m,QWORD PTR [[34mr14[0m[35m-[0m[35m0x8[0m]
  402e44:	[36m|[0m  [37m|[0m  [32m|[0m  [31m|[0m  [32m|[0m  [34m|[0m  [32m|[0m  [37m|[0m  [33m|[0m  [35m|[0m  [36m|[0m  [36m|[0m  [37m|[0m  [31m|[0m  [37m|[0m  [36m|[0m  [32m|[0m  [33m|[0m  [37m|[0m  [33m|[0m  [36m|[0m  [34m|[0m  [36m|[0m  [36m|[0m  [35m|[0m     [32m|[0m  [36m|[0m  [32m|[0m  [36m|[0m           [32m|[0m              [34m|[0m         e8 37 f2 ff ff       	[33mcall   [0m[35m402080[0m <[32m_ZNSo9_M_insertIyEERSoT_@plt[0m>
  402e49:	[36m|[0m  [37m|[0m  [32m|[0m  [31m|[0m  [32m|[0m  [34m|[0m  [32m|[0m  [37m|[0m  [33m|[0m  [35m|[0m  [36m|[0m  [36m|[0m  [37m|[0m  [31m|[0m  [37m|[0m  [36m|[0m  [32m|[0m  [33m|[0m  [37m|[0m  [33m|[0m  [36m|[0m  [34m|[0m  [36m|[0m  [36m|[0m  [35m|[0m     [32m|[0m  [36m|[0m  [32m|[0m  [36m|[0m           [32m|[0m              [34m|[0m         49 83 7e e0 0b       	[33mcmp    [0mQWORD PTR [[34mr14[0m[35m-[0m[35m0x20[0m],[35m0xb[0m
  402e4e:	[36m|[0m  [37m|[0m  [32m|[0m  [31m|[0m  [32m|[0m  [34m|[0m  [32m|[0m  [37m|[0m  [33m|[0m  [35m|[0m  [36m|[0m  [36m|[0m  [37m|[0m  [31m|[0m  [37m|[0m  [36m|[0m  [32m|[0m  [33m|[0m  [37m|[0m  [33m|[0m  [36m|[0m  [34m|[0m  [36m|[0m  [36m|[0m  [35m|[0m     [32m|[0m  [36m|[0m  [32m|[0m  [36m|[0m           [32m|[0m  [34m/[34m-[34m-[34m-[34m-[34m-[34m-[34m-[34m-[34m-[34m-[34m-[34m|[34m-[34m-[34m-[34m-[34m-[34m-[34m-[34m-[0m 0f 84 4c 01 00 00    	[33mje     [0m[35m402fa0[0m <[32m_Z13calc_speed_upv[0m[35m+0x[0m[35m8f0[0m>
  402e54:	[36m|[0m  [37m|[0m  [32m|[0m  [31m|[0m  [32m|[0m  [34m|[0m  [32m|[0m  [37m|[0m  [33m|[0m  [35m|[0m  [36m|[0m  [36m|[0m  [37m|[0m  [31m|[0m  [37m|[0m  [36m|[0m  [32m|[0m  [33m|[0m  [37m|[0m  [33m|[0m  [36m|[0m  [34m|[0m  [36m|[0m  [36m|[0m  [35m|[0m     [32m|[0m  [36m|[0m  [32m|[0m  [36m|[0m        [35m/--[32m|[35m--[34m|[35m-----------[34m|[35m------->[0m ba 0e 00 00 00       	[33mmov    [0m[34medx[0m,[35m0xe[0m
  402e59:	[36m|[0m  [37m|[0m  [32m|[0m  [31m|[0m  [32m|[0m  [34m|[0m  [32m|[0m  [37m|[0m  [33m|[0m  [35m|[0m  [36m|[0m  [36m|[0m  [37m|[0m  [31m|[0m  [37m|[0m  [36m|[0m  [32m|[0m  [33m|[0m  [37m|[0m  [33m|[0m  [36m|[0m  [34m|[0m  [36m|[0m  [36m|[0m  [35m|[0m     [32m|[0m  [36m|[0m  [32m|[0m  [36m|[0m        [35m|[0m  [32m|[0m  [34m|[0m           [34m|[0m         be 21 50 40 00       	[33mmov    [0m[34mesi[0m,[35m0x405021[0m
  402e5e:	[36m|[0m  [37m|[0m  [32m|[0m  [31m|[0m  [32m|[0m  [34m|[0m  [32m|[0m  [37m|[0m  [33m|[0m  [35m|[0m  [36m|[0m  [36m|[0m  [37m|[0m  [31m|[0m  [37m|[0m  [36m|[0m  [32m|[0m  [33m|[0m  [37m|[0m  [33m|[0m  [36m|[0m  [34m|[0m  [36m|[0m  [36m|[0m  [35m|[0m     [32m|[0m  [36m|[0m  [32m|[0m  [36m|[0m        [35m|[0m  [32m|[0m  [34m|[0m           [34m|[0m         bf 00 71 40 00       	[33mmov    [0m[34medi[0m,[35m0x407100[0m
  402e63:	[36m|[0m  [37m|[0m  [32m|[0m  [31m|[0m  [32m|[0m  [34m|[0m  [32m|[0m  [37m|[0m  [33m|[0m  [35m|[0m  [36m|[0m  [36m|[0m  [37m|[0m  [31m|[0m  [37m|[0m  [36m|[0m  [32m|[0m  [33m|[0m  [37m|[0m  [33m|[0m  [36m|[0m  [34m|[0m  [36m|[0m  [36m|[0m  [35m|[0m     [32m|[0m  [36m|[0m  [32m|[0m  [36m|[0m        [35m|[0m  [32m|[0m  [34m|[0m           [34m|[0m         e8 78 f2 ff ff       	[33mcall   [0m[35m4020e0[0m <[32m_ZSt16__ostream_insertIcSt11char_traitsIcEERSt13basic_ostreamIT_T0_ES6_PKS3_l@plt[0m>
  402e68:	[36m|[0m  [37m|[0m  [32m|[0m  [31m|[0m  [32m|[0m  [34m|[0m  [32m|[0m  [37m|[0m  [33m|[0m  [35m|[0m  [36m|[0m  [36m|[0m  [37m|[0m  [31m|[0m  [37m|[0m  [36m|[0m  [32m|[0m  [33m|[0m  [37m|[0m  [33m|[0m  [36m|[0m  [34m|[0m  [36m|[0m  [36m|[0m  [35m|[0m     [32m|[0m  [36m|[0m  [32m|[0m  [36m|[0m        [35m|[0m  [32m|[0m  [34m|[0m           [34m|[0m         4c 8b 15 91 42 00 00 	[33mmov    [0m[34mr10[0m,QWORD PTR [[34mrip[0m+[35m0x4291[0m]        # 407100 <_ZSt4cout@GLIBCXX_3.4>
  402e6f:	[36m|[0m  [37m|[0m  [32m|[0m  [31m|[0m  [32m|[0m  [34m|[0m  [32m|[0m  [37m|[0m  [33m|[0m  [35m|[0m  [36m|[0m  [36m|[0m  [37m|[0m  [31m|[0m  [37m|[0m  [36m|[0m  [32m|[0m  [33m|[0m  [37m|[0m  [33m|[0m  [36m|[0m  [34m|[0m  [36m|[0m  [36m|[0m  [35m|[0m     [32m|[0m  [36m|[0m  [32m|[0m  [36m|[0m        [35m|[0m  [32m|[0m  [34m|[0m           [34m|[0m         49 8b 5f 28          	[33mmov    [0m[34mrbx[0m,QWORD PTR [[34mr15[0m+[35m0x28[0m]
  402e73:	[36m|[0m  [37m|[0m  [32m|[0m  [31m|[0m  [32m|[0m  [34m|[0m  [32m|[0m  [37m|[0m  [33m|[0m  [35m|[0m  [36m|[0m  [36m|[0m  [37m|[0m  [31m|[0m  [37m|[0m  [36m|[0m  [32m|[0m  [33m|[0m  [37m|[0m  [33m|[0m  [36m|[0m  [34m|[0m  [36m|[0m  [36m|[0m  [35m|[0m     [32m|[0m  [36m|[0m  [32m|[0m  [36m|[0m        [35m|[0m  [32m|[0m  [34m|[0m           [34m|[0m         4d 8b 5a e8          	[33mmov    [0m[34mr11[0m,QWORD PTR [[34mr10[0m[35m-[0m[35m0x18[0m]
  402e77:	[36m|[0m  [37m|[0m  [32m|[0m  [31m|[0m  [32m|[0m  [34m|[0m  [32m|[0m  [37m|[0m  [33m|[0m  [35m|[0m  [36m|[0m  [36m|[0m  [37m|[0m  [31m|[0m  [37m|[0m  [36m|[0m  [32m|[0m  [33m|[0m  [37m|[0m  [33m|[0m  [36m|[0m  [34m|[0m  [36m|[0m  [36m|[0m  [35m|[0m     [32m|[0m  [36m|[0m  [32m|[0m  [36m|[0m        [35m|[0m  [32m|[0m  [34m|[0m           [34m|[0m         49 c7 83 10 71 40 00 	[33mmov    [0mQWORD PTR [[34mr11[0m+[35m0x407110[0m],[35m0xa[0m
  402e7e:	[36m|[0m  [37m|[0m  [32m|[0m  [31m|[0m  [32m|[0m  [34m|[0m  [32m|[0m  [37m|[0m  [33m|[0m  [35m|[0m  [36m|[0m  [36m|[0m  [37m|[0m  [31m|[0m  [37m|[0m  [36m|[0m  [32m|[0m  [33m|[0m  [37m|[0m  [33m|[0m  [36m|[0m  [34m|[0m  [36m|[0m  [36m|[0m  [35m|[0m     [32m|[0m  [36m|[0m  [32m|[0m  [36m|[0m        [35m|[0m  [32m|[0m  [34m|[0m           [34m|[0m         0a 00 00 00 
  402e82:	[36m|[0m  [37m|[0m  [32m|[0m  [31m|[0m  [32m|[0m  [34m|[0m  [32m|[0m  [37m|[0m  [33m|[0m  [35m|[0m  [36m|[0m  [36m|[0m  [37m|[0m  [31m|[0m  [37m|[0m  [36m|[0m  [32m|[0m  [33m|[0m  [37m|[0m  [33m|[0m  [36m|[0m  [34m|[0m  [36m|[0m  [36m|[0m  [35m|[0m     [32m|[0m  [36m|[0m  [32m|[0m  [36m|[0m        [35m|[0m  [32m|[0m  [34m|[0m           [34m|[0m         48 85 db             	[33mtest   [0m[34mrbx[0m,[34mrbx[0m
  402e85:	[36m|[0m  [37m|[0m  [32m|[0m  [31m|[0m  [32m|[0m  [34m|[0m  [32m|[0m  [37m|[0m  [33m|[0m  [35m|[0m  [36m|[0m  [36m|[0m  [37m|[0m  [31m|[0m  [37m|[0m  [36m|[0m  [32m|[0m  [33m|[0m  [37m|[0m  [33m|[0m  [36m|[0m  [34m|[0m  [36m|[0m  [36m|[0m  [35m|[0m     [32m|[0m  [36m|[0m  [32m|[0m  [36m|[0m     [37m/[37m-[37m-[35m|[37m-[37m-[32m|[37m-[37m-[34m|[37m-[37m-[37m-[37m-[37m-[37m-[37m-[37m-[37m-[37m-[37m-[34m|[37m-[37m-[37m-[37m-[37m-[37m-[37m-[37m-[0m 0f 88 65 01 00 00    	[33mjs     [0m[35m402ff0[0m <[32m_Z13calc_speed_upv[0m[35m+0x[0m[35m940[0m>
  402e8b:	[36m|[0m  [37m|[0m  [32m|[0m  [31m|[0m  [32m|[0m  [34m|[0m  [32m|[0m  [37m|[0m  [33m|[0m  [35m|[0m  [36m|[0m  [36m|[0m  [37m|[0m  [31m|[0m  [37m|[0m  [36m|[0m  [32m|[0m  [33m|[0m  [37m|[0m  [33m|[0m  [36m|[0m  [34m|[0m  [36m|[0m  [36m|[0m  [35m|[0m     [32m|[0m  [36m|[0m  [32m|[0m  [36m|[0m     [37m|[0m  [35m|[0m  [32m|[0m  [34m|[0m           [34m|[0m         c4 41 39 57 c0       	[33mvxorpd [0m[34mxmm8[0m,[34mxmm8[0m,[34mxmm8[0m
  402e90:	[36m|[0m  [37m|[0m  [32m|[0m  [31m|[0m  [32m|[0m  [34m|[0m  [32m|[0m  [37m|[0m  [33m|[0m  [35m|[0m  [36m|[0m  [36m|[0m  [37m|[0m  [31m|[0m  [37m|[0m  [36m|[0m  [32m|[0m  [33m|[0m  [37m|[0m  [33m|[0m  [36m|[0m  [34m|[0m  [36m|[0m  [36m|[0m  [35m|[0m     [32m|[0m  [36m|[0m  [32m|[0m  [36m|[0m     [37m|[0m  [35m|[0m  [32m|[0m  [34m|[0m           [34m|[0m         c4 61 bb 2a db       	[33mvcvtsi2sd [0m[34mxmm11[0m,[34mxmm8[0m,[34mrbx[0m
  402e95:	[36m|[0m  [37m|[0m  [32m|[0m  [31m|[0m  [32m|[0m  [34m|[0m  [32m|[0m  [37m|[0m  [33m|[0m  [35m|[0m  [36m|[0m  [36m|[0m  [37m|[0m  [31m|[0m  [37m|[0m  [36m|[0m  [32m|[0m  [33m|[0m  [37m|[0m  [33m|[0m  [36m|[0m  [34m|[0m  [36m|[0m  [36m|[0m  [35m|[0m     [32m|[0m  [36m|[0m  [32m|[0m  [36m|[0m  [33m/--[37m|[33m--[35m|[33m--[32m|[33m--[34m|[33m-----------[34m|[33m------->[0m 49 8b 7e f8          	[33mmov    [0m[34mrdi[0m,QWORD PTR [[34mr14[0m[35m-[0m[35m0x8[0m]
  402e99:	[36m|[0m  [37m|[0m  [32m|[0m  [31m|[0m  [32m|[0m  [34m|[0m  [32m|[0m  [37m|[0m  [33m|[0m  [35m|[0m  [36m|[0m  [36m|[0m  [37m|[0m  [31m|[0m  [37m|[0m  [36m|[0m  [32m|[0m  [33m|[0m  [37m|[0m  [33m|[0m  [36m|[0m  [34m|[0m  [36m|[0m  [36m|[0m  [35m|[0m     [32m|[0m  [36m|[0m  [32m|[0m  [36m|[0m  [33m|[0m  [37m|[0m  [35m|[0m  [32m|[0m  [34m|[0m           [34m|[0m         48 85 ff             	[33mtest   [0m[34mrdi[0m,[34mrdi[0m
  402e9c:	[36m|[0m  [37m|[0m  [32m|[0m  [31m|[0m  [32m|[0m  [34m|[0m  [32m|[0m  [37m|[0m  [33m|[0m  [35m|[0m  [36m|[0m  [36m|[0m  [37m|[0m  [31m|[0m  [37m|[0m  [36m|[0m  [32m|[0m  [33m|[0m  [37m|[0m  [33m|[0m  [36m|[0m  [34m|[0m  [36m|[0m  [36m|[0m  [35m|[0m     [32m|[0m  [36m|[0m  [32m|[0m  [36m|[0m  [33m|[0m  [37m|[0m  [35m|[0m  [32m|[0m  [34m|[0m     [33m/[33m-[33m-[33m-[33m-[33m-[34m|[33m-[33m-[33m-[33m-[33m-[33m-[33m-[33m-[0m 0f 88 2e 01 00 00    	[33mjs     [0m[35m402fd0[0m <[32m_Z13calc_speed_upv[0m[35m+0x[0m[35m920[0m>
  402ea2:	[36m|[0m  [37m|[0m  [32m|[0m  [31m|[0m  [32m|[0m  [34m|[0m  [32m|[0m  [37m|[0m  [33m|[0m  [35m|[0m  [36m|[0m  [36m|[0m  [37m|[0m  [31m|[0m  [37m|[0m  [36m|[0m  [32m|[0m  [33m|[0m  [37m|[0m  [33m|[0m  [36m|[0m  [34m|[0m  [36m|[0m  [36m|[0m  [35m|[0m     [32m|[0m  [36m|[0m  [32m|[0m  [36m|[0m  [33m|[0m  [37m|[0m  [35m|[0m  [32m|[0m  [34m|[0m     [33m|[0m     [34m|[0m         c4 41 19 57 e4       	[33mvxorpd [0m[34mxmm12[0m,[34mxmm12[0m,[34mxmm12[0m
  402ea7:	[36m|[0m  [37m|[0m  [32m|[0m  [31m|[0m  [32m|[0m  [34m|[0m  [32m|[0m  [37m|[0m  [33m|[0m  [35m|[0m  [36m|[0m  [36m|[0m  [37m|[0m  [31m|[0m  [37m|[0m  [36m|[0m  [32m|[0m  [33m|[0m  [37m|[0m  [33m|[0m  [36m|[0m  [34m|[0m  [36m|[0m  [36m|[0m  [35m|[0m     [32m|[0m  [36m|[0m  [32m|[0m  [36m|[0m  [33m|[0m  [37m|[0m  [35m|[0m  [32m|[0m  [34m|[0m     [33m|[0m     [34m|[0m         c4 61 9b 2a ff       	[33mvcvtsi2sd [0m[34mxmm15[0m,[34mxmm12[0m,[34mrdi[0m
  402eac:	[36m|[0m  [37m|[0m  [32m|[0m  [31m|[0m  [32m|[0m  [34m|[0m  [32m|[0m  [37m|[0m  [33m|[0m  [35m|[0m  [36m|[0m  [36m|[0m  [37m|[0m  [31m|[0m  [37m|[0m  [36m|[0m  [32m|[0m  [33m|[0m  [37m|[0m  [33m|[0m  [36m|[0m  [34m|[0m  [36m|[0m  [36m|[0m  [35m|[0m     [32m|[0m  [36m|[0m  [32m|[0m  [36m|[0m  [33m|[0m  [37m|[0m  [35m|[0m  [32m|[0m  [34m|[0m  [36m/--[33m|[36m-----[34m|[36m------->[0m c4 c1 23 5e c7       	[33mvdivsd [0m[34mxmm0[0m,[34mxmm11[0m,[34mxmm15[0m
  402eb1:	[36m|[0m  [37m|[0m  [32m|[0m  [31m|[0m  [32m|[0m  [34m|[0m  [32m|[0m  [37m|[0m  [33m|[0m  [35m|[0m  [36m|[0m  [36m|[0m  [37m|[0m  [31m|[0m  [37m|[0m  [36m|[0m  [32m|[0m  [33m|[0m  [37m|[0m  [33m|[0m  [36m|[0m  [34m|[0m  [36m|[0m  [36m|[0m  [35m|[0m     [32m|[0m  [36m|[0m  [32m|[0m  [36m|[0m  [33m|[0m  [37m|[0m  [35m|[0m  [32m|[0m  [34m|[0m  [36m|[0m  [33m|[0m     [34m|[0m         bf 00 71 40 00       	[33mmov    [0m[34medi[0m,[35m0x407100[0m
  402eb6:	[36m|[0m  [37m|[0m  [32m|[0m  [31m|[0m  [32m|[0m  [34m|[0m  [32m|[0m  [37m|[0m  [33m|[0m  [35m|[0m  [36m|[0m  [36m|[0m  [37m|[0m  [31m|[0m  [37m|[0m  [36m|[0m  [32m|[0m  [33m|[0m  [37m|[0m  [33m|[0m  [36m|[0m  [34m|[0m  [36m|[0m  [36m|[0m  [35m|[0m     [32m|[0m  [36m|[0m  [32m|[0m  [36m|[0m  [33m|[0m  [37m|[0m  [35m|[0m  [32m|[0m  [34m|[0m  [36m|[0m  [33m|[0m     [34m|[0m         e8 95 f2 ff ff       	[33mcall   [0m[35m402150[0m <[32m_ZNSo9_M_insertIdEERSoT_@plt[0m>
  402ebb:	[36m|[0m  [37m|[0m  [32m|[0m  [31m|[0m  [32m|[0m  [34m|[0m  [32m|[0m  [37m|[0m  [33m|[0m  [35m|[0m  [36m|[0m  [36m|[0m  [37m|[0m  [31m|[0m  [37m|[0m  [36m|[0m  [32m|[0m  [33m|[0m  [37m|[0m  [33m|[0m  [36m|[0m  [34m|[0m  [36m|[0m  [36m|[0m  [35m|[0m     [32m|[0m  [36m|[0m  [32m|[0m  [36m|[0m  [33m|[0m  [37m|[0m  [35m|[0m  [32m|[0m  [34m|[0m  [36m|[0m  [33m|[0m     [34m|[0m  [37m/[37m-[37m-[37m-[37m-[37m>[0m ba 01 00 00 00       	[33mmov    [0m[34medx[0m,[35m0x1[0m
  402ec0:	[36m|[0m  [37m|[0m  [32m|[0m  [31m|[0m  [32m|[0m  [34m|[0m  [32m|[0m  [37m|[0m  [33m|[0m  [35m|[0m  [36m|[0m  [36m|[0m  [37m|[0m  [31m|[0m  [37m|[0m  [36m|[0m  [32m|[0m  [33m|[0m  [37m|[0m  [33m|[0m  [36m|[0m  [34m|[0m  [36m|[0m  [36m|[0m  [35m|[0m     [32m|[0m  [36m|[0m  [32m|[0m  [36m|[0m  [33m|[0m  [37m|[0m  [35m|[0m  [32m|[0m  [34m|[0m  [36m|[0m  [33m|[0m     [34m|[0m  [37m|[0m      be 30 50 40 00       	[33mmov    [0m[34mesi[0m,[35m0x405030[0m
  402ec5:	[36m|[0m  [37m|[0m  [32m|[0m  [31m|[0m  [32m|[0m  [34m|[0m  [32m|[0m  [37m|[0m  [33m|[0m  [35m|[0m  [36m|[0m  [36m|[0m  [37m|[0m  [31m|[0m  [37m|[0m  [36m|[0m  [32m|[0m  [33m|[0m  [37m|[0m  [33m|[0m  [36m|[0m  [34m|[0m  [36m|[0m  [36m|[0m  [35m|[0m     [32m|[0m  [36m|[0m  [32m|[0m  [36m|[0m  [33m|[0m  [37m|[0m  [35m|[0m  [32m|[0m  [34m|[0m  [36m|[0m  [33m|[0m     [34m|[0m  [37m|[0m      bf 00 71 40 00       	[33mmov    [0m[34medi[0m,[35m0x407100[0m
  402eca:	[36m|[0m  [37m|[0m  [32m|[0m  [31m|[0m  [32m|[0m  [34m|[0m  [32m|[0m  [37m|[0m  [33m|[0m  [35m|[0m  [36m|[0m  [36m|[0m  [37m|[0m  [31m|[0m  [37m|[0m  [36m|[0m  [32m|[0m  [33m|[0m  [37m|[0m  [33m|[0m  [36m|[0m  [34m|[0m  [36m|[0m  [36m|[0m  [35m|[0m     [32m|[0m  [36m|[0m  [32m|[0m  [36m|[0m  [33m|[0m  [37m|[0m  [35m|[0m  [32m|[0m  [34m|[0m  [36m|[0m  [33m|[0m     [34m|[0m  [37m|[0m      e8 11 f2 ff ff       	[33mcall   [0m[35m4020e0[0m <[32m_ZSt16__ostream_insertIcSt11char_traitsIcEERSt13basic_ostreamIT_T0_ES6_PKS3_l@plt[0m>
  402ecf:	[36m|[0m  [37m|[0m  [32m|[0m  [31m|[0m  [32m|[0m  [34m|[0m  [32m|[0m  [37m|[0m  [33m|[0m  [35m|[0m  [36m|[0m  [36m|[0m  [37m|[0m  [31m|[0m  [37m|[0m  [36m|[0m  [32m|[0m  [33m|[0m  [37m|[0m  [33m|[0m  [36m|[0m  [34m|[0m  [36m|[0m  [36m|[0m  [35m|[0m     [32m|[0m  [36m|[0m  [32m|[0m  [36m|[0m  [33m|[0m  [37m|[0m  [35m|[0m  [32m|[0m  [34m|[0m  [36m|[0m  [33m|[0m     [34m|[0m  [37m|[0m      4c 8b 64 24 08       	[33mmov    [0m[34mr12[0m,QWORD PTR [[34mrsp[0m+[35m0x8[0m]
  402ed4:	[36m|[0m  [37m|[0m  [32m|[0m  [31m|[0m  [32m|[0m  [34m|[0m  [32m|[0m  [37m|[0m  [33m|[0m  [35m|[0m  [36m|[0m  [36m|[0m  [37m|[0m  [31m|[0m  [37m|[0m  [36m|[0m  [32m|[0m  [33m|[0m  [37m|[0m  [33m|[0m  [36m|[0m  [34m|[0m  [36m|[0m  [36m|[0m  [35m|[0m     [32m|[0m  [36m|[0m  [32m|[0m  [36m|[0m  [33m|[0m  [37m|[0m  [35m|[0m  [32m|[0m  [34m|[0m  [36m|[0m  [33m|[0m     [34m|[0m  [37m|[0m      49 83 c6 30          	[33madd    [0m[34mr14[0m,[35m0x30[0m
  402ed8:	[36m|[0m  [37m|[0m  [32m|[0m  [31m|[0m  [32m|[0m  [34m|[0m  [32m|[0m  [37m|[0m  [33m|[0m  [35m|[0m  [36m|[0m  [36m|[0m  [37m|[0m  [31m|[0m  [37m|[0m  [36m|[0m  [32m|[0m  [33m|[0m  [37m|[0m  [33m|[0m  [36m|[0m  [34m|[0m  [36m|[0m  [36m|[0m  [35m|[0m     [32m|[0m  [36m|[0m  [32m|[0m  [36m|[0m  [33m|[0m  [37m|[0m  [35m|[0m  [32m|[0m  [34m|[0m  [36m|[0m  [33m|[0m     [34m|[0m  [37m|[0m      4d 39 e6             	[33mcmp    [0m[34mr14[0m,[34mr12[0m
  402edb:	[36m|[0m  [37m|[0m  [32m|[0m  [31m|[0m  [32m|[0m  [34m|[0m  [32m|[0m  [37m|[0m  [33m|[0m  [35m|[0m  [36m|[0m  [36m|[0m  [37m|[0m  [31m|[0m  [37m|[0m  [36m|[0m  [32m|[0m  [33m|[0m  [37m|[0m  [33m|[0m  [36m|[0m  [34m|[0m  [36m|[0m  [36m|[0m  [35m|[0m     [32m|[0m  [36m|[0m  [32m|[0m  [36m|[0m  [33m|[0m  [37m|[0m  [35m|[0m  [32m|[0m  [34m|[0m  [36m|[0m  [33m|[0m     [34m\[34m-[34m-[37m|[34m-[34m-[34m-[34m-[34m-[0m 0f 85 0f fd ff ff    	[33mjne    [0m[35m402bf0[0m <[32m_Z13calc_speed_upv[0m[35m+0x[0m[35m540[0m>
  402ee1:	[36m|[0m  [37m|[0m  [32m|[0m  [31m|[0m  [32m|[0m  [34m|[0m  [32m|[0m  [37m|[0m  [33m|[0m  [35m|[0m  [36m|[0m  [36m|[0m  [37m|[0m  [31m|[0m  [37m|[0m  [36m|[0m  [32m|[0m  [33m|[0m  [37m|[0m  [33m|[0m  [36m|[0m  [34m|[0m  [36m|[0m  [36m|[0m  [35m|[0m     [32m|[0m  [36m|[0m  [32m|[0m  [36m|[0m  [33m|[0m  [37m|[0m  [35m|[0m  [32m|[0m  [34m|[0m  [36m|[0m  [33m|[0m        [37m|[0m      4d 89 fe             	[33mmov    [0m[34mr14[0m,[34mr15[0m
  402ee4:	[36m|[0m  [37m|[0m  [32m|[0m  [31m|[0m  [32m|[0m  [34m|[0m  [32m|[0m  [37m|[0m  [33m|[0m  [35m|[0m  [36m|[0m  [36m|[0m  [37m|[0m  [31m|[0m  [37m|[0m  [36m|[0m  [32m|[0m  [33m|[0m  [37m|[0m  [33m|[0m  [36m|[0m  [34m|[0m  [36m|[0m  [36m|[0m  [35m|[0m     [32m|[0m  [36m|[0m  [32m|[0m  [36m|[0m  [33m|[0m  [37m|[0m  [35m|[0m  [32m|[0m  [34m|[0m  [36m|[0m  [33m|[0m        [37m|[0m      66 66 2e 0f 1f 84 00 	[33mdata16 [0m[33mcs [0m[33mnop [0mWORD PTR [[34mrax[0m+[34mrax[0m*[35m1[0m+[35m0x0[0m]
  402eeb:	[36m|[0m  [37m|[0m  [32m|[0m  [31m|[0m  [32m|[0m  [34m|[0m  [32m|[0m  [37m|[0m  [33m|[0m  [35m|[0m  [36m|[0m  [36m|[0m  [37m|[0m  [31m|[0m  [37m|[0m  [36m|[0m  [32m|[0m  [33m|[0m  [37m|[0m  [33m|[0m  [36m|[0m  [34m|[0m  [36m|[0m  [36m|[0m  [35m|[0m     [32m|[0m  [36m|[0m  [32m|[0m  [36m|[0m  [33m|[0m  [37m|[0m  [35m|[0m  [32m|[0m  [34m|[0m  [36m|[0m  [33m|[0m        [37m|[0m      00 00 00 00 
  402eef:	[36m|[0m  [37m|[0m  [32m|[0m  [31m|[0m  [32m|[0m  [34m|[0m  [32m|[0m  [37m|[0m  [33m|[0m  [35m|[0m  [36m|[0m  [36m|[0m  [37m|[0m  [31m|[0m  [37m|[0m  [36m|[0m  [32m|[0m  [33m|[0m  [37m|[0m  [33m|[0m  [36m|[0m  [34m|[0m  [36m|[0m  [36m|[0m  [35m|[0m     [32m|[0m  [36m|[0m  [32m|[0m  [36m|[0m  [33m|[0m  [37m|[0m  [35m|[0m  [32m|[0m  [34m|[0m  [36m|[0m  [33m|[0m        [37m|[0m      90                   	[33mnop[0m
  402ef0:	[36m|[0m  [37m|[0m  [32m|[0m  [31m|[0m  [32m|[0m  [34m|[0m  [32m|[0m  [37m|[0m  [33m|[0m  [35m|[0m  [36m|[0m  [36m|[0m  [37m|[0m  [31m|[0m  [37m|[0m  [36m|[0m  [32m|[0m  [33m|[0m  [37m|[0m  [33m|[0m  [36m|[0m  [34m|[0m  [36m|[0m  [36m|[0m  [35m|[0m     [32m|[0m  [36m|[0m  [32m|[0m  [36m|[0m  [33m|[0m  [37m|[0m  [35m|[0m  [32m|[0m  [34m|[0m  [36m|[0m  [33m|[0m  [33m/-----[37m|[33m---->[0m 49 8b 7e 08          	[33mmov    [0m[34mrdi[0m,QWORD PTR [[34mr14[0m+[35m0x8[0m]
  402ef4:	[36m|[0m  [37m|[0m  [32m|[0m  [31m|[0m  [32m|[0m  [34m|[0m  [32m|[0m  [37m|[0m  [33m|[0m  [35m|[0m  [36m|[0m  [36m|[0m  [37m|[0m  [31m|[0m  [37m|[0m  [36m|[0m  [32m|[0m  [33m|[0m  [37m|[0m  [33m|[0m  [36m|[0m  [34m|[0m  [36m|[0m  [36m|[0m  [35m|[0m     [32m|[0m  [36m|[0m  [32m|[0m  [36m|[0m  [33m|[0m  [37m|[0m  [35m|[0m  [32m|[0m  [34m|[0m  [36m|[0m  [33m|[0m  [33m|[0m     [37m|[0m      49 8d 56 18          	[33mlea    [0m[34mrdx[0m,[[34mr14[0m+[35m0x18[0m]
  402ef8:	[36m|[0m  [37m|[0m  [32m|[0m  [31m|[0m  [32m|[0m  [34m|[0m  [32m|[0m  [37m|[0m  [33m|[0m  [35m|[0m  [36m|[0m  [36m|[0m  [37m|[0m  [31m|[0m  [37m|[0m  [36m|[0m  [32m|[0m  [33m|[0m  [37m|[0m  [33m|[0m  [36m|[0m  [34m|[0m  [36m|[0m  [36m|[0m  [35m|[0m     [32m|[0m  [36m|[0m  [32m|[0m  [36m|[0m  [33m|[0m  [37m|[0m  [35m|[0m  [32m|[0m  [34m|[0m  [36m|[0m  [33m|[0m  [33m|[0m     [37m|[0m      48 39 d7             	[33mcmp    [0m[34mrdi[0m,[34mrdx[0m
  402efb:	[36m|[0m  [37m|[0m  [32m|[0m  [31m|[0m  [32m|[0m  [34m|[0m  [32m|[0m  [37m|[0m  [33m|[0m  [35m|[0m  [36m|[0m  [36m|[0m  [37m|[0m  [31m|[0m  [37m|[0m  [36m|[0m  [32m|[0m  [33m|[0m  [37m|[0m  [33m|[0m  [36m|[0m  [34m|[0m  [36m|[0m  [36m|[0m  [35m|[0m     [32m|[0m  [36m|[0m  [32m|[0m  [36m|[0m  [33m|[0m  [37m|[0m  [35m|[0m  [32m|[0m  [34m|[0m  [36m|[0m  [33m|[0m  [33m|[0m  [31m/--[37m|[31m-----[0m 0f 84 0f 01 00 00    	[33mje     [0m[35m403010[0m <[32m_Z13calc_speed_upv[0m[35m+0x[0m[35m960[0m>
  402f01:	[36m|[0m  [37m|[0m  [32m|[0m  [31m|[0m  [32m|[0m  [34m|[0m  [32m|[0m  [37m|[0m  [33m|[0m  [35m|[0m  [36m|[0m  [36m|[0m  [37m|[0m  [31m|[0m  [37m|[0m  [36m|[0m  [32m|[0m  [33m|[0m  [37m|[0m  [33m|[0m  [36m|[0m  [34m|[0m  [36m|[0m  [36m|[0m  [35m|[0m     [32m|[0m  [36m|[0m  [32m|[0m  [36m|[0m  [33m|[0m  [37m|[0m  [35m|[0m  [32m|[0m  [34m|[0m  [36m|[0m  [33m|[0m  [33m|[0m  [31m|[0m  [37m|[0m      49 8b 6e 18          	[33mmov    [0m[34mrbp[0m,QWORD PTR [[34mr14[0m+[35m0x18[0m]
  402f05:	[36m|[0m  [37m|[0m  [32m|[0m  [31m|[0m  [32m|[0m  [34m|[0m  [32m|[0m  [37m|[0m  [33m|[0m  [35m|[0m  [36m|[0m  [36m|[0m  [37m|[0m  [31m|[0m  [37m|[0m  [36m|[0m  [32m|[0m  [33m|[0m  [37m|[0m  [33m|[0m  [36m|[0m  [34m|[0m  [36m|[0m  [36m|[0m  [35m|[0m     [32m|[0m  [36m|[0m  [32m|[0m  [36m|[0m  [33m|[0m  [37m|[0m  [35m|[0m  [32m|[0m  [34m|[0m  [36m|[0m  [33m|[0m  [33m|[0m  [31m|[0m  [37m|[0m      49 83 c6 30          	[33madd    [0m[34mr14[0m,[35m0x30[0m
  402f09:	[36m|[0m  [37m|[0m  [32m|[0m  [31m|[0m  [32m|[0m  [34m|[0m  [32m|[0m  [37m|[0m  [33m|[0m  [35m|[0m  [36m|[0m  [36m|[0m  [37m|[0m  [31m|[0m  [37m|[0m  [36m|[0m  [32m|[0m  [33m|[0m  [37m|[0m  [33m|[0m  [36m|[0m  [34m|[0m  [36m|[0m  [36m|[0m  [35m|[0m     [32m|[0m  [36m|[0m  [32m|[0m  [36m|[0m  [33m|[0m  [37m|[0m  [35m|[0m  [32m|[0m  [34m|[0m  [36m|[0m  [33m|[0m  [33m|[0m  [31m|[0m  [37m|[0m      48 8d 75 01          	[33mlea    [0m[34mrsi[0m,[[34mrbp[0m+[35m0x1[0m]
  402f0d:	[36m|[0m  [37m|[0m  [32m|[0m  [31m|[0m  [32m|[0m  [34m|[0m  [32m|[0m  [37m|[0m  [33m|[0m  [35m|[0m  [36m|[0m  [36m|[0m  [37m|[0m  [31m|[0m  [37m|[0m  [36m|[0m  [32m|[0m  [33m|[0m  [37m|[0m  [33m|[0m  [36m|[0m  [34m|[0m  [36m|[0m  [36m|[0m  [35m|[0m     [32m|[0m  [36m|[0m  [32m|[0m  [36m|[0m  [33m|[0m  [37m|[0m  [35m|[0m  [32m|[0m  [34m|[0m  [36m|[0m  [33m|[0m  [33m|[0m  [31m|[0m  [37m|[0m      e8 ae f1 ff ff       	[33mcall   [0m[35m4020c0[0m <[32m_ZdlPvm@plt[0m>
  402f12:	[36m|[0m  [37m|[0m  [32m|[0m  [31m|[0m  [32m|[0m  [34m|[0m  [32m|[0m  [37m|[0m  [33m|[0m  [35m|[0m  [36m|[0m  [36m|[0m  [37m|[0m  [31m|[0m  [37m|[0m  [36m|[0m  [32m|[0m  [33m|[0m  [37m|[0m  [33m|[0m  [36m|[0m  [34m|[0m  [36m|[0m  [36m|[0m  [35m|[0m     [32m|[0m  [36m|[0m  [32m|[0m  [36m|[0m  [33m|[0m  [37m|[0m  [35m|[0m  [32m|[0m  [34m|[0m  [36m|[0m  [33m|[0m  [33m|[0m  [31m|[0m  [37m|[0m      4c 39 34 24          	[33mcmp    [0mQWORD PTR [[34mrsp[0m],[34mr14[0m
  402f16:	[36m|[0m  [37m|[0m  [32m|[0m  [31m|[0m  [32m|[0m  [34m|[0m  [32m|[0m  [37m|[0m  [33m|[0m  [35m|[0m  [36m|[0m  [36m|[0m  [37m|[0m  [31m|[0m  [37m|[0m  [36m|[0m  [32m|[0m  [33m|[0m  [37m|[0m  [33m|[0m  [36m|[0m  [34m|[0m  [36m|[0m  [36m|[0m  [35m|[0m     [32m|[0m  [36m|[0m  [32m|[0m  [36m|[0m  [33m|[0m  [37m|[0m  [35m|[0m  [32m|[0m  [34m|[0m  [36m|[0m  [33m|[0m  [33m+--[31m|[33m--[37m|[33m-----[0m 75 d8                	[33mjne    [0m[35m402ef0[0m <[32m_Z13calc_speed_upv[0m[35m+0x[0m[35m840[0m>
  402f18:	[36m|[0m  [37m|[0m  [32m|[0m  [31m|[0m  [32m|[0m  [34m|[0m  [32m|[0m  [37m|[0m  [33m|[0m  [35m|[0m  [36m|[0m  [36m|[0m  [37m|[0m  [31m|[0m  [37m|[0m  [36m|[0m  [32m|[0m  [33m|[0m  [37m|[0m  [33m|[0m  [36m|[0m  [34m|[0m  [36m|[0m  [36m|[0m  [35m|[0m     [32m|[0m  [36m|[0m  [32m|[0m  [36m|[0m  [33m|[0m  [37m|[0m  [35m|[0m  [32m|[0m  [34m|[0m  [36m|[0m  [33m|[0m  [33m|[0m  [31m|[0m  [37m|[0m  [35m/[35m-[35m>[0m 48 8b 84 24 88 01 00 	[33mmov    [0m[34mrax[0m,QWORD PTR [[34mrsp[0m+[35m0x188[0m]
  402f1f:	[36m|[0m  [37m|[0m  [32m|[0m  [31m|[0m  [32m|[0m  [34m|[0m  [32m|[0m  [37m|[0m  [33m|[0m  [35m|[0m  [36m|[0m  [36m|[0m  [37m|[0m  [31m|[0m  [37m|[0m  [36m|[0m  [32m|[0m  [33m|[0m  [37m|[0m  [33m|[0m  [36m|[0m  [34m|[0m  [36m|[0m  [36m|[0m  [35m|[0m     [32m|[0m  [36m|[0m  [32m|[0m  [36m|[0m  [33m|[0m  [37m|[0m  [35m|[0m  [32m|[0m  [34m|[0m  [36m|[0m  [33m|[0m  [33m|[0m  [31m|[0m  [37m|[0m  [35m|[0m   00 
  402f20:	[36m|[0m  [37m|[0m  [32m|[0m  [31m|[0m  [32m|[0m  [34m|[0m  [32m|[0m  [37m|[0m  [33m|[0m  [35m|[0m  [36m|[0m  [36m|[0m  [37m|[0m  [31m|[0m  [37m|[0m  [36m|[0m  [32m|[0m  [33m|[0m  [37m|[0m  [33m|[0m  [36m|[0m  [34m|[0m  [36m|[0m  [36m|[0m  [35m|[0m     [32m|[0m  [36m|[0m  [32m|[0m  [36m|[0m  [33m|[0m  [37m|[0m  [35m|[0m  [32m|[0m  [34m|[0m  [36m|[0m  [33m|[0m  [33m|[0m  [31m|[0m  [37m|[0m  [35m|[0m   64 48 2b 04 25 28 00 	[33msub    [0m[34mrax[0m,QWORD PTR [34mfs[0m:0x28
  402f27:	[36m|[0m  [37m|[0m  [32m|[0m  [31m|[0m  [32m|[0m  [34m|[0m  [32m|[0m  [37m|[0m  [33m|[0m  [35m|[0m  [36m|[0m  [36m|[0m  [37m|[0m  [31m|[0m  [37m|[0m  [36m|[0m  [32m|[0m  [33m|[0m  [37m|[0m  [33m|[0m  [36m|[0m  [34m|[0m  [36m|[0m  [36m|[0m  [35m|[0m     [32m|[0m  [36m|[0m  [32m|[0m  [36m|[0m  [33m|[0m  [37m|[0m  [35m|[0m  [32m|[0m  [34m|[0m  [36m|[0m  [33m|[0m  [33m|[0m  [31m|[0m  [37m|[0m  [35m|[0m   00 00 
  402f29:	[36m|[0m  [37m|[0m  [32m|[0m  [31m|[0m  [32m|[0m  [34m|[0m  [32m|[0m  [37m|[0m  [33m|[0m  [35m|[0m  [36m|[0m  [36m|[0m  [37m|[0m  [31m|[0m  [37m|[0m  [36m|[0m  [32m|[0m  [33m|[0m  [37m|[0m  [33m|[0m  [36m|[0m  [34m|[0m  [36m|[0m  [36m|[0m  [35m|[0m  [31m/--[32m|[31m--[36m|[31m--[32m|[31m--[36m|[31m--[33m|[31m--[37m|[31m--[35m|[31m--[32m|[31m--[34m|[31m--[36m|[31m--[33m|[31m--[33m|[31m--[31m|[31m--[37m|[31m--[35m|[31m--[0m 0f 85 c8 02 00 00    	[33mjne    [0m[35m4031f7[0m <[32m_Z13calc_speed_upv[0m[35m+0x[0m[35mb47[0m>
  402f2f:	[36m|[0m  [37m|[0m  [32m|[0m  [31m|[0m  [32m|[0m  [34m|[0m  [32m|[0m  [37m|[0m  [33m|[0m  [35m|[0m  [36m|[0m  [36m|[0m  [37m|[0m  [31m|[0m  [37m|[0m  [36m|[0m  [32m|[0m  [33m|[0m  [37m|[0m  [33m|[0m  [36m|[0m  [34m|[0m  [36m|[0m  [36m|[0m  [35m|[0m  [31m|[0m  [32m|[0m  [36m|[0m  [32m|[0m  [36m|[0m  [33m|[0m  [37m|[0m  [35m|[0m  [32m|[0m  [34m|[0m  [36m|[0m  [33m|[0m  [33m|[0m  [31m|[0m  [37m|[0m  [35m|[0m   48 81 c4 98 01 00 00 	[33madd    [0m[34mrsp[0m,[35m0x198[0m
  402f36:	[36m|[0m  [37m|[0m  [32m|[0m  [31m|[0m  [32m|[0m  [34m|[0m  [32m|[0m  [37m|[0m  [33m|[0m  [35m|[0m  [36m|[0m  [36m|[0m  [37m|[0m  [31m|[0m  [37m|[0m  [36m|[0m  [32m|[0m  [33m|[0m  [37m|[0m  [33m|[0m  [36m|[0m  [34m|[0m  [36m|[0m  [36m|[0m  [35m|[0m  [31m|[0m  [32m|[0m  [36m|[0m  [32m|[0m  [36m|[0m  [33m|[0m  [37m|[0m  [35m|[0m  [32m|[0m  [34m|[0m  [36m|[0m  [33m|[0m  [33m|[0m  [31m|[0m  [37m|[0m  [35m|[0m   4c 89 ff             	[33mmov    [0m[34mrdi[0m,[34mr15[0m
  402f39:	[36m|[0m  [37m|[0m  [32m|[0m  [31m|[0m  [32m|[0m  [34m|[0m  [32m|[0m  [37m|[0m  [33m|[0m  [35m|[0m  [36m|[0m  [36m|[0m  [37m|[0m  [31m|[0m  [37m|[0m  [36m|[0m  [32m|[0m  [33m|[0m  [37m|[0m  [33m|[0m  [36m|[0m  [34m|[0m  [36m|[0m  [36m|[0m  [35m|[0m  [31m|[0m  [32m|[0m  [36m|[0m  [32m|[0m  [36m|[0m  [33m|[0m  [37m|[0m  [35m|[0m  [32m|[0m  [34m|[0m  [36m|[0m  [33m|[0m  [33m|[0m  [31m|[0m  [37m|[0m  [35m|[0m   be c0 00 00 00       	[33mmov    [0m[34mesi[0m,[35m0xc0[0m
  402f3e:	[36m|[0m  [37m|[0m  [32m|[0m  [31m|[0m  [32m|[0m  [34m|[0m  [32m|[0m  [37m|[0m  [33m|[0m  [35m|[0m  [36m|[0m  [36m|[0m  [37m|[0m  [31m|[0m  [37m|[0m  [36m|[0m  [32m|[0m  [33m|[0m  [37m|[0m  [33m|[0m  [36m|[0m  [34m|[0m  [36m|[0m  [36m|[0m  [35m|[0m  [31m|[0m  [32m|[0m  [36m|[0m  [32m|[0m  [36m|[0m  [33m|[0m  [37m|[0m  [35m|[0m  [32m|[0m  [34m|[0m  [36m|[0m  [33m|[0m  [33m|[0m  [31m|[0m  [37m|[0m  [35m|[0m   5b                   	[33mpop    [0m[34mrbx[0m
  402f3f:	[36m|[0m  [37m|[0m  [32m|[0m  [31m|[0m  [32m|[0m  [34m|[0m  [32m|[0m  [37m|[0m  [33m|[0m  [35m|[0m  [36m|[0m  [36m|[0m  [37m|[0m  [31m|[0m  [37m|[0m  [36m|[0m  [32m|[0m  [33m|[0m  [37m|[0m  [33m|[0m  [36m|[0m  [34m|[0m  [36m|[0m  [36m|[0m  [35m|[0m  [31m|[0m  [32m|[0m  [36m|[0m  [32m|[0m  [36m|[0m  [33m|[0m  [37m|[0m  [35m|[0m  [32m|[0m  [34m|[0m  [36m|[0m  [33m|[0m  [33m|[0m  [31m|[0m  [37m|[0m  [35m|[0m   5d                   	[33mpop    [0m[34mrbp[0m
  402f40:	[36m|[0m  [37m|[0m  [32m|[0m  [31m|[0m  [32m|[0m  [34m|[0m  [32m|[0m  [37m|[0m  [33m|[0m  [35m|[0m  [36m|[0m  [36m|[0m  [37m|[0m  [31m|[0m  [37m|[0m  [36m|[0m  [32m|[0m  [33m|[0m  [37m|[0m  [33m|[0m  [36m|[0m  [34m|[0m  [36m|[0m  [36m|[0m  [35m|[0m  [31m|[0m  [32m|[0m  [36m|[0m  [32m|[0m  [36m|[0m  [33m|[0m  [37m|[0m  [35m|[0m  [32m|[0m  [34m|[0m  [36m|[0m  [33m|[0m  [33m|[0m  [31m|[0m  [37m|[0m  [35m|[0m   41 5c                	[33mpop    [0m[34mr12[0m
  402f42:	[36m|[0m  [37m|[0m  [32m|[0m  [31m|[0m  [32m|[0m  [34m|[0m  [32m|[0m  [37m|[0m  [33m|[0m  [35m|[0m  [36m|[0m  [36m|[0m  [37m|[0m  [31m|[0m  [37m|[0m  [36m|[0m  [32m|[0m  [33m|[0m  [37m|[0m  [33m|[0m  [36m|[0m  [34m|[0m  [36m|[0m  [36m|[0m  [35m|[0m  [31m|[0m  [32m|[0m  [36m|[0m  [32m|[0m  [36m|[0m  [33m|[0m  [37m|[0m  [35m|[0m  [32m|[0m  [34m|[0m  [36m|[0m  [33m|[0m  [33m|[0m  [31m|[0m  [37m|[0m  [35m|[0m   41 5d                	[33mpop    [0m[34mr13[0m
  402f44:	[36m|[0m  [37m|[0m  [32m|[0m  [31m|[0m  [32m|[0m  [34m|[0m  [32m|[0m  [37m|[0m  [33m|[0m  [35m|[0m  [36m|[0m  [36m|[0m  [37m|[0m  [31m|[0m  [37m|[0m  [36m|[0m  [32m|[0m  [33m|[0m  [37m|[0m  [33m|[0m  [36m|[0m  [34m|[0m  [36m|[0m  [36m|[0m  [35m|[0m  [31m|[0m  [32m|[0m  [36m|[0m  [32m|[0m  [36m|[0m  [33m|[0m  [37m|[0m  [35m|[0m  [32m|[0m  [34m|[0m  [36m|[0m  [33m|[0m  [33m|[0m  [31m|[0m  [37m|[0m  [35m|[0m   41 5e                	[33mpop    [0m[34mr14[0m
  402f46:	[36m|[0m  [37m|[0m  [32m|[0m  [31m|[0m  [32m|[0m  [34m|[0m  [32m|[0m  [37m|[0m  [33m|[0m  [35m|[0m  [36m|[0m  [36m|[0m  [37m|[0m  [31m|[0m  [37m|[0m  [36m|[0m  [32m|[0m  [33m|[0m  [37m|[0m  [33m|[0m  [36m|[0m  [34m|[0m  [36m|[0m  [36m|[0m  [35m|[0m  [31m|[0m  [32m|[0m  [36m|[0m  [32m|[0m  [36m|[0m  [33m|[0m  [37m|[0m  [35m|[0m  [32m|[0m  [34m|[0m  [36m|[0m  [33m|[0m  [33m|[0m  [31m|[0m  [37m|[0m  [35m|[0m   41 5f                	[33mpop    [0m[34mr15[0m
  402f48:	[36m|[0m  [37m|[0m  [32m|[0m  [31m|[0m  [32m|[0m  [34m|[0m  [32m|[0m  [37m|[0m  [33m|[0m  [35m|[0m  [36m|[0m  [36m|[0m  [37m|[0m  [31m|[0m  [37m|[0m  [36m|[0m  [32m|[0m  [33m|[0m  [37m|[0m  [33m|[0m  [36m|[0m  [34m|[0m  [36m|[0m  [36m|[0m  [35m|[0m  [31m|[0m  [32m|[0m  [36m|[0m  [32m|[0m  [36m|[0m  [33m|[0m  [37m|[0m  [35m|[0m  [32m|[0m  [34m|[0m  [36m|[0m  [33m|[0m  [33m|[0m  [31m|[0m  [37m|[0m  [35m|[0m   e9 73 f1 ff ff       	[33mjmp    [0m[35m4020c0[0m <[32m_ZdlPvm@plt[0m>
  402f4d:	[36m|[0m  [37m|[0m  [32m|[0m  [31m|[0m  [32m|[0m  [34m|[0m  [32m|[0m  [37m|[0m  [33m|[0m  [35m|[0m  [36m|[0m  [36m|[0m  [37m|[0m  [31m|[0m  [37m|[0m  [36m|[0m  [32m|[0m  [33m|[0m  [37m|[0m  [33m|[0m  [36m|[0m  [34m|[0m  [36m|[0m  [36m|[0m  [35m|[0m  [31m|[0m  [32m|[0m  [36m|[0m  [32m|[0m  [36m|[0m  [33m|[0m  [37m|[0m  [35m|[0m  [32m\--[34m|[32m--[36m|[32m--[33m|[32m--[33m|[32m--[31m|[32m--[37m|[32m--[35m|[32m->[0m 4d 85 ed             	[33mtest   [0m[34mr13[0m,[34mr13[0m
  402f50:	[36m+--[37m|[36m--[32m|[36m--[31m|[36m--[32m|[36m--[34m|[36m--[32m|[36m--[37m|[36m--[33m|[36m--[35m|[36m--[36m|[36m--[36m|[36m--[37m|[36m--[31m|[36m--[37m|[36m--[36m|[36m--[32m|[36m--[33m|[36m--[37m|[36m--[33m|[36m--[36m|[36m--[34m|[36m--[36m|[36m--[36m|[36m--[35m|[36m--[31m|[36m--[32m|[36m--[36m|[36m--[32m|[36m--[36m|[36m--[33m|[36m--[37m|[36m--[35m|[36m-----[34m|[36m--[36m|[36m--[33m|[36m--[33m|[36m--[31m|[36m--[37m|[36m--[35m|[36m--[0m 0f 84 a7 f8 ff ff    	[33mje     [0m[35m4027fd[0m <[32m_Z13calc_speed_upv[0m[35m+0x[0m[35m14d[0m>
  402f56:	[36m|[0m  [37m|[0m  [32m|[0m  [31m|[0m  [32m|[0m  [34m|[0m  [32m|[0m  [37m|[0m  [33m|[0m  [35m|[0m  [36m|[0m  [36m|[0m  [37m|[0m  [31m|[0m  [37m|[0m  [36m|[0m  [32m|[0m  [33m|[0m  [37m|[0m  [33m|[0m  [36m|[0m  [34m|[0m  [36m|[0m  [36m|[0m  [35m|[0m  [31m|[0m  [32m|[0m  [36m|[0m  [32m|[0m  [36m|[0m  [33m|[0m  [37m|[0m  [35m|[0m     [34m|[0m  [36m|[0m  [33m|[0m  [33m|[0m  [31m|[0m  [37m|[0m  [35m|[0m   4c 89 d7             	[33mmov    [0m[34mrdi[0m,[34mr10[0m
  402f59:	[36m|[0m  [37m|[0m  [32m|[0m  [31m|[0m  [32m|[0m  [34m|[0m  [32m|[0m  [37m|[0m  [33m|[0m  [35m|[0m  [36m|[0m  [36m|[0m  [37m|[0m  [31m|[0m  [37m|[0m  [36m|[0m  [32m|[0m  [33m|[0m  [37m|[0m  [33m|[0m  [36m|[0m  [34m|[0m  [36m|[0m  [36m|[0m  [35m|[0m  [31m|[0m  [32m|[0m  [36m|[0m  [32m|[0m  [36m|[0m  [33m|[0m  [37m|[0m  [35m|[0m  [35m/--[34m|[35m--[36m|[35m--[33m|[35m--[33m|[35m--[31m|[35m--[37m|[35m--[35m|[35m--[0m e9 59 01 00 00       	[33mjmp    [0m[35m4030b7[0m <[32m_Z13calc_speed_upv[0m[35m+0x[0m[35ma07[0m>
  402f5e:	[36m|[0m  [37m|[0m  [32m|[0m  [31m|[0m  [32m|[0m  [34m|[0m  [32m|[0m  [37m|[0m  [33m|[0m  [35m|[0m  [36m|[0m  [36m|[0m  [37m|[0m  [31m|[0m  [37m|[0m  [36m|[0m  [32m|[0m  [33m|[0m  [37m|[0m  [33m|[0m  [36m|[0m  [34m|[0m  [36m|[0m  [36m|[0m  [35m|[0m  [31m|[0m  [32m|[0m  [36m|[0m  [32m|[0m  [36m|[0m  [33m|[0m  [37m|[0m  [35m|[0m  [35m|[0m  [34m|[0m  [36m|[0m  [33m|[0m  [33m|[0m  [31m|[0m  [37m|[0m  [35m|[0m   66 90                	[33mxchg   [0m[34max[0m,[34max[0m
  402f60:	[36m|[0m  [37m|[0m  [32m|[0m  [31m|[0m  [32m|[0m  [34m|[0m  [32m|[0m  [37m|[0m  [33m|[0m  [35m|[0m  [36m|[0m  [36m|[0m  [37m|[0m  [31m|[0m  [37m|[0m  [36m|[0m  [32m|[0m  [33m|[0m  [37m|[0m  [33m|[0m  [36m|[0m  [34m|[0m  [36m|[0m  [36m|[0m  [35m|[0m  [31m|[0m  [32m|[0m  [36m|[0m  [32m|[0m  [36m\[36m-[36m-[33m|[36m-[36m-[37m|[36m-[36m-[35m|[36m-[36m-[35m|[36m-[36m-[34m|[36m-[36m-[36m|[36m-[36m-[33m|[36m-[36m-[33m|[36m-[36m-[31m|[36m-[36m-[37m|[36m-[36m-[35m|[36m-[36m>[0m c5 cb 5c 3d e8 20 00 	[33mvsubsd [0m[34mxmm7[0m,[34mxmm6[0m,QWORD PTR [[34mrip[0m+[35m0x20e8[0m]        # 405050 <_IO_stdin_used+0x50>
  402f67:	[36m|[0m  [37m|[0m  [32m|[0m  [31m|[0m  [32m|[0m  [34m|[0m  [32m|[0m  [37m|[0m  [33m|[0m  [35m|[0m  [36m|[0m  [36m|[0m  [37m|[0m  [31m|[0m  [37m|[0m  [36m|[0m  [32m|[0m  [33m|[0m  [37m|[0m  [33m|[0m  [36m|[0m  [34m|[0m  [36m|[0m  [36m|[0m  [35m|[0m  [31m|[0m  [32m|[0m  [36m|[0m  [32m|[0m     [33m|[0m  [37m|[0m  [35m|[0m  [35m|[0m  [34m|[0m  [36m|[0m  [33m|[0m  [33m|[0m  [31m|[0m  [37m|[0m  [35m|[0m   00 
  402f68:	[36m|[0m  [37m|[0m  [32m|[0m  [31m|[0m  [32m|[0m  [34m|[0m  [32m|[0m  [37m|[0m  [33m|[0m  [35m|[0m  [36m|[0m  [36m|[0m  [37m|[0m  [31m|[0m  [37m|[0m  [36m|[0m  [32m|[0m  [33m|[0m  [37m|[0m  [33m|[0m  [36m|[0m  [34m|[0m  [36m|[0m  [36m|[0m  [35m|[0m  [31m|[0m  [32m|[0m  [36m|[0m  [32m|[0m     [33m|[0m  [37m|[0m  [35m|[0m  [35m|[0m  [34m|[0m  [36m|[0m  [33m|[0m  [33m|[0m  [31m|[0m  [37m|[0m  [35m|[0m   c4 e1 fb 2c cf       	[33mvcvttsd2si [0m[34mrcx[0m,[34mxmm7[0m
  402f6d:	[36m|[0m  [37m|[0m  [32m|[0m  [31m|[0m  [32m|[0m  [34m|[0m  [32m|[0m  [37m|[0m  [33m|[0m  [35m|[0m  [36m|[0m  [36m|[0m  [37m|[0m  [31m|[0m  [37m|[0m  [36m|[0m  [32m|[0m  [33m|[0m  [37m|[0m  [33m|[0m  [36m|[0m  [34m|[0m  [36m|[0m  [36m|[0m  [35m|[0m  [31m|[0m  [32m|[0m  [36m|[0m  [32m|[0m     [33m|[0m  [37m|[0m  [35m|[0m  [35m|[0m  [34m|[0m  [36m|[0m  [33m|[0m  [33m|[0m  [31m|[0m  [37m|[0m  [35m|[0m   49 89 4e f8          	[33mmov    [0mQWORD PTR [[34mr14[0m[35m-[0m[35m0x8[0m],[34mrcx[0m
  402f71:	[36m|[0m  [37m|[0m  [32m|[0m  [31m|[0m  [32m|[0m  [34m|[0m  [32m|[0m  [37m|[0m  [33m|[0m  [35m|[0m  [36m|[0m  [36m|[0m  [37m|[0m  [31m|[0m  [37m|[0m  [36m|[0m  [32m|[0m  [33m|[0m  [37m|[0m  [33m|[0m  [36m|[0m  [34m|[0m  [36m|[0m  [36m|[0m  [35m|[0m  [31m|[0m  [32m|[0m  [36m|[0m  [32m|[0m     [33m|[0m  [37m|[0m  [35m|[0m  [35m|[0m  [34m|[0m  [36m|[0m  [33m|[0m  [33m|[0m  [31m|[0m  [37m|[0m  [35m|[0m   49 0f ba 7e f8 3f    	[33mbtc    [0mQWORD PTR [[34mr14[0m[35m-[0m[35m0x8[0m],[35m0x3f[0m
  402f77:	[36m|[0m  [37m|[0m  [32m|[0m  [31m|[0m  [32m|[0m  [34m|[0m  [32m|[0m  [37m|[0m  [33m|[0m  [35m|[0m  [36m|[0m  [36m|[0m  [37m|[0m  [31m|[0m  [37m|[0m  [36m|[0m  [32m|[0m  [33m|[0m  [37m|[0m  [33m|[0m  [36m|[0m  [34m|[0m  [36m|[0m  [36m|[0m  [35m|[0m  [31m|[0m  [32m|[0m  [36m|[0m  [32m\[32m-[32m-[32m-[32m-[32m-[33m|[32m-[32m-[37m|[32m-[32m-[35m|[32m-[32m-[35m|[32m-[32m-[34m|[32m-[32m-[36m|[32m-[32m-[33m|[32m-[32m-[33m|[32m-[32m-[31m|[32m-[32m-[37m|[32m-[32m-[35m|[32m-[32m-[0m e9 72 fe ff ff       	[33mjmp    [0m[35m402dee[0m <[32m_Z13calc_speed_upv[0m[35m+0x[0m[35m73e[0m>
  402f7c:	[36m|[0m  [37m|[0m  [32m|[0m  [31m|[0m  [32m|[0m  [34m|[0m  [32m|[0m  [37m|[0m  [33m|[0m  [35m|[0m  [36m|[0m  [36m|[0m  [37m|[0m  [31m|[0m  [37m|[0m  [36m|[0m  [32m|[0m  [33m|[0m  [37m|[0m  [33m|[0m  [36m|[0m  [34m|[0m  [36m|[0m  [36m|[0m  [35m|[0m  [31m|[0m  [32m|[0m  [36m|[0m        [33m|[0m  [37m|[0m  [35m|[0m  [35m|[0m  [34m|[0m  [36m|[0m  [33m|[0m  [33m|[0m  [31m|[0m  [37m|[0m  [35m|[0m   0f 1f 40 00          	[33mnop    [0mDWORD PTR [[34mrax[0m+[35m0x0[0m]
  402f80:	[36m|[0m  [37m|[0m  [32m|[0m  [31m|[0m  [32m|[0m  [34m|[0m  [32m|[0m  [37m|[0m  [33m|[0m  [35m|[0m  [36m|[0m  [36m|[0m  [37m|[0m  [31m|[0m  [37m|[0m  [36m|[0m  [32m|[0m  [33m|[0m  [37m|[0m  [33m|[0m  [36m|[0m  [34m|[0m  [36m|[0m  [36m|[0m  [35m|[0m  [31m|[0m  [32m|[0m  [36m\[36m-[36m-[36m-[36m-[36m-[36m-[36m-[36m-[33m|[36m-[36m-[37m|[36m-[36m-[35m|[36m-[36m-[35m|[36m-[36m-[34m|[36m-[36m-[36m|[36m-[36m-[33m|[36m-[36m-[33m|[36m-[36m-[31m|[36m-[36m-[37m|[36m-[36m-[35m|[36m-[36m>[0m 49 89 dd             	[33mmov    [0m[34mr13[0m,[34mrbx[0m
  402f83:	[36m|[0m  [37m|[0m  [32m|[0m  [31m|[0m  [32m|[0m  [34m|[0m  [32m|[0m  [37m|[0m  [33m|[0m  [35m|[0m  [36m|[0m  [36m|[0m  [37m|[0m  [31m|[0m  [37m|[0m  [36m|[0m  [32m|[0m  [33m|[0m  [37m|[0m  [33m|[0m  [36m|[0m  [34m|[0m  [36m|[0m  [36m|[0m  [35m|[0m  [31m|[0m  [32m|[0m           [33m|[0m  [37m|[0m  [35m|[0m  [35m|[0m  [34m|[0m  [36m|[0m  [33m|[0m  [33m|[0m  [31m|[0m  [37m|[0m  [35m|[0m   83 e3 01             	[33mand    [0m[34mebx[0m,[35m0x1[0m
  402f86:	[36m|[0m  [37m|[0m  [32m|[0m  [31m|[0m  [32m|[0m  [34m|[0m  [32m|[0m  [37m|[0m  [33m|[0m  [35m|[0m  [36m|[0m  [36m|[0m  [37m|[0m  [31m|[0m  [37m|[0m  [36m|[0m  [32m|[0m  [33m|[0m  [37m|[0m  [33m|[0m  [36m|[0m  [34m|[0m  [36m|[0m  [36m|[0m  [35m|[0m  [31m|[0m  [32m|[0m           [33m|[0m  [37m|[0m  [35m|[0m  [35m|[0m  [34m|[0m  [36m|[0m  [33m|[0m  [33m|[0m  [31m|[0m  [37m|[0m  [35m|[0m   c5 e1 57 db          	[33mvxorpd [0m[34mxmm3[0m,[34mxmm3[0m,[34mxmm3[0m
  402f8a:	[36m|[0m  [37m|[0m  [32m|[0m  [31m|[0m  [32m|[0m  [34m|[0m  [32m|[0m  [37m|[0m  [33m|[0m  [35m|[0m  [36m|[0m  [36m|[0m  [37m|[0m  [31m|[0m  [37m|[0m  [36m|[0m  [32m|[0m  [33m|[0m  [37m|[0m  [33m|[0m  [36m|[0m  [34m|[0m  [36m|[0m  [36m|[0m  [35m|[0m  [31m|[0m  [32m|[0m           [33m|[0m  [37m|[0m  [35m|[0m  [35m|[0m  [34m|[0m  [36m|[0m  [33m|[0m  [33m|[0m  [31m|[0m  [37m|[0m  [35m|[0m   49 d1 ed             	[33mshr    [0m[34mr13[0m,1
  402f8d:	[36m|[0m  [37m|[0m  [32m|[0m  [31m|[0m  [32m|[0m  [34m|[0m  [32m|[0m  [37m|[0m  [33m|[0m  [35m|[0m  [36m|[0m  [36m|[0m  [37m|[0m  [31m|[0m  [37m|[0m  [36m|[0m  [32m|[0m  [33m|[0m  [37m|[0m  [33m|[0m  [36m|[0m  [34m|[0m  [36m|[0m  [36m|[0m  [35m|[0m  [31m|[0m  [32m|[0m           [33m|[0m  [37m|[0m  [35m|[0m  [35m|[0m  [34m|[0m  [36m|[0m  [33m|[0m  [33m|[0m  [31m|[0m  [37m|[0m  [35m|[0m   4c 09 eb             	[33mor     [0m[34mrbx[0m,[34mr13[0m
  402f90:	[36m|[0m  [37m|[0m  [32m|[0m  [31m|[0m  [32m|[0m  [34m|[0m  [32m|[0m  [37m|[0m  [33m|[0m  [35m|[0m  [36m|[0m  [36m|[0m  [37m|[0m  [31m|[0m  [37m|[0m  [36m|[0m  [32m|[0m  [33m|[0m  [37m|[0m  [33m|[0m  [36m|[0m  [34m|[0m  [36m|[0m  [36m|[0m  [35m|[0m  [31m|[0m  [32m|[0m           [33m|[0m  [37m|[0m  [35m|[0m  [35m|[0m  [34m|[0m  [36m|[0m  [33m|[0m  [33m|[0m  [31m|[0m  [37m|[0m  [35m|[0m   c4 e1 e3 2a e3       	[33mvcvtsi2sd [0m[34mxmm4[0m,[34mxmm3[0m,[34mrbx[0m
  402f95:	[36m|[0m  [37m|[0m  [32m|[0m  [31m|[0m  [32m|[0m  [34m|[0m  [32m|[0m  [37m|[0m  [33m|[0m  [35m|[0m  [36m|[0m  [36m|[0m  [37m|[0m  [31m|[0m  [37m|[0m  [36m|[0m  [32m|[0m  [33m|[0m  [37m|[0m  [33m|[0m  [36m|[0m  [34m|[0m  [36m|[0m  [36m|[0m  [35m|[0m  [31m|[0m  [32m|[0m           [33m|[0m  [37m|[0m  [35m|[0m  [35m|[0m  [34m|[0m  [36m|[0m  [33m|[0m  [33m|[0m  [31m|[0m  [37m|[0m  [35m|[0m   c5 db 58 ec          	[33mvaddsd [0m[34mxmm5[0m,[34mxmm4[0m,[34mxmm4[0m
  402f99:	[36m|[0m  [37m|[0m  [32m|[0m  [31m|[0m  [32m|[0m  [34m|[0m  [32m|[0m  [37m|[0m  [33m|[0m  [35m|[0m  [36m|[0m  [36m|[0m  [37m|[0m  [31m|[0m  [37m|[0m  [36m|[0m  [32m|[0m  [33m|[0m  [37m|[0m  [33m|[0m  [36m|[0m  [34m|[0m  [36m|[0m  [36m|[0m  [35m|[0m  [31m|[0m  [32m\-----------[33m|[32m--[37m|[32m--[35m|[32m--[35m|[32m--[34m|[32m--[36m|[32m--[33m|[32m--[33m|[32m--[31m|[32m--[37m|[32m--[35m|[32m--[0m e9 31 fe ff ff       	[33mjmp    [0m[35m402dcf[0m <[32m_Z13calc_speed_upv[0m[35m+0x[0m[35m71f[0m>
  402f9e:	[36m|[0m  [37m|[0m  [32m|[0m  [31m|[0m  [32m|[0m  [34m|[0m  [32m|[0m  [37m|[0m  [33m|[0m  [35m|[0m  [36m|[0m  [36m|[0m  [37m|[0m  [31m|[0m  [37m|[0m  [36m|[0m  [32m|[0m  [33m|[0m  [37m|[0m  [33m|[0m  [36m|[0m  [34m|[0m  [36m|[0m  [36m|[0m  [35m|[0m  [31m|[0m              [33m|[0m  [37m|[0m  [35m|[0m  [35m|[0m  [34m|[0m  [36m|[0m  [33m|[0m  [33m|[0m  [31m|[0m  [37m|[0m  [35m|[0m   66 90                	[33mxchg   [0m[34max[0m,[34max[0m
  402fa0:	[36m|[0m  [37m|[0m  [32m|[0m  [31m|[0m  [32m|[0m  [34m|[0m  [32m|[0m  [37m|[0m  [33m|[0m  [35m|[0m  [36m|[0m  [36m|[0m  [37m|[0m  [31m|[0m  [37m|[0m  [36m|[0m  [32m|[0m  [33m|[0m  [37m|[0m  [33m|[0m  [36m|[0m  [34m|[0m  [36m|[0m  [36m|[0m  [35m|[0m  [31m|[0m              [33m|[0m  [37m|[0m  [35m|[0m  [35m|[0m  [34m\[34m-[34m-[36m|[34m-[34m-[33m|[34m-[34m-[33m|[34m-[34m-[31m|[34m-[34m-[37m|[34m-[34m-[35m|[34m-[34m>[0m 4d 8b 46 d8          	[33mmov    [0m[34mr8[0m,QWORD PTR [[34mr14[0m[35m-[0m[35m0x28[0m]
  402fa4:	[36m|[0m  [37m|[0m  [32m|[0m  [31m|[0m  [32m|[0m  [34m|[0m  [32m|[0m  [37m|[0m  [33m|[0m  [35m|[0m  [36m|[0m  [36m|[0m  [37m|[0m  [31m|[0m  [37m|[0m  [36m|[0m  [32m|[0m  [33m|[0m  [37m|[0m  [33m|[0m  [36m|[0m  [34m|[0m  [36m|[0m  [36m|[0m  [35m|[0m  [31m|[0m              [33m|[0m  [37m|[0m  [35m|[0m  [35m|[0m     [36m|[0m  [33m|[0m  [33m|[0m  [31m|[0m  [37m|[0m  [35m|[0m   49 b9 64 67 65 6d 6d 	[33mmovabs [0m[34mr9[0m,[35m0x61625f6d6d656764[0m
  402fab:	[36m|[0m  [37m|[0m  [32m|[0m  [31m|[0m  [32m|[0m  [34m|[0m  [32m|[0m  [37m|[0m  [33m|[0m  [35m|[0m  [36m|[0m  [36m|[0m  [37m|[0m  [31m|[0m  [37m|[0m  [36m|[0m  [32m|[0m  [33m|[0m  [37m|[0m  [33m|[0m  [36m|[0m  [34m|[0m  [36m|[0m  [36m|[0m  [35m|[0m  [31m|[0m              [33m|[0m  [37m|[0m  [35m|[0m  [35m|[0m     [36m|[0m  [33m|[0m  [33m|[0m  [31m|[0m  [37m|[0m  [35m|[0m   5f 62 61 
  402fae:	[36m|[0m  [37m|[0m  [32m|[0m  [31m|[0m  [32m|[0m  [34m|[0m  [32m|[0m  [37m|[0m  [33m|[0m  [35m|[0m  [36m|[0m  [36m|[0m  [37m|[0m  [31m|[0m  [37m|[0m  [36m|[0m  [32m|[0m  [33m|[0m  [37m|[0m  [33m|[0m  [36m|[0m  [34m|[0m  [36m|[0m  [36m|[0m  [35m|[0m  [31m|[0m              [33m|[0m  [37m|[0m  [35m|[0m  [35m|[0m     [36m|[0m  [33m|[0m  [33m|[0m  [31m|[0m  [37m|[0m  [35m|[0m   4d 39 08             	[33mcmp    [0mQWORD PTR [[34mr8[0m],[34mr9[0m
  402fb1:	[36m|[0m  [37m|[0m  [32m|[0m  [31m|[0m  [32m|[0m  [34m|[0m  [32m|[0m  [37m|[0m  [33m|[0m  [35m|[0m  [36m|[0m  [36m|[0m  [37m|[0m  [31m|[0m  [37m|[0m  [36m|[0m  [32m|[0m  [33m|[0m  [37m|[0m  [33m|[0m  [36m|[0m  [34m|[0m  [36m|[0m  [36m|[0m  [35m|[0m  [31m|[0m              [33m|[0m  [37m|[0m  [35m+--[35m|[35m-----[36m|[35m--[33m|[35m--[33m|[35m--[31m|[35m--[37m|[35m--[35m|[35m--[0m 0f 85 9d fe ff ff    	[33mjne    [0m[35m402e54[0m <[32m_Z13calc_speed_upv[0m[35m+0x[0m[35m7a4[0m>
