
/home/czg/matrix-matrix-multiply/build/src/dgemm:     file format elf64-x86-64


Disassembly of section .init:

0000000000402000 <_init>:
  402000:	    f3 0f 1e fa          	[33mendbr64[0m
  402004:	    48 83 ec 08          	[33msub    [0m[34mrsp[0m,[35m0x8[0m
  402008:	    48 8b 05 b1 4f 00 00 	[33mmov    [0m[34mrax[0m,QWORD PTR [[34mrip[0m+[35m0x4fb1[0m]        # 406fc0 <__gmon_start__@Base>
  40200f:	    48 85 c0             	[33mtest   [0m[34mrax[0m,[34mrax[0m
  402012:	[37m/[37m-[37m-[0m 74 02                	[33mje     [0m[35m402016[0m <[32m_init[0m[35m+0x[0m[35m16[0m>
  402014:	[37m|[0m   ff d0                	[33mcall   [0m[34mrax[0m
  402016:	[37m\[37m-[37m>[0m 48 83 c4 08          	[33madd    [0m[34mrsp[0m,[35m0x8[0m
  40201a:	    c3                   	[33mret[0m

Disassembly of section .plt:

0000000000402020 <__cxa_begin_catch@plt-0x10>:
  402020:	ff 35 ca 4f 00 00    	[33mpush   [0mQWORD PTR [[34mrip[0m+[35m0x4fca[0m]        # 406ff0 <_GLOBAL_OFFSET_TABLE_+0x8>
  402026:	ff 25 cc 4f 00 00    	[33mjmp    [0mQWORD PTR [[34mrip[0m+[35m0x4fcc[0m]        # 406ff8 <_GLOBAL_OFFSET_TABLE_+0x10>
  40202c:	0f 1f 40 00          	[33mnop    [0mDWORD PTR [[34mrax[0m+[35m0x0[0m]

0000000000402030 <__cxa_begin_catch@plt>:
  402030:	ff 25 ca 4f 00 00    	[33mjmp    [0mQWORD PTR [[34mrip[0m+[35m0x4fca[0m]        # 407000 <__cxa_begin_catch@CXXABI_1.3>
  402036:	68 00 00 00 00       	[33mpush   [0m[35m0x0[0m
  40203b:	e9 e0 ff ff ff       	[33mjmp    [0m[35m402020[0m <[32m_init[0m[35m+0x[0m[35m20[0m>

0000000000402040 <__cxa_allocate_exception@plt>:
  402040:	ff 25 c2 4f 00 00    	[33mjmp    [0mQWORD PTR [[34mrip[0m+[35m0x4fc2[0m]        # 407008 <__cxa_allocate_exception@CXXABI_1.3>
  402046:	68 01 00 00 00       	[33mpush   [0m[35m0x1[0m
  40204b:	e9 d0 ff ff ff       	[33mjmp    [0m[35m402020[0m <[32m_init[0m[35m+0x[0m[35m20[0m>

0000000000402050 <posix_memalign@plt>:
  402050:	ff 25 ba 4f 00 00    	[33mjmp    [0mQWORD PTR [[34mrip[0m+[35m0x4fba[0m]        # 407010 <posix_memalign@GLIBC_2.2.5>
  402056:	68 02 00 00 00       	[33mpush   [0m[35m0x2[0m
  40205b:	e9 c0 ff ff ff       	[33mjmp    [0m[35m402020[0m <[32m_init[0m[35m+0x[0m[35m20[0m>

0000000000402060 <memset@plt>:
  402060:	ff 25 b2 4f 00 00    	[33mjmp    [0mQWORD PTR [[34mrip[0m+[35m0x4fb2[0m]        # 407018 <memset@GLIBC_2.2.5>
  402066:	68 03 00 00 00       	[33mpush   [0m[35m0x3[0m
  40206b:	e9 b0 ff ff ff       	[33mjmp    [0m[35m402020[0m <[32m_init[0m[35m+0x[0m[35m20[0m>

0000000000402070 <_ZNSt9bad_allocD1Ev@plt>:
  402070:	ff 25 aa 4f 00 00    	[33mjmp    [0mQWORD PTR [[34mrip[0m+[35m0x4faa[0m]        # 407020 <_ZNSt9bad_allocD1Ev@GLIBCXX_3.4>
  402076:	68 04 00 00 00       	[33mpush   [0m[35m0x4[0m
  40207b:	e9 a0 ff ff ff       	[33mjmp    [0m[35m402020[0m <[32m_init[0m[35m+0x[0m[35m20[0m>

0000000000402080 <_ZNSo9_M_insertIyEERSoT_@plt>:
  402080:	ff 25 a2 4f 00 00    	[33mjmp    [0mQWORD PTR [[34mrip[0m+[35m0x4fa2[0m]        # 407028 <_ZNSo9_M_insertIyEERSoT_@GLIBCXX_3.4.9>
  402086:	68 05 00 00 00       	[33mpush   [0m[35m0x5[0m
  40208b:	e9 90 ff ff ff       	[33mjmp    [0m[35m402020[0m <[32m_init[0m[35m+0x[0m[35m20[0m>

0000000000402090 <memcpy@plt>:
  402090:	ff 25 9a 4f 00 00    	[33mjmp    [0mQWORD PTR [[34mrip[0m+[35m0x4f9a[0m]        # 407030 <memcpy@GLIBC_2.14>
  402096:	68 06 00 00 00       	[33mpush   [0m[35m0x6[0m
  40209b:	e9 80 ff ff ff       	[33mjmp    [0m[35m402020[0m <[32m_init[0m[35m+0x[0m[35m20[0m>

00000000004020a0 <_ZNSt13random_device7_M_finiEv@plt>:
  4020a0:	ff 25 92 4f 00 00    	[33mjmp    [0mQWORD PTR [[34mrip[0m+[35m0x4f92[0m]        # 407038 <_ZNSt13random_device7_M_finiEv@GLIBCXX_3.4.18>
  4020a6:	68 07 00 00 00       	[33mpush   [0m[35m0x7[0m
  4020ab:	e9 70 ff ff ff       	[33mjmp    [0m[35m402020[0m <[32m_init[0m[35m+0x[0m[35m20[0m>

00000000004020b0 <_Znwm@plt>:
  4020b0:	ff 25 8a 4f 00 00    	[33mjmp    [0mQWORD PTR [[34mrip[0m+[35m0x4f8a[0m]        # 407040 <_Znwm@GLIBCXX_3.4>
  4020b6:	68 08 00 00 00       	[33mpush   [0m[35m0x8[0m
  4020bb:	e9 60 ff ff ff       	[33mjmp    [0m[35m402020[0m <[32m_init[0m[35m+0x[0m[35m20[0m>

00000000004020c0 <_ZdlPvm@plt>:
  4020c0:	ff 25 82 4f 00 00    	[33mjmp    [0mQWORD PTR [[34mrip[0m+[35m0x4f82[0m]        # 407048 <_ZdlPvm@CXXABI_1.3.9>
  4020c6:	68 09 00 00 00       	[33mpush   [0m[35m0x9[0m
  4020cb:	e9 50 ff ff ff       	[33mjmp    [0m[35m402020[0m <[32m_init[0m[35m+0x[0m[35m20[0m>

00000000004020d0 <__stack_chk_fail@plt>:
  4020d0:	ff 25 7a 4f 00 00    	[33mjmp    [0mQWORD PTR [[34mrip[0m+[35m0x4f7a[0m]        # 407050 <__stack_chk_fail@GLIBC_2.4>
  4020d6:	68 0a 00 00 00       	[33mpush   [0m[35m0xa[0m
  4020db:	e9 40 ff ff ff       	[33mjmp    [0m[35m402020[0m <[32m_init[0m[35m+0x[0m[35m20[0m>

00000000004020e0 <_ZSt16__ostream_insertIcSt11char_traitsIcEERSt13basic_ostreamIT_T0_ES6_PKS3_l@plt>:
  4020e0:	ff 25 72 4f 00 00    	[33mjmp    [0mQWORD PTR [[34mrip[0m+[35m0x4f72[0m]        # 407058 <_ZSt16__ostream_insertIcSt11char_traitsIcEERSt13basic_ostreamIT_T0_ES6_PKS3_l@GLIBCXX_3.4.9>
  4020e6:	68 0b 00 00 00       	[33mpush   [0m[35m0xb[0m
  4020eb:	e9 30 ff ff ff       	[33mjmp    [0m[35m402020[0m <[32m_init[0m[35m+0x[0m[35m20[0m>

00000000004020f0 <free@plt>:
  4020f0:	ff 25 6a 4f 00 00    	[33mjmp    [0mQWORD PTR [[34mrip[0m+[35m0x4f6a[0m]        # 407060 <free@GLIBC_2.2.5>
  4020f6:	68 0c 00 00 00       	[33mpush   [0m[35m0xc[0m
  4020fb:	e9 20 ff ff ff       	[33mjmp    [0m[35m402020[0m <[32m_init[0m[35m+0x[0m[35m20[0m>

0000000000402100 <exit@plt>:
  402100:	ff 25 62 4f 00 00    	[33mjmp    [0mQWORD PTR [[34mrip[0m+[35m0x4f62[0m]        # 407068 <exit@GLIBC_2.2.5>
  402106:	68 0d 00 00 00       	[33mpush   [0m[35m0xd[0m
  40210b:	e9 10 ff ff ff       	[33mjmp    [0m[35m402020[0m <[32m_init[0m[35m+0x[0m[35m20[0m>

0000000000402110 <_ZNSt7__cxx1112basic_stringIcSt11char_traitsIcESaIcEE10_M_disposeEv@plt>:
  402110:	ff 25 5a 4f 00 00    	[33mjmp    [0mQWORD PTR [[34mrip[0m+[35m0x4f5a[0m]        # 407070 <_ZNSt7__cxx1112basic_stringIcSt11char_traitsIcESaIcEE10_M_disposeEv@GLIBCXX_3.4.21>
  402116:	68 0e 00 00 00       	[33mpush   [0m[35m0xe[0m
  40211b:	e9 00 ff ff ff       	[33mjmp    [0m[35m402020[0m <[32m_init[0m[35m+0x[0m[35m20[0m>

0000000000402120 <_ZNSt13random_device9_M_getvalEv@plt>:
  402120:	ff 25 52 4f 00 00    	[33mjmp    [0mQWORD PTR [[34mrip[0m+[35m0x4f52[0m]        # 407078 <_ZNSt13random_device9_M_getvalEv@GLIBCXX_3.4.18>
  402126:	68 0f 00 00 00       	[33mpush   [0m[35m0xf[0m
  40212b:	e9 f0 fe ff ff       	[33mjmp    [0m[35m402020[0m <[32m_init[0m[35m+0x[0m[35m20[0m>

0000000000402130 <fprintf@plt>:
  402130:	ff 25 4a 4f 00 00    	[33mjmp    [0mQWORD PTR [[34mrip[0m+[35m0x4f4a[0m]        # 407080 <fprintf@GLIBC_2.2.5>
  402136:	68 10 00 00 00       	[33mpush   [0m[35m0x10[0m
  40213b:	e9 e0 fe ff ff       	[33mjmp    [0m[35m402020[0m <[32m_init[0m[35m+0x[0m[35m20[0m>

0000000000402140 <__cxa_rethrow@plt>:
  402140:	ff 25 42 4f 00 00    	[33mjmp    [0mQWORD PTR [[34mrip[0m+[35m0x4f42[0m]        # 407088 <__cxa_rethrow@CXXABI_1.3>
  402146:	68 11 00 00 00       	[33mpush   [0m[35m0x11[0m
  40214b:	e9 d0 fe ff ff       	[33mjmp    [0m[35m402020[0m <[32m_init[0m[35m+0x[0m[35m20[0m>

0000000000402150 <_ZNSo9_M_insertIdEERSoT_@plt>:
  402150:	ff 25 3a 4f 00 00    	[33mjmp    [0mQWORD PTR [[34mrip[0m+[35m0x4f3a[0m]        # 407090 <_ZNSo9_M_insertIdEERSoT_@GLIBCXX_3.4.9>
  402156:	68 12 00 00 00       	[33mpush   [0m[35m0x12[0m
  40215b:	e9 c0 fe ff ff       	[33mjmp    [0m[35m402020[0m <[32m_init[0m[35m+0x[0m[35m20[0m>

0000000000402160 <gettimeofday@plt>:
  402160:	ff 25 32 4f 00 00    	[33mjmp    [0mQWORD PTR [[34mrip[0m+[35m0x4f32[0m]        # 407098 <gettimeofday@GLIBC_2.2.5>
  402166:	68 13 00 00 00       	[33mpush   [0m[35m0x13[0m
  40216b:	e9 b0 fe ff ff       	[33mjmp    [0m[35m402020[0m <[32m_init[0m[35m+0x[0m[35m20[0m>

0000000000402170 <__cxa_end_catch@plt>:
  402170:	ff 25 2a 4f 00 00    	[33mjmp    [0mQWORD PTR [[34mrip[0m+[35m0x4f2a[0m]        # 4070a0 <__cxa_end_catch@CXXABI_1.3>
  402176:	68 14 00 00 00       	[33mpush   [0m[35m0x14[0m
  40217b:	e9 a0 fe ff ff       	[33mjmp    [0m[35m402020[0m <[32m_init[0m[35m+0x[0m[35m20[0m>

0000000000402180 <__gxx_personality_v0@plt>:
  402180:	ff 25 22 4f 00 00    	[33mjmp    [0mQWORD PTR [[34mrip[0m+[35m0x4f22[0m]        # 4070a8 <__gxx_personality_v0@CXXABI_1.3>
  402186:	68 15 00 00 00       	[33mpush   [0m[35m0x15[0m
  40218b:	e9 90 fe ff ff       	[33mjmp    [0m[35m402020[0m <[32m_init[0m[35m+0x[0m[35m20[0m>

0000000000402190 <_ZNSt13random_device7_M_initERKNSt7__cxx1112basic_stringIcSt11char_traitsIcESaIcEEE@plt>:
  402190:	ff 25 1a 4f 00 00    	[33mjmp    [0mQWORD PTR [[34mrip[0m+[35m0x4f1a[0m]        # 4070b0 <_ZNSt13random_device7_M_initERKNSt7__cxx1112basic_stringIcSt11char_traitsIcESaIcEEE@GLIBCXX_3.4.21>
  402196:	68 16 00 00 00       	[33mpush   [0m[35m0x16[0m
  40219b:	e9 80 fe ff ff       	[33mjmp    [0m[35m402020[0m <[32m_init[0m[35m+0x[0m[35m20[0m>

00000000004021a0 <__cxa_throw@plt>:
  4021a0:	ff 25 12 4f 00 00    	[33mjmp    [0mQWORD PTR [[34mrip[0m+[35m0x4f12[0m]        # 4070b8 <__cxa_throw@CXXABI_1.3>
  4021a6:	68 17 00 00 00       	[33mpush   [0m[35m0x17[0m
  4021ab:	e9 70 fe ff ff       	[33mjmp    [0m[35m402020[0m <[32m_init[0m[35m+0x[0m[35m20[0m>

00000000004021b0 <_Unwind_Resume@plt>:
  4021b0:	ff 25 0a 4f 00 00    	[33mjmp    [0mQWORD PTR [[34mrip[0m+[35m0x4f0a[0m]        # 4070c0 <_Unwind_Resume@GCC_3.0>
  4021b6:	68 18 00 00 00       	[33mpush   [0m[35m0x18[0m
  4021bb:	e9 60 fe ff ff       	[33mjmp    [0m[35m402020[0m <[32m_init[0m[35m+0x[0m[35m20[0m>

00000000004021c0 <_ZNSt7__cxx1112basic_stringIcSt11char_traitsIcESaIcEE9_M_createERmm@plt>:
  4021c0:	ff 25 02 4f 00 00    	[33mjmp    [0mQWORD PTR [[34mrip[0m+[35m0x4f02[0m]        # 4070c8 <_ZNSt7__cxx1112basic_stringIcSt11char_traitsIcESaIcEE9_M_createERmm@GLIBCXX_3.4.21>
  4021c6:	68 19 00 00 00       	[33mpush   [0m[35m0x19[0m
  4021cb:	e9 50 fe ff ff       	[33mjmp    [0m[35m402020[0m <[32m_init[0m[35m+0x[0m[35m20[0m>

Disassembly of section .text:

00000000004021d0 <_Z13calc_speed_upv.cold>:
  4021d0:	                         48 8d 7c 24 30       	[33mlea    [0m[34mrdi[0m,[[34mrsp[0m+[35m0x30[0m]
  4021d5:	                         c5 f8 77             	[33mvzeroupper[0m
  4021d8:	                         e8 d3 1d 00 00       	[33mcall   [0m[35m403fb0[0m <[32m_ZN3MtxD1Ev[0m>
  4021dd:	                         48 8d 7c 24 20       	[33mlea    [0m[34mrdi[0m,[[34mrsp[0m+[35m0x20[0m]
  4021e2:	                         e8 c9 1d 00 00       	[33mcall   [0m[35m403fb0[0m <[32m_ZN3MtxD1Ev[0m>
  4021e7:	                         48 8d 7c 24 10       	[33mlea    [0m[34mrdi[0m,[[34mrsp[0m+[35m0x10[0m]
  4021ec:	                         e8 bf 1d 00 00       	[33mcall   [0m[35m403fb0[0m <[32m_ZN3MtxD1Ev[0m>
  4021f1:	                         4c 89 fd             	[33mmov    [0m[34mrbp[0m,[34mr15[0m
  4021f4:	                  [36m/---->[0m 48 8b 7d 08          	[33mmov    [0m[34mrdi[0m,QWORD PTR [[34mrbp[0m+[35m0x8[0m]
  4021f8:	                  [36m|[0m      48 8d 45 18          	[33mlea    [0m[34mrax[0m,[[34mrbp[0m+[35m0x18[0m]
  4021fc:	                  [36m|[0m      48 39 c7             	[33mcmp    [0m[34mrdi[0m,[34mrax[0m
  4021ff:	                  [36m|[0m  [34m/[34m-[34m-[0m 74 0d                	[33mje     [0m[35m40220e[0m <[32m_Z13calc_speed_upv.cold[0m[35m+0x[0m[35m3e[0m>
  402201:	                  [36m|[0m  [34m|[0m   48 8b 45 18          	[33mmov    [0m[34mrax[0m,QWORD PTR [[34mrbp[0m+[35m0x18[0m]
  402205:	                  [36m|[0m  [34m|[0m   48 8d 70 01          	[33mlea    [0m[34mrsi[0m,[[34mrax[0m+[35m0x1[0m]
  402209:	                  [36m|[0m  [34m|[0m   e8 b2 fe ff ff       	[33mcall   [0m[35m4020c0[0m <[32m_ZdlPvm@plt[0m>
  40220e:	                  [36m|[0m  [34m\[34m-[34m>[0m 48 83 c5 30          	[33madd    [0m[34mrbp[0m,[35m0x30[0m
  402212:	                  [36m|[0m      48 39 2c 24          	[33mcmp    [0mQWORD PTR [[34mrsp[0m],[34mrbp[0m
  402216:	                  [36m\-----[0m 75 dc                	[33mjne    [0m[35m4021f4[0m <[32m_Z13calc_speed_upv.cold[0m[35m+0x[0m[35m24[0m>
  402218:	                         be c0 00 00 00       	[33mmov    [0m[34mesi[0m,[35m0xc0[0m
  40221d:	                         4c 89 ff             	[33mmov    [0m[34mrdi[0m,[34mr15[0m
  402220:	                         e8 9b fe ff ff       	[33mcall   [0m[35m4020c0[0m <[32m_ZdlPvm@plt[0m>
  402225:	                         48 8b 84 24 88 01 00 	[33mmov    [0m[34mrax[0m,QWORD PTR [[34mrsp[0m+[35m0x188[0m]
  40222c:	                         00 
  40222d:	                         64 48 2b 04 25 28 00 	[33msub    [0m[34mrax[0m,QWORD PTR [34mfs[0m:0x28
  402234:	                         00 00 
  402236:	         [35m/--------------[0m 0f 85 99 00 00 00    	[33mjne    [0m[35m4022d5[0m <[32m_Z13calc_speed_upv.cold[0m[35m+0x[0m[35m105[0m>
  40223c:	         [35m|[0m               48 89 df             	[33mmov    [0m[34mrdi[0m,[34mrbx[0m
  40223f:	         [35m|[0m               e8 6c ff ff ff       	[33mcall   [0m[35m4021b0[0m <[32m_Unwind_Resume@plt[0m>
  402244:	         [35m|[0m               45 31 ed             	[33mxor    [0m[34mr13d[0m,[34mr13d[0m
  402247:	         [35m|[0m               48 8d 9c 24 c0 00 00 	[33mlea    [0m[34mrbx[0m,[[34mrsp[0m+[35m0xc0[0m]
  40224e:	         [35m|[0m               00 
  40224f:	         [35m|[0m               c5 f8 77             	[33mvzeroupper[0m
  402252:	      [31m/[31m-[31m-[35m|[31m-[31m-[31m-[31m-[31m-[31m-[31m-[31m-[31m-[31m-[31m-[31m-[31m-[31m>[0m 48 8d bc 24 a0 00 00 	[33mlea    [0m[34mrdi[0m,[[34mrsp[0m+[35m0xa0[0m]
  402259:	      [31m|[0m  [35m|[0m               00 
  40225a:	      [31m|[0m  [35m|[0m               e8 b1 fe ff ff       	[33mcall   [0m[35m402110[0m <[32m_ZNSt7__cxx1112basic_stringIcSt11char_traitsIcESaIcEE10_M_disposeEv@plt[0m>
  40225f:	      [31m|[0m  [35m|[0m  [37m/[37m-[37m-[37m-[37m-[37m-[37m-[37m-[37m-[37m-[37m-[37m>[0m 48 8d bc 24 80 00 00 	[33mlea    [0m[34mrdi[0m,[[34mrsp[0m+[35m0x80[0m]
  402266:	      [31m|[0m  [35m|[0m  [37m|[0m            00 
  402267:	      [31m|[0m  [35m|[0m  [37m|[0m            e8 a4 fe ff ff       	[33mcall   [0m[35m402110[0m <[32m_ZNSt7__cxx1112basic_stringIcSt11char_traitsIcESaIcEE10_M_disposeEv@plt[0m>
  40226c:	   [33m/--[31m|[33m--[35m|[33m--[37m|[33m---------->[0m 48 8d 7c 24 60       	[33mlea    [0m[34mrdi[0m,[[34mrsp[0m+[35m0x60[0m]
  402271:	   [33m|[0m  [31m|[0m  [35m|[0m  [37m|[0m            e8 9a fe ff ff       	[33mcall   [0m[35m402110[0m <[32m_ZNSt7__cxx1112basic_stringIcSt11char_traitsIcESaIcEE10_M_disposeEv@plt[0m>
  402276:	[34m/[34m-[34m-[33m|[34m-[34m-[31m|[34m-[34m-[35m|[34m-[34m-[37m|[34m-[34m-[34m-[34m-[34m-[34m-[34m-[34m-[34m-[34m-[34m>[0m 41 bc 03 00 00 00    	[33mmov    [0m[34mr12d[0m,[35m0x3[0m
  40227c:	[34m|[0m  [33m|[0m  [31m|[0m  [35m|[0m  [37m|[0m            48 8d 7c 24 40       	[33mlea    [0m[34mrdi[0m,[[34mrsp[0m+[35m0x40[0m]
  402281:	[34m|[0m  [33m|[0m  [31m|[0m  [35m|[0m  [37m|[0m            4d 29 ec             	[33msub    [0m[34mr12[0m,[34mr13[0m
  402284:	[34m|[0m  [33m|[0m  [31m|[0m  [35m|[0m  [37m|[0m            e8 87 fe ff ff       	[33mcall   [0m[35m402110[0m <[32m_ZNSt7__cxx1112basic_stringIcSt11char_traitsIcESaIcEE10_M_disposeEv@plt[0m>
  402289:	[34m|[0m  [33m|[0m  [31m|[0m  [35m|[0m  [37m|[0m            4d 6b e4 30          	[33mimul   [0m[34mr12[0m,[34mr12[0m,[35m0x30[0m
  40228d:	[34m|[0m  [33m|[0m  [31m|[0m  [35m|[0m  [37m|[0m            49 01 dc             	[33madd    [0m[34mr12[0m,[34mrbx[0m
  402290:	[34m|[0m  [33m|[0m  [31m|[0m  [35m|[0m  [37m|[0m  [34m/[34m-[34m-[34m-[34m-[34m-[34m-[34m-[34m>[0m 49 39 dc             	[33mcmp    [0m[34mr12[0m,[34mrbx[0m
  402293:	[34m|[0m  [33m|[0m  [31m|[0m  [35m|[0m  [37m|[0m  [34m|[0m  [31m/[31m-[31m-[31m-[31m-[31m-[0m 75 2b                	[33mjne    [0m[35m4022c0[0m <[32m_Z13calc_speed_upv.cold[0m[35m+0x[0m[35mf0[0m>
  402295:	[34m|[0m  [33m|[0m  [31m|[0m  [35m|[0m  [37m|[0m  [34m|[0m  [31m|[0m      48 8b 84 24 88 01 00 	[33mmov    [0m[34mrax[0m,QWORD PTR [[34mrsp[0m+[35m0x188[0m]
  40229c:	[34m|[0m  [33m|[0m  [31m|[0m  [35m|[0m  [37m|[0m  [34m|[0m  [31m|[0m      00 
  40229d:	[34m|[0m  [33m|[0m  [31m|[0m  [35m|[0m  [37m|[0m  [34m|[0m  [31m|[0m      64 48 2b 04 25 28 00 	[33msub    [0m[34mrax[0m,QWORD PTR [34mfs[0m:0x28
  4022a4:	[34m|[0m  [33m|[0m  [31m|[0m  [35m|[0m  [37m|[0m  [34m|[0m  [31m|[0m      00 00 
  4022a6:	[34m|[0m  [33m|[0m  [31m|[0m  [35m|[0m  [37m|[0m  [34m|[0m  [31m|[0m  [33m/--[0m 75 28                	[33mjne    [0m[35m4022d0[0m <[32m_Z13calc_speed_upv.cold[0m[35m+0x[0m[35m100[0m>
  4022a8:	[34m|[0m  [33m|[0m  [31m|[0m  [35m|[0m  [37m|[0m  [34m|[0m  [31m|[0m  [33m|[0m   48 89 ef             	[33mmov    [0m[34mrdi[0m,[34mrbp[0m
  4022ab:	[34m|[0m  [33m|[0m  [31m|[0m  [35m|[0m  [37m|[0m  [34m|[0m  [31m|[0m  [33m|[0m   e8 00 ff ff ff       	[33mcall   [0m[35m4021b0[0m <[32m_Unwind_Resume@plt[0m>
  4022b0:	[34m|[0m  [33m|[0m  [31m|[0m  [35m|[0m  [37m|[0m  [34m|[0m  [31m|[0m  [33m|[0m   45 31 ed             	[33mxor    [0m[34mr13d[0m,[34mr13d[0m
  4022b3:	[34m|[0m  [33m|[0m  [31m|[0m  [35m|[0m  [37m|[0m  [34m|[0m  [31m|[0m  [33m|[0m   48 8d 9c 24 c0 00 00 	[33mlea    [0m[34mrbx[0m,[[34mrsp[0m+[35m0xc0[0m]
  4022ba:	[34m|[0m  [33m|[0m  [31m|[0m  [35m|[0m  [37m|[0m  [34m|[0m  [31m|[0m  [33m|[0m   00 
  4022bb:	[34m|[0m  [33m|[0m  [31m|[0m  [35m|[0m  [37m|[0m  [34m|[0m  [31m|[0m  [33m|[0m   c5 f8 77             	[33mvzeroupper[0m
  4022be:	[34m|[0m  [33m|[0m  [31m|[0m  [35m|[0m  [37m\[37m-[37m-[34m|[37m-[37m-[31m|[37m-[37m-[33m|[37m-[37m-[0m eb 9f                	[33mjmp    [0m[35m40225f[0m <[32m_Z13calc_speed_upv.cold[0m[35m+0x[0m[35m8f[0m>
  4022c0:	[34m|[0m  [33m|[0m  [31m|[0m  [35m|[0m     [34m|[0m  [31m\[31m-[31m-[33m|[31m-[31m>[0m 49 83 ec 30          	[33msub    [0m[34mr12[0m,[35m0x30[0m
  4022c4:	[34m|[0m  [33m|[0m  [31m|[0m  [35m|[0m     [34m|[0m     [33m|[0m   49 8d 7c 24 08       	[33mlea    [0m[34mrdi[0m,[[34mr12[0m+[35m0x8[0m]
  4022c9:	[34m|[0m  [33m|[0m  [31m|[0m  [35m|[0m     [34m|[0m     [33m|[0m   e8 42 fe ff ff       	[33mcall   [0m[35m402110[0m <[32m_ZNSt7__cxx1112basic_stringIcSt11char_traitsIcESaIcEE10_M_disposeEv@plt[0m>
  4022ce:	[34m|[0m  [33m|[0m  [31m|[0m  [35m|[0m     [34m\[34m-[34m-[34m-[34m-[34m-[33m|[34m-[34m-[0m eb c0                	[33mjmp    [0m[35m402290[0m <[32m_Z13calc_speed_upv.cold[0m[35m+0x[0m[35mc0[0m>
  4022d0:	[34m|[0m  [33m|[0m  [31m|[0m  [35m|[0m           [33m\->[0m e8 fb fd ff ff       	[33mcall   [0m[35m4020d0[0m <[32m__stack_chk_fail@plt[0m>
  4022d5:	[34m|[0m  [33m|[0m  [31m|[0m  [35m\------------->[0m e8 f6 fd ff ff       	[33mcall   [0m[35m4020d0[0m <[32m__stack_chk_fail@plt[0m>
  4022da:	[34m|[0m  [33m|[0m  [31m|[0m                  4c 8d a4 24 80 01 00 	[33mlea    [0m[34mr12[0m,[[34mrsp[0m+[35m0x180[0m]
  4022e1:	[34m|[0m  [33m|[0m  [31m|[0m                  00 
  4022e2:	[34m|[0m  [33m|[0m  [31m|[0m                  c5 f8 77             	[33mvzeroupper[0m
  4022e5:	[34m|[0m  [33m|[0m  [31m|[0m     [32m/---------->[0m 48 8d 9c 24 c0 00 00 	[33mlea    [0m[34mrbx[0m,[[34mrsp[0m+[35m0xc0[0m]
  4022ec:	[34m|[0m  [33m|[0m  [31m|[0m     [32m|[0m            00 
  4022ed:	[34m|[0m  [33m|[0m  [31m|[0m     [32m|[0m        [33m/->[0m 49 83 ec 30          	[33msub    [0m[34mr12[0m,[35m0x30[0m
  4022f1:	[34m|[0m  [33m|[0m  [31m|[0m     [32m|[0m        [33m|[0m   49 8d 7c 24 08       	[33mlea    [0m[34mrdi[0m,[[34mr12[0m+[35m0x8[0m]
  4022f6:	[34m|[0m  [33m|[0m  [31m|[0m     [32m|[0m        [33m|[0m   e8 15 fe ff ff       	[33mcall   [0m[35m402110[0m <[32m_ZNSt7__cxx1112basic_stringIcSt11char_traitsIcESaIcEE10_M_disposeEv@plt[0m>
  4022fb:	[34m|[0m  [33m|[0m  [31m|[0m     [32m|[0m        [33m|[0m   49 39 dc             	[33mcmp    [0m[34mr12[0m,[34mrbx[0m
  4022fe:	[34m|[0m  [33m|[0m  [31m|[0m     [32m|[0m        [33m\--[0m 75 ed                	[33mjne    [0m[35m4022ed[0m <[32m_Z13calc_speed_upv.cold[0m[35m+0x[0m[35m11d[0m>
  402300:	[34m|[0m  [33m|[0m  [31m|[0m     [32m|[0m            41 bd 03 00 00 00    	[33mmov    [0m[34mr13d[0m,[35m0x3[0m
  402306:	[34m|[0m  [33m|[0m  [31m\[31m-[31m-[31m-[31m-[31m-[32m|[31m-[31m-[31m-[31m-[31m-[31m-[31m-[31m-[31m-[31m-[31m-[0m e9 47 ff ff ff       	[33mjmp    [0m[35m402252[0m <[32m_Z13calc_speed_upv.cold[0m[35m+0x[0m[35m82[0m>
  40230b:	[34m|[0m  [33m|[0m        [32m|[0m            49 8d 8f 90 00 00 00 	[33mlea    [0m[34mrcx[0m,[[34mr15[0m+[35m0x90[0m]
  402312:	[34m|[0m  [33m|[0m        [32m|[0m            48 89 4c 24 08       	[33mmov    [0mQWORD PTR [[34mrsp[0m+[35m0x8[0m],[34mrcx[0m
  402317:	[34m|[0m  [33m|[0m        [32m|[0m  [32m/------->[0m 48 89 c7             	[33mmov    [0m[34mrdi[0m,[34mrax[0m
  40231a:	[34m|[0m  [33m|[0m        [32m|[0m  [32m|[0m         c5 f8 77             	[33mvzeroupper[0m
  40231d:	[34m|[0m  [33m|[0m        [32m|[0m  [32m|[0m         4c 89 fb             	[33mmov    [0m[34mrbx[0m,[34mr15[0m
  402320:	[34m|[0m  [33m|[0m        [32m|[0m  [32m|[0m         e8 0b fd ff ff       	[33mcall   [0m[35m402030[0m <[32m__cxa_begin_catch@plt[0m>
  402325:	[34m|[0m  [33m|[0m        [32m|[0m  [32m|[0m     [35m/->[0m 48 8b 44 24 08       	[33mmov    [0m[34mrax[0m,QWORD PTR [[34mrsp[0m+[35m0x8[0m]
  40232a:	[34m|[0m  [33m|[0m        [32m|[0m  [32m|[0m     [35m|[0m   48 39 c3             	[33mcmp    [0m[34mrbx[0m,[34mrax[0m
  40232d:	[34m|[0m  [33m|[0m        [32m|[0m  [32m|[0m  [32m/--[35m|[32m--[0m 74 2c                	[33mje     [0m[35m40235b[0m <[32m_Z13calc_speed_upv.cold[0m[35m+0x[0m[35m18b[0m>
  40232f:	[34m|[0m  [33m|[0m        [32m|[0m  [32m|[0m  [32m|[0m  [35m|[0m   48 8d 7b 08          	[33mlea    [0m[34mrdi[0m,[[34mrbx[0m+[35m0x8[0m]
  402333:	[34m|[0m  [33m|[0m        [32m|[0m  [32m|[0m  [32m|[0m  [35m|[0m   48 83 c3 30          	[33madd    [0m[34mrbx[0m,[35m0x30[0m
  402337:	[34m|[0m  [33m|[0m        [32m|[0m  [32m|[0m  [32m|[0m  [35m|[0m   e8 d4 fd ff ff       	[33mcall   [0m[35m402110[0m <[32m_ZNSt7__cxx1112basic_stringIcSt11char_traitsIcESaIcEE10_M_disposeEv@plt[0m>
  40233c:	[34m|[0m  [33m|[0m        [32m|[0m  [32m|[0m  [32m|[0m  [35m\--[0m eb e7                	[33mjmp    [0m[35m402325[0m <[32m_Z13calc_speed_upv.cold[0m[35m+0x[0m[35m155[0m>
  40233e:	[34m|[0m  [33m|[0m        [32m|[0m  [32m|[0m  [32m|[0m      4c 89 7c 24 08       	[33mmov    [0mQWORD PTR [[34mrsp[0m+[35m0x8[0m],[34mr15[0m
  402343:	[34m|[0m  [33m|[0m        [32m|[0m  [32m+--[32m|[32m-----[0m eb d2                	[33mjmp    [0m[35m402317[0m <[32m_Z13calc_speed_upv.cold[0m[35m+0x[0m[35m147[0m>
  402345:	[34m|[0m  [33m|[0m        [32m|[0m  [32m|[0m  [32m|[0m      41 bd 02 00 00 00    	[33mmov    [0m[34mr13d[0m,[35m0x2[0m
  40234b:	[34m|[0m  [33m|[0m        [32m|[0m  [32m|[0m  [32m|[0m      48 8d 9c 24 c0 00 00 	[33mlea    [0m[34mrbx[0m,[[34mrsp[0m+[35m0xc0[0m]
  402352:	[34m|[0m  [33m|[0m        [32m|[0m  [32m|[0m  [32m|[0m      00 
  402353:	[34m|[0m  [33m|[0m        [32m|[0m  [32m|[0m  [32m|[0m      c5 f8 77             	[33mvzeroupper[0m
  402356:	[34m|[0m  [33m\--------[32m|[33m--[32m|[33m--[32m|[33m-----[0m e9 11 ff ff ff       	[33mjmp    [0m[35m40226c[0m <[32m_Z13calc_speed_upv.cold[0m[35m+0x[0m[35m9c[0m>
  40235b:	[34m|[0m           [32m|[0m  [32m|[0m  [32m\---->[0m 48 8b 84 24 88 01 00 	[33mmov    [0m[34mrax[0m,QWORD PTR [[34mrsp[0m+[35m0x188[0m]
  402362:	[34m|[0m           [32m|[0m  [32m|[0m         00 
  402363:	[34m|[0m           [32m|[0m  [32m|[0m         64 48 2b 04 25 28 00 	[33msub    [0m[34mrax[0m,QWORD PTR [34mfs[0m:0x28
  40236a:	[34m|[0m           [32m|[0m  [32m|[0m         00 00 
  40236c:	[34m|[0m           [32m|[0m  [32m|[0m     [36m/--[0m 75 05                	[33mjne    [0m[35m402373[0m <[32m_Z13calc_speed_upv.cold[0m[35m+0x[0m[35m1a3[0m>
  40236e:	[34m|[0m           [32m|[0m  [32m|[0m     [36m|[0m   e8 cd fd ff ff       	[33mcall   [0m[35m402140[0m <[32m__cxa_rethrow@plt[0m>
  402373:	[34m|[0m           [32m|[0m  [32m|[0m     [36m\->[0m e8 58 fd ff ff       	[33mcall   [0m[35m4020d0[0m <[32m__stack_chk_fail@plt[0m>
  402378:	[34m|[0m           [32m|[0m  [32m|[0m         49 8d 4f 60          	[33mlea    [0m[34mrcx[0m,[[34mr15[0m+[35m0x60[0m]
  40237c:	[34m|[0m           [32m|[0m  [32m|[0m         48 89 4c 24 08       	[33mmov    [0mQWORD PTR [[34mrsp[0m+[35m0x8[0m],[34mrcx[0m
  402381:	[34m|[0m           [32m|[0m  [32m\--------[0m eb 94                	[33mjmp    [0m[35m402317[0m <[32m_Z13calc_speed_upv.cold[0m[35m+0x[0m[35m147[0m>
  402383:	[34m|[0m           [32m|[0m            41 bd 02 00 00 00    	[33mmov    [0m[34mr13d[0m,[35m0x2[0m
  402389:	[34m|[0m           [32m|[0m            48 8d 9c 24 c0 00 00 	[33mlea    [0m[34mrbx[0m,[[34mrsp[0m+[35m0xc0[0m]
  402390:	[34m|[0m           [32m|[0m            00 
  402391:	[34m|[0m           [32m|[0m            c5 f8 77             	[33mvzeroupper[0m
  402394:	[34m\[34m-[34m-[34m-[34m-[34m-[34m-[34m-[34m-[34m-[34m-[34m-[32m|[34m-[34m-[34m-[34m-[34m-[34m-[34m-[34m-[34m-[34m-[34m-[0m e9 dd fe ff ff       	[33mjmp    [0m[35m402276[0m <[32m_Z13calc_speed_upv.cold[0m[35m+0x[0m[35ma6[0m>
  402399:	            [32m|[0m            48 89 c5             	[33mmov    [0m[34mrbp[0m,[34mrax[0m
  40239c:	            [32m|[0m            c5 f8 77             	[33mvzeroupper[0m
  40239f:	            [32m|[0m            e8 cc fd ff ff       	[33mcall   [0m[35m402170[0m <[32m__cxa_end_catch@plt[0m>
  4023a4:	            [32m|[0m            be c0 00 00 00       	[33mmov    [0m[34mesi[0m,[35m0xc0[0m
  4023a9:	            [32m|[0m            4c 89 ff             	[33mmov    [0m[34mrdi[0m,[34mr15[0m
  4023ac:	            [32m|[0m            4c 8d a4 24 80 01 00 	[33mlea    [0m[34mr12[0m,[[34mrsp[0m+[35m0x180[0m]
  4023b3:	            [32m|[0m            00 
  4023b4:	            [32m|[0m            e8 07 fd ff ff       	[33mcall   [0m[35m4020c0[0m <[32m_ZdlPvm@plt[0m>
  4023b9:	            [32m\-----------[0m e9 27 ff ff ff       	[33mjmp    [0m[35m4022e5[0m <[32m_Z13calc_speed_upv.cold[0m[35m+0x[0m[35m115[0m>

00000000004023be <_Z5checkv.cold>:
  4023be:	             90                   	[33mnop[0m
  4023bf:	             49 89 c4             	[33mmov    [0m[34mr12[0m,[34mrax[0m
  4023c2:	             c5 f8 77             	[33mvzeroupper[0m
  4023c5:	             e8 a6 fd ff ff       	[33mcall   [0m[35m402170[0m <[32m__cxa_end_catch@plt[0m>
  4023ca:	             be 50 00 00 00       	[33mmov    [0m[34mesi[0m,[35m0x50[0m
  4023cf:	             48 89 df             	[33mmov    [0m[34mrdi[0m,[34mrbx[0m
  4023d2:	             e8 e9 fc ff ff       	[33mcall   [0m[35m4020c0[0m <[32m_ZdlPvm@plt[0m>
  4023d7:	             48 8d 7d a0          	[33mlea    [0m[34mrdi[0m,[[34mrbp[0m[35m-[0m[35m0x60[0m]
  4023db:	             e8 30 fd ff ff       	[33mcall   [0m[35m402110[0m <[32m_ZNSt7__cxx1112basic_stringIcSt11char_traitsIcESaIcEE10_M_disposeEv@plt[0m>
  4023e0:	             48 8d bd 78 ff ff ff 	[33mlea    [0m[34mrdi[0m,[[34mrbp[0m-[35m0x88[0m]
  4023e7:	             e8 24 fd ff ff       	[33mcall   [0m[35m402110[0m <[32m_ZNSt7__cxx1112basic_stringIcSt11char_traitsIcESaIcEE10_M_disposeEv@plt[0m>
  4023ec:	             48 8d bd 50 ff ff ff 	[33mlea    [0m[34mrdi[0m,[[34mrbp[0m-[35m0xb0[0m]
  4023f3:	             e8 18 fd ff ff       	[33mcall   [0m[35m402110[0m <[32m_ZNSt7__cxx1112basic_stringIcSt11char_traitsIcESaIcEE10_M_disposeEv@plt[0m>
  4023f8:	             48 8d bd 30 ff ff ff 	[33mlea    [0m[34mrdi[0m,[[34mrbp[0m-[35m0xd0[0m]
  4023ff:	             e8 0c fd ff ff       	[33mcall   [0m[35m402110[0m <[32m_ZNSt7__cxx1112basic_stringIcSt11char_traitsIcESaIcEE10_M_disposeEv@plt[0m>
  402404:	             48 8b 45 c8          	[33mmov    [0m[34mrax[0m,QWORD PTR [[34mrbp[0m[35m-[0m[35m0x38[0m]
  402408:	             64 48 2b 04 25 28 00 	[33msub    [0m[34mrax[0m,QWORD PTR [34mfs[0m:0x28
  40240f:	             00 00 
  402411:	   [32m/--------[0m 75 6f                	[33mjne    [0m[35m402482[0m <[32m_Z5checkv.cold[0m[35m+0x[0m[35mc4[0m>
  402413:	   [32m|[0m         4c 89 e7             	[33mmov    [0m[34mrdi[0m,[34mr12[0m
  402416:	   [32m|[0m         e8 95 fd ff ff       	[33mcall   [0m[35m4021b0[0m <[32m_Unwind_Resume@plt[0m>
  40241b:	   [32m|[0m         49 89 de             	[33mmov    [0m[34mr14[0m,[34mrbx[0m
  40241e:	   [32m|[0m         c5 f8 77             	[33mvzeroupper[0m
  402421:	   [32m|[0m  [31m/[31m-[31m-[31m-[31m-[31m>[0m 4d 39 f4             	[33mcmp    [0m[34mr12[0m,[34mr14[0m
  402424:	[31m/--[32m|[31m--[31m|[31m-----[0m 0f 84 89 00 00 00    	[33mje     [0m[35m4024b3[0m <[32m_Z5checkv.cold[0m[35m+0x[0m[35mf5[0m>
  40242a:	[31m|[0m  [32m|[0m  [31m|[0m      49 8b 7e 08          	[33mmov    [0m[34mrdi[0m,QWORD PTR [[34mr14[0m+[35m0x8[0m]
  40242e:	[31m|[0m  [32m|[0m  [31m|[0m      49 8d 46 18          	[33mlea    [0m[34mrax[0m,[[34mr14[0m+[35m0x18[0m]
  402432:	[31m|[0m  [32m|[0m  [31m|[0m      48 39 c7             	[33mcmp    [0m[34mrdi[0m,[34mrax[0m
  402435:	[31m|[0m  [32m|[0m  [31m|[0m  [33m/[33m-[33m-[0m 74 0d                	[33mje     [0m[35m402444[0m <[32m_Z5checkv.cold[0m[35m+0x[0m[35m86[0m>
  402437:	[31m|[0m  [32m|[0m  [31m|[0m  [33m|[0m   49 8b 46 18          	[33mmov    [0m[34mrax[0m,QWORD PTR [[34mr14[0m+[35m0x18[0m]
  40243b:	[31m|[0m  [32m|[0m  [31m|[0m  [33m|[0m   48 8d 70 01          	[33mlea    [0m[34mrsi[0m,[[34mrax[0m+[35m0x1[0m]
  40243f:	[31m|[0m  [32m|[0m  [31m|[0m  [33m|[0m   e8 7c fc ff ff       	[33mcall   [0m[35m4020c0[0m <[32m_ZdlPvm@plt[0m>
  402444:	[31m|[0m  [32m|[0m  [31m|[0m  [33m\[33m-[33m>[0m 49 83 c6 28          	[33madd    [0m[34mr14[0m,[35m0x28[0m
  402448:	[31m|[0m  [32m|[0m  [31m+[31m-[31m-[31m-[31m-[31m-[0m eb d7                	[33mjmp    [0m[35m402421[0m <[32m_Z5checkv.cold[0m[35m+0x[0m[35m63[0m>
  40244a:	[31m|[0m  [32m|[0m  [31m|[0m      48 8d bd 20 ff ff ff 	[33mlea    [0m[34mrdi[0m,[[34mrbp[0m-[35m0xe0[0m]
  402451:	[31m|[0m  [32m|[0m  [31m|[0m      c5 f8 77             	[33mvzeroupper[0m
  402454:	[31m|[0m  [32m|[0m  [31m|[0m      e8 57 1b 00 00       	[33mcall   [0m[35m403fb0[0m <[32m_ZN3MtxD1Ev[0m>
  402459:	[31m|[0m  [32m|[0m  [31m|[0m      48 8d bd 10 ff ff ff 	[33mlea    [0m[34mrdi[0m,[[34mrbp[0m-[35m0xf0[0m]
  402460:	[31m|[0m  [32m|[0m  [31m|[0m      e8 4b 1b 00 00       	[33mcall   [0m[35m403fb0[0m <[32m_ZN3MtxD1Ev[0m>
  402465:	[31m|[0m  [32m|[0m  [31m|[0m      48 8d bd 00 ff ff ff 	[33mlea    [0m[34mrdi[0m,[[34mrbp[0m-[35m0x100[0m]
  40246c:	[31m|[0m  [32m|[0m  [31m|[0m      e8 3f 1b 00 00       	[33mcall   [0m[35m403fb0[0m <[32m_ZN3MtxD1Ev[0m>
  402471:	[31m|[0m  [32m|[0m  [31m|[0m      48 8d bd f0 fe ff ff 	[33mlea    [0m[34mrdi[0m,[[34mrbp[0m-[35m0x110[0m]
  402478:	[31m|[0m  [32m|[0m  [31m|[0m      49 89 de             	[33mmov    [0m[34mr14[0m,[34mrbx[0m
  40247b:	[31m|[0m  [32m|[0m  [31m|[0m      e8 30 1b 00 00       	[33mcall   [0m[35m403fb0[0m <[32m_ZN3MtxD1Ev[0m>
  402480:	[31m|[0m  [32m|[0m  [31m\[31m-[31m-[31m-[31m-[31m-[0m eb 9f                	[33mjmp    [0m[35m402421[0m <[32m_Z5checkv.cold[0m[35m+0x[0m[35m63[0m>
  402482:	[31m|[0m  [32m\------->[0m e8 49 fc ff ff       	[33mcall   [0m[35m4020d0[0m <[32m__stack_chk_fail@plt[0m>
  402487:	[31m|[0m            49 89 dd             	[33mmov    [0m[34mr13[0m,[34mrbx[0m
  40248a:	[31m|[0m     [33m/---->[0m 48 89 c7             	[33mmov    [0m[34mrdi[0m,[34mrax[0m
  40248d:	[31m|[0m     [33m|[0m      c5 f8 77             	[33mvzeroupper[0m
  402490:	[31m|[0m     [33m|[0m      49 89 dc             	[33mmov    [0m[34mr12[0m,[34mrbx[0m
  402493:	[31m|[0m     [33m|[0m      e8 98 fb ff ff       	[33mcall   [0m[35m402030[0m <[32m__cxa_begin_catch@plt[0m>
  402498:	[31m|[0m     [33m|[0m  [35m/->[0m 4d 39 ec             	[33mcmp    [0m[34mr12[0m,[34mr13[0m
  40249b:	[31m|[0m  [34m/[34m-[34m-[33m|[34m-[34m-[35m|[34m-[34m-[0m 74 3f                	[33mje     [0m[35m4024dc[0m <[32m_Z5checkv.cold[0m[35m+0x[0m[35m11e[0m>
  40249d:	[31m|[0m  [34m|[0m  [33m|[0m  [35m|[0m   49 8d 7c 24 08       	[33mlea    [0m[34mrdi[0m,[[34mr12[0m+[35m0x8[0m]
  4024a2:	[31m|[0m  [34m|[0m  [33m|[0m  [35m|[0m   49 83 c4 28          	[33madd    [0m[34mr12[0m,[35m0x28[0m
  4024a6:	[31m|[0m  [34m|[0m  [33m|[0m  [35m|[0m   e8 65 fc ff ff       	[33mcall   [0m[35m402110[0m <[32m_ZNSt7__cxx1112basic_stringIcSt11char_traitsIcESaIcEE10_M_disposeEv@plt[0m>
  4024ab:	[31m|[0m  [34m|[0m  [33m|[0m  [35m\--[0m eb eb                	[33mjmp    [0m[35m402498[0m <[32m_Z5checkv.cold[0m[35m+0x[0m[35mda[0m>
  4024ad:	[31m|[0m  [34m|[0m  [33m|[0m      4c 8d 6b 28          	[33mlea    [0m[34mr13[0m,[[34mrbx[0m+[35m0x28[0m]
  4024b1:	[31m|[0m  [34m|[0m  [33m\-----[0m eb d7                	[33mjmp    [0m[35m40248a[0m <[32m_Z5checkv.cold[0m[35m+0x[0m[35mcc[0m>
  4024b3:	[31m\--[34m|[31m------->[0m be 50 00 00 00       	[33mmov    [0m[34mesi[0m,[35m0x50[0m
  4024b8:	   [34m|[0m         48 89 df             	[33mmov    [0m[34mrdi[0m,[34mrbx[0m
  4024bb:	   [34m|[0m         e8 00 fc ff ff       	[33mcall   [0m[35m4020c0[0m <[32m_ZdlPvm@plt[0m>
  4024c0:	   [34m|[0m         48 8b 45 c8          	[33mmov    [0m[34mrax[0m,QWORD PTR [[34mrbp[0m[35m-[0m[35m0x38[0m]
  4024c4:	   [34m|[0m         64 48 2b 04 25 28 00 	[33msub    [0m[34mrax[0m,QWORD PTR [34mfs[0m:0x28
  4024cb:	   [34m|[0m         00 00 
  4024cd:	   [34m|[0m     [37m/--[0m 75 08                	[33mjne    [0m[35m4024d7[0m <[32m_Z5checkv.cold[0m[35m+0x[0m[35m119[0m>
  4024cf:	   [34m|[0m     [37m|[0m   4c 89 ef             	[33mmov    [0m[34mrdi[0m,[34mr13[0m
  4024d2:	   [34m|[0m     [37m|[0m   e8 d9 fc ff ff       	[33mcall   [0m[35m4021b0[0m <[32m_Unwind_Resume@plt[0m>
  4024d7:	   [34m|[0m     [37m\->[0m e8 f4 fb ff ff       	[33mcall   [0m[35m4020d0[0m <[32m__stack_chk_fail@plt[0m>
  4024dc:	   [34m\[34m-[34m-[34m-[34m-[34m-[34m-[34m-[34m>[0m 48 8b 45 c8          	[33mmov    [0m[34mrax[0m,QWORD PTR [[34mrbp[0m[35m-[0m[35m0x38[0m]
  4024e0:	             64 48 2b 04 25 28 00 	[33msub    [0m[34mrax[0m,QWORD PTR [34mfs[0m:0x28
  4024e7:	             00 00 
  4024e9:	         [37m/--[0m 75 05                	[33mjne    [0m[35m4024f0[0m <[32m_Z5checkv.cold[0m[35m+0x[0m[35m132[0m>
  4024eb:	         [37m|[0m   e8 50 fc ff ff       	[33mcall   [0m[35m402140[0m <[32m__cxa_rethrow@plt[0m>
  4024f0:	         [37m\->[0m e8 db fb ff ff       	[33mcall   [0m[35m4020d0[0m <[32m__stack_chk_fail@plt[0m>
  4024f5:	             90                   	[33mnop[0m

00000000004024f6 <_ZN3MtxC2Ej.cold>:
  4024f6:	    31 c0                	[33mxor    [0m[34meax[0m,[34meax[0m
  4024f8:	    48 89 03             	[33mmov    [0mQWORD PTR [[34mrbx[0m],[34mrax[0m
  4024fb:	    bf 08 00 00 00       	[33mmov    [0m[34medi[0m,[35m0x8[0m
  402500:	    e8 3b fb ff ff       	[33mcall   [0m[35m402040[0m <[32m__cxa_allocate_exception@plt[0m>
  402505:	    48 c7 00 70 6d 40 00 	[33mmov    [0mQWORD PTR [[34mrax[0m],[35m0x406d70[0m
  40250c:	    48 89 c7             	[33mmov    [0m[34mrdi[0m,[34mrax[0m
  40250f:	    48 8b 44 24 08       	[33mmov    [0m[34mrax[0m,QWORD PTR [[34mrsp[0m+[35m0x8[0m]
  402514:	    64 48 2b 04 25 28 00 	[33msub    [0m[34mrax[0m,QWORD PTR [34mfs[0m:0x28
  40251b:	    00 00 
  40251d:	[31m/--[0m 75 0f                	[33mjne    [0m[35m40252e[0m <[32m_ZN3MtxC2Ej.cold[0m[35m+0x[0m[35m38[0m>
  40251f:	[31m|[0m   ba 70 20 40 00       	[33mmov    [0m[34medx[0m,[35m0x402070[0m
  402524:	[31m|[0m   be 88 6d 40 00       	[33mmov    [0m[34mesi[0m,[35m0x406d88[0m
  402529:	[31m|[0m   e8 72 fc ff ff       	[33mcall   [0m[35m4021a0[0m <[32m__cxa_throw@plt[0m>
  40252e:	[31m\->[0m e8 9d fb ff ff       	[33mcall   [0m[35m4020d0[0m <[32m__stack_chk_fail@plt[0m>
  402533:	    90                   	[33mnop[0m

0000000000402534 <_ZN3Mtx8generateEdd.cold>:
  402534:	       48 8d 7c 24 20       	[33mlea    [0m[34mrdi[0m,[[34mrsp[0m+[35m0x20[0m]
  402539:	       c5 f8 77             	[33mvzeroupper[0m
  40253c:	       e8 5f fb ff ff       	[33mcall   [0m[35m4020a0[0m <[32m_ZNSt13random_device7_M_finiEv@plt[0m>
  402541:	       48 8b 84 24 38 27 00 	[33mmov    [0m[34mrax[0m,QWORD PTR [[34mrsp[0m+[35m0x2738[0m]
  402548:	       00 
  402549:	       64 48 2b 04 25 28 00 	[33msub    [0m[34mrax[0m,QWORD PTR [34mfs[0m:0x28
  402550:	       00 00 
  402552:	[35m/-----[0m 75 33                	[33mjne    [0m[35m402587[0m <[32m_ZN3Mtx8generateEdd.cold[0m[35m+0x[0m[35m53[0m>
  402554:	[35m|[0m      48 89 df             	[33mmov    [0m[34mrdi[0m,[34mrbx[0m
  402557:	[35m|[0m      e8 54 fc ff ff       	[33mcall   [0m[35m4021b0[0m <[32m_Unwind_Resume@plt[0m>
  40255c:	[35m|[0m      48 8d bc 24 b0 13 00 	[33mlea    [0m[34mrdi[0m,[[34mrsp[0m+[35m0x13b0[0m]
  402563:	[35m|[0m      00 
  402564:	[35m|[0m      c5 f8 77             	[33mvzeroupper[0m
  402567:	[35m|[0m      e8 a4 fb ff ff       	[33mcall   [0m[35m402110[0m <[32m_ZNSt7__cxx1112basic_stringIcSt11char_traitsIcESaIcEE10_M_disposeEv@plt[0m>
  40256c:	[35m|[0m      48 8b 84 24 38 27 00 	[33mmov    [0m[34mrax[0m,QWORD PTR [[34mrsp[0m+[35m0x2738[0m]
  402573:	[35m|[0m      00 
  402574:	[35m|[0m      64 48 2b 04 25 28 00 	[33msub    [0m[34mrax[0m,QWORD PTR [34mfs[0m:0x28
  40257b:	[35m|[0m      00 00 
  40257d:	[35m|[0m  [31m/[31m-[31m-[0m 75 0d                	[33mjne    [0m[35m40258c[0m <[32m_ZN3Mtx8generateEdd.cold[0m[35m+0x[0m[35m58[0m>
  40257f:	[35m|[0m  [31m|[0m   48 89 df             	[33mmov    [0m[34mrdi[0m,[34mrbx[0m
  402582:	[35m|[0m  [31m|[0m   e8 29 fc ff ff       	[33mcall   [0m[35m4021b0[0m <[32m_Unwind_Resume@plt[0m>
  402587:	[35m\--[31m|[35m->[0m e8 44 fb ff ff       	[33mcall   [0m[35m4020d0[0m <[32m__stack_chk_fail@plt[0m>
  40258c:	   [31m\[31m-[31m>[0m e8 3f fb ff ff       	[33mcall   [0m[35m4020d0[0m <[32m__stack_chk_fail@plt[0m>
  402591:	       66 2e 0f 1f 84 00 00 	[33mcs [0m[33mnop [0mWORD PTR [[34mrax[0m+[34mrax[0m*[35m1[0m+[35m0x0[0m]
  402598:	       00 00 00 
  40259b:	       0f 1f 44 00 00       	[33mnop    [0mDWORD PTR [[34mrax[0m+[34mrax[0m*[35m1[0m+[35m0x0[0m]

00000000004025a0 <main>:
  4025a0:	48 83 ec 08          	[33msub    [0m[34mrsp[0m,[35m0x8[0m
  4025a4:	e8 d7 0b 00 00       	[33mcall   [0m[35m403180[0m <[32m_Z5checkv[0m>
  4025a9:	e8 02 01 00 00       	[33mcall   [0m[35m4026b0[0m <[32m_Z13calc_speed_upv[0m>
  4025ae:	31 c0                	[33mxor    [0m[34meax[0m,[34meax[0m
  4025b0:	48 83 c4 08          	[33madd    [0m[34mrsp[0m,[35m0x8[0m
  4025b4:	c3                   	[33mret[0m
  4025b5:	66 2e 0f 1f 84 00 00 	[33mcs [0m[33mnop [0mWORD PTR [[34mrax[0m+[34mrax[0m*[35m1[0m+[35m0x0[0m]
  4025bc:	00 00 00 
  4025bf:	90                   	[33mnop[0m

00000000004025c0 <_start>:
  4025c0:	f3 0f 1e fa          	[33mendbr64[0m
  4025c4:	31 ed                	[33mxor    [0m[34mebp[0m,[34mebp[0m
  4025c6:	49 89 d1             	[33mmov    [0m[34mr9[0m,[34mrdx[0m
  4025c9:	5e                   	[33mpop    [0m[34mrsi[0m
  4025ca:	48 89 e2             	[33mmov    [0m[34mrdx[0m,[34mrsp[0m
  4025cd:	48 83 e4 f0          	[33mand    [0m[34mrsp[0m,[35m0xfffffffffffffff0[0m
  4025d1:	50                   	[33mpush   [0m[34mrax[0m
  4025d2:	54                   	[33mpush   [0m[34mrsp[0m
  4025d3:	45 31 c0             	[33mxor    [0m[34mr8d[0m,[34mr8d[0m
  4025d6:	31 c9                	[33mxor    [0m[34mecx[0m,[34mecx[0m
  4025d8:	48 c7 c7 a0 25 40 00 	[33mmov    [0m[34mrdi[0m,[35m0x4025a0[0m
  4025df:	ff 15 cb 49 00 00    	[33mcall   [0mQWORD PTR [[34mrip[0m+[35m0x49cb[0m]        # 406fb0 <__libc_start_main@GLIBC_2.34>
  4025e5:	f4                   	[33mhlt[0m
  4025e6:	66 2e 0f 1f 84 00 00 	[33mcs [0m[33mnop [0mWORD PTR [[34mrax[0m+[34mrax[0m*[35m1[0m+[35m0x0[0m]
  4025ed:	00 00 00 

00000000004025f0 <_dl_relocate_static_pie>:
  4025f0:	          f3 0f 1e fa          	[33mendbr64[0m
  4025f4:	          c3                   	[33mret[0m
  4025f5:	          66 2e 0f 1f 84 00 00 	[33mcs [0m[33mnop [0mWORD PTR [[34mrax[0m+[34mrax[0m*[35m1[0m+[35m0x0[0m]
  4025fc:	          00 00 00 
  4025ff:	          90                   	[33mnop[0m
  402600:	[35m/------->[0m b8 e0 70 40 00       	[33mmov    [0m[34meax[0m,[35m0x4070e0[0m
  402605:	[35m|[0m         48 3d e0 70 40 00    	[33mcmp    [0m[34mrax[0m,[35m0x4070e0[0m
  40260b:	[35m|[0m     [36m/--[0m 74 13                	[33mje     [0m[35m402620[0m <[32m_dl_relocate_static_pie[0m[35m+0x[0m[35m30[0m>
  40260d:	[35m|[0m     [36m|[0m   48 8b 05 a4 49 00 00 	[33mmov    [0m[34mrax[0m,QWORD PTR [[34mrip[0m+[35m0x49a4[0m]        # 406fb8 <_ITM_deregisterTMCloneTable@Base>
  402614:	[35m|[0m     [36m|[0m   48 85 c0             	[33mtest   [0m[34mrax[0m,[34mrax[0m
  402617:	[35m|[0m     [36m+--[0m 74 07                	[33mje     [0m[35m402620[0m <[32m_dl_relocate_static_pie[0m[35m+0x[0m[35m30[0m>
  402619:	[35m|[0m     [36m|[0m   bf e0 70 40 00       	[33mmov    [0m[34medi[0m,[35m0x4070e0[0m
  40261e:	[35m|[0m     [36m|[0m   ff e0                	[33mjmp    [0m[34mrax[0m
  402620:	[35m|[0m     [36m\->[0m c3                   	[33mret[0m
  402621:	[35m|[0m         66 66 2e 0f 1f 84 00 	[33mdata16 [0m[33mcs [0m[33mnop [0mWORD PTR [[34mrax[0m+[34mrax[0m*[35m1[0m+[35m0x0[0m]
  402628:	[35m|[0m         00 00 00 00 
  40262c:	[35m|[0m         0f 1f 40 00          	[33mnop    [0mDWORD PTR [[34mrax[0m+[35m0x0[0m]
  402630:	[35m|[0m  [32m/---->[0m be e0 70 40 00       	[33mmov    [0m[34mesi[0m,[35m0x4070e0[0m
  402635:	[35m|[0m  [32m|[0m      48 81 ee e0 70 40 00 	[33msub    [0m[34mrsi[0m,[35m0x4070e0[0m
  40263c:	[35m|[0m  [32m|[0m      48 89 f0             	[33mmov    [0m[34mrax[0m,[34mrsi[0m
  40263f:	[35m|[0m  [32m|[0m      48 c1 ee 3f          	[33mshr    [0m[34mrsi[0m,[35m0x3f[0m
  402643:	[35m|[0m  [32m|[0m      48 c1 f8 03          	[33msar    [0m[34mrax[0m,[35m0x3[0m
  402647:	[35m|[0m  [32m|[0m      48 01 c6             	[33madd    [0m[34mrsi[0m,[34mrax[0m
  40264a:	[35m|[0m  [32m|[0m      48 d1 fe             	[33msar    [0m[34mrsi[0m,1
  40264d:	[35m|[0m  [32m|[0m  [35m/[35m-[35m-[0m 74 19                	[33mje     [0m[35m402668[0m <[32m_dl_relocate_static_pie[0m[35m+0x[0m[35m78[0m>
  40264f:	[35m|[0m  [32m|[0m  [35m|[0m   48 8b 05 72 49 00 00 	[33mmov    [0m[34mrax[0m,QWORD PTR [[34mrip[0m+[35m0x4972[0m]        # 406fc8 <_ITM_registerTMCloneTable@Base>
  402656:	[35m|[0m  [32m|[0m  [35m|[0m   48 85 c0             	[33mtest   [0m[34mrax[0m,[34mrax[0m
  402659:	[35m|[0m  [32m|[0m  [35m+[35m-[35m-[0m 74 0d                	[33mje     [0m[35m402668[0m <[32m_dl_relocate_static_pie[0m[35m+0x[0m[35m78[0m>
  40265b:	[35m|[0m  [32m|[0m  [35m|[0m   bf e0 70 40 00       	[33mmov    [0m[34medi[0m,[35m0x4070e0[0m
  402660:	[35m|[0m  [32m|[0m  [35m|[0m   ff e0                	[33mjmp    [0m[34mrax[0m
  402662:	[35m|[0m  [32m|[0m  [35m|[0m   66 0f 1f 44 00 00    	[33mnop    [0mWORD PTR [[34mrax[0m+[34mrax[0m*[35m1[0m+[35m0x0[0m]
  402668:	[35m|[0m  [32m|[0m  [35m\[35m-[35m>[0m c3                   	[33mret[0m
  402669:	[35m|[0m  [32m|[0m      0f 1f 80 00 00 00 00 	[33mnop    [0mDWORD PTR [[34mrax[0m+[35m0x0[0m]
  402670:	[35m|[0m  [32m|[0m      f3 0f 1e fa          	[33mendbr64[0m
  402674:	[35m|[0m  [32m|[0m      80 3d ad 4b 00 00 00 	[33mcmp    [0mBYTE PTR [[34mrip[0m+[35m0x4bad[0m],[35m0x0[0m        # 407228 <stderr@GLIBC_2.2.5+0x8>
  40267b:	[35m|[0m  [32m|[0m  [33m/--[0m 75 13                	[33mjne    [0m[35m402690[0m <[32m_dl_relocate_static_pie[0m[35m+0x[0m[35ma0[0m>
  40267d:	[35m|[0m  [32m|[0m  [33m|[0m   55                   	[33mpush   [0m[34mrbp[0m
  40267e:	[35m|[0m  [32m|[0m  [33m|[0m   48 89 e5             	[33mmov    [0m[34mrbp[0m,[34mrsp[0m
  402681:	[35m\--[32m|[35m--[33m|[35m--[0m e8 7a ff ff ff       	[33mcall   [0m[35m402600[0m <[32m_dl_relocate_static_pie[0m[35m+0x[0m[35m10[0m>
  402686:	   [32m|[0m  [33m|[0m   c6 05 9b 4b 00 00 01 	[33mmov    [0mBYTE PTR [[34mrip[0m+[35m0x4b9b[0m],[35m0x1[0m        # 407228 <stderr@GLIBC_2.2.5+0x8>
  40268d:	   [32m|[0m  [33m|[0m   5d                   	[33mpop    [0m[34mrbp[0m
  40268e:	   [32m|[0m  [33m|[0m   c3                   	[33mret[0m
  40268f:	   [32m|[0m  [33m|[0m   90                   	[33mnop[0m
  402690:	   [32m|[0m  [33m\->[0m c3                   	[33mret[0m
  402691:	   [32m|[0m      66 66 2e 0f 1f 84 00 	[33mdata16 [0m[33mcs [0m[33mnop [0mWORD PTR [[34mrax[0m+[34mrax[0m*[35m1[0m+[35m0x0[0m]
  402698:	   [32m|[0m      00 00 00 00 
  40269c:	   [32m|[0m      0f 1f 40 00          	[33mnop    [0mDWORD PTR [[34mrax[0m+[35m0x0[0m]
  4026a0:	   [32m|[0m      f3 0f 1e fa          	[33mendbr64[0m
  4026a4:	   [32m\-----[0m eb 8a                	[33mjmp    [0m[35m402630[0m <[32m_dl_relocate_static_pie[0m[35m+0x[0m[35m40[0m>
  4026a6:	          66 2e 0f 1f 84 00 00 	[33mcs [0m[33mnop [0mWORD PTR [[34mrax[0m+[34mrax[0m*[35m1[0m+[35m0x0[0m]
  4026ad:	          00 00 00 

00000000004026b0 <_Z13calc_speed_upv>:
  4026b0:	                                                                                                                            41 57                	[33mpush   [0m[34mr15[0m
  4026b2:	                                                                                                                            41 56                	[33mpush   [0m[34mr14[0m
  4026b4:	                                                                                                                            41 55                	[33mpush   [0m[34mr13[0m
  4026b6:	                                                                                                                            31 d2                	[33mxor    [0m[34medx[0m,[34medx[0m
  4026b8:	                                                                                                                            41 54                	[33mpush   [0m[34mr12[0m
  4026ba:	                                                                                                                            55                   	[33mpush   [0m[34mrbp[0m
  4026bb:	                                                                                                                            53                   	[33mpush   [0m[34mrbx[0m
  4026bc:	                                                                                                                            48 81 ec 98 01 00 00 	[33msub    [0m[34mrsp[0m,[35m0x198[0m
  4026c3:	                                                                                                                            64 48 8b 04 25 28 00 	[33mmov    [0m[34mrax[0m,QWORD PTR [34mfs[0m:0x28
  4026ca:	                                                                                                                            00 00 
  4026cc:	                                                                                                                            48 89 84 24 88 01 00 	[33mmov    [0mQWORD PTR [[34mrsp[0m+[35m0x188[0m],[34mrax[0m
  4026d3:	                                                                                                                            00 
  4026d4:	                                                                                                                            31 c0                	[33mxor    [0m[34meax[0m,[34meax[0m
  4026d6:	                                                                                                                            48 b8 64 67 65 6d 6d 	[33mmovabs [0m[34mrax[0m,[35m0x61625f6d6d656764[0m
  4026dd:	                                                                                                                            5f 62 61 
  4026e0:	                                                                                                                            4c 8d 74 24 50       	[33mlea    [0m[34mr14[0m,[[34mrsp[0m+[35m0x50[0m]
  4026e5:	                                                                                                                            48 8d 74 24 30       	[33mlea    [0m[34mrsi[0m,[[34mrsp[0m+[35m0x30[0m]
  4026ea:	                                                                                                                            48 8d 7c 24 60       	[33mlea    [0m[34mrdi[0m,[[34mrsp[0m+[35m0x60[0m]
  4026ef:	                                                                                                                            48 89 44 24 50       	[33mmov    [0mQWORD PTR [[34mrsp[0m+[35m0x50[0m],[34mrax[0m
  4026f4:	                                                                                                                            48 8d 84 24 d8 00 00 	[33mlea    [0m[34mrax[0m,[[34mrsp[0m+[35m0xd8[0m]
  4026fb:	                                                                                                                            00 
  4026fc:	                                                                                                                            c7 44 24 57 61 73 69 	[33mmov    [0mDWORD PTR [[34mrsp[0m+[35m0x57[0m],[35m0x63697361[0m
  402703:	                                                                                                                            63 
  402704:	                                                                                                                            4c 89 74 24 40       	[33mmov    [0mQWORD PTR [[34mrsp[0m+[35m0x40[0m],[34mr14[0m
  402709:	                                                                                                                            48 89 84 24 c8 00 00 	[33mmov    [0mQWORD PTR [[34mrsp[0m+[35m0xc8[0m],[34mrax[0m
  402710:	                                                                                                                            00 
  402711:	                                                                                                                            48 c7 44 24 48 0b 00 	[33mmov    [0mQWORD PTR [[34mrsp[0m+[35m0x48[0m],[35m0xb[0m
  402718:	                                                                                                                            00 00 
  40271a:	                                                                                                                            c6 44 24 5b 00       	[33mmov    [0mBYTE PTR [[34mrsp[0m+[35m0x5b[0m],[35m0x0[0m
  40271f:	                                                                                                                            48 c7 84 24 c0 00 00 	[33mmov    [0mQWORD PTR [[34mrsp[0m+[35m0xc0[0m],[35m0x403a40[0m
  402726:	                                                                                                                            00 40 3a 40 00 
  40272b:	                                                                                                                            48 c7 84 24 d0 00 00 	[33mmov    [0mQWORD PTR [[34mrsp[0m+[35m0xd0[0m],[35m0xb[0m
  402732:	                                                                                                                            00 0b 00 00 00 
  402737:	                                                                                                                            c6 84 24 e3 00 00 00 	[33mmov    [0mBYTE PTR [[34mrsp[0m+[35m0xe3[0m],[35m0x0[0m
  40273e:	                                                                                                                            00 
  40273f:	                                                                                                                            48 c7 84 24 e8 00 00 	[33mmov    [0mQWORD PTR [[34mrsp[0m+[35m0xe8[0m],[35m0x0[0m
  402746:	                                                                                                                            00 00 00 00 00 
  40274b:	                                                                                                                            48 c7 44 24 30 13 00 	[33mmov    [0mQWORD PTR [[34mrsp[0m+[35m0x30[0m],[35m0x13[0m
  402752:	                                                                                                                            00 00 
  402754:	                                                                                                                            48 8b 44 24 50       	[33mmov    [0m[34mrax[0m,QWORD PTR [[34mrsp[0m+[35m0x50[0m]
  402759:	                                                                                                                            48 89 84 24 d8 00 00 	[33mmov    [0mQWORD PTR [[34mrsp[0m+[35m0xd8[0m],[34mrax[0m
  402760:	                                                                                                                            00 
  402761:	                                                                                                                            48 8d 44 24 70       	[33mlea    [0m[34mrax[0m,[[34mrsp[0m+[35m0x70[0m]
  402766:	                                                                                                                            c7 84 24 df 00 00 00 	[33mmov    [0mDWORD PTR [[34mrsp[0m+[35m0xdf[0m],[35m0x63697361[0m
  40276d:	                                                                                                                            61 73 69 63 
  402771:	                                                                                                                            48 89 44 24 60       	[33mmov    [0mQWORD PTR [[34mrsp[0m+[35m0x60[0m],[34mrax[0m
  402776:	                                                                                                                            e8 45 fa ff ff       	[33mcall   [0m[35m4021c0[0m <[32m_ZNSt7__cxx1112basic_stringIcSt11char_traitsIcESaIcEE9_M_createERmm@plt[0m>
  40277b:	                                                                                                                            c5 f9 6f 05 dd 28 00 	[33mvmovdqa [0m[34mxmm0[0m,XMMWORD PTR [[34mrip[0m+[35m0x28dd[0m]        # 405060 <_IO_stdin_used+0x60>
  402782:	                                                                                                                            00 
  402783:	                                                                                                                            48 89 44 24 60       	[33mmov    [0mQWORD PTR [[34mrsp[0m+[35m0x60[0m],[34mrax[0m
  402788:	                                                                                                                            48 8b 54 24 30       	[33mmov    [0m[34mrdx[0m,QWORD PTR [[34mrsp[0m+[35m0x30[0m]
  40278d:	                                                                                                                            48 89 54 24 70       	[33mmov    [0mQWORD PTR [[34mrsp[0m+[35m0x70[0m],[34mrdx[0m
  402792:	                                                                                                                            c5 fa 7f 00          	[33mvmovdqu [0mXMMWORD PTR [[34mrax[0m],[34mxmm0[0m
  402796:	                                                                                                                            c7 40 0f 63 6b 65 64 	[33mmov    [0mDWORD PTR [[34mrax[0m+[35m0xf[0m],[35m0x64656b63[0m
  40279d:	                                                                                                                            48 8b 54 24 60       	[33mmov    [0m[34mrdx[0m,QWORD PTR [[34mrsp[0m+[35m0x60[0m]
  4027a2:	                                                                                                                            48 8b 44 24 30       	[33mmov    [0m[34mrax[0m,QWORD PTR [[34mrsp[0m+[35m0x30[0m]
  4027a7:	                                                                                                                            48 89 44 24 68       	[33mmov    [0mQWORD PTR [[34mrsp[0m+[35m0x68[0m],[34mrax[0m
  4027ac:	                                                                                                                            c6 04 02 00          	[33mmov    [0mBYTE PTR [[34mrdx[0m+[34mrax[0m*[35m1[0m],[35m0x0[0m
  4027b0:	                                                                                                                            48 8b 5c 24 68       	[33mmov    [0m[34mrbx[0m,QWORD PTR [[34mrsp[0m+[35m0x68[0m]
  4027b5:	                                                                                                                            48 8d 84 24 08 01 00 	[33mlea    [0m[34mrax[0m,[[34mrsp[0m+[35m0x108[0m]
  4027bc:	                                                                                                                            00 
  4027bd:	                                                                                                                            48 c7 84 24 f0 00 00 	[33mmov    [0mQWORD PTR [[34mrsp[0m+[35m0xf0[0m],[35m0x403ae0[0m
  4027c4:	                                                                                                                            00 e0 3a 40 00 
  4027c9:	                                                                                                                            48 89 84 24 f8 00 00 	[33mmov    [0mQWORD PTR [[34mrsp[0m+[35m0xf8[0m],[34mrax[0m
  4027d0:	                                                                                                                            00 
  4027d1:	                                                                                                                            4c 8b 64 24 60       	[33mmov    [0m[34mr12[0m,QWORD PTR [[34mrsp[0m+[35m0x60[0m]
  4027d6:	                                                                                                                            48 89 5c 24 30       	[33mmov    [0mQWORD PTR [[34mrsp[0m+[35m0x30[0m],[34mrbx[0m
  4027db:	                                                                                                                            48 83 fb 0f          	[33mcmp    [0m[34mrbx[0m,[35m0xf[0m
  4027df:	   [36m/-----------------------------------------------------------------------------------------------------------------------[0m 0f 87 b5 07 00 00    	[33mja     [0m[35m402f9a[0m <[32m_Z13calc_speed_upv[0m[35m+0x[0m[35m8ea[0m>
  4027e5:	   [36m|[0m                                                                                                                        48 83 fb 01          	[33mcmp    [0m[34mrbx[0m,[35m0x1[0m
  4027e9:	   [36m|[0m                                                                                      [35m/--------------------------------[0m 0f 85 5e 06 00 00    	[33mjne    [0m[35m402e4d[0m <[32m_Z13calc_speed_upv[0m[35m+0x[0m[35m79d[0m>
  4027ef:	   [36m|[0m                                                                                      [35m|[0m                                 41 0f b6 14 24       	[33mmovzx  [0m[34medx[0m,BYTE PTR [[34mr12[0m]
  4027f4:	   [36m|[0m                                                                                      [35m|[0m                                 88 94 24 08 01 00 00 	[33mmov    [0mBYTE PTR [[34mrsp[0m+[35m0x108[0m],[34mdl[0m
  4027fb:	[37m/--[36m|[37m--------------------------------------------------------------------------------------[35m|[37m------------------------------->[0m 48 8d 94 24 38 01 00 	[33mlea    [0m[34mrdx[0m,[[34mrsp[0m+[35m0x138[0m]
  402802:	[37m|[0m  [36m|[0m                                                                                      [35m|[0m                                 00 
  402803:	[37m|[0m  [36m|[0m                                                                                      [35m|[0m                                 48 89 9c 24 00 01 00 	[33mmov    [0mQWORD PTR [[34mrsp[0m+[35m0x100[0m],[34mrbx[0m
  40280a:	[37m|[0m  [36m|[0m                                                                                      [35m|[0m                                 00 
  40280b:	[37m|[0m  [36m|[0m                                                                                      [35m|[0m                                 4c 8d a4 24 90 00 00 	[33mlea    [0m[34mr12[0m,[[34mrsp[0m+[35m0x90[0m]
  402812:	[37m|[0m  [36m|[0m                                                                                      [35m|[0m                                 00 
  402813:	[37m|[0m  [36m|[0m                                                                                      [35m|[0m                                 c6 04 18 00          	[33mmov    [0mBYTE PTR [[34mrax[0m+[34mrbx[0m*[35m1[0m],[35m0x0[0m
  402817:	[37m|[0m  [36m|[0m                                                                                      [35m|[0m                                 4c 8d ac 24 b0 00 00 	[33mlea    [0m[34mr13[0m,[[34mrsp[0m+[35m0xb0[0m]
  40281e:	[37m|[0m  [36m|[0m                                                                                      [35m|[0m                                 00 
  40281f:	[37m|[0m  [36m|[0m                                                                                      [35m|[0m                                 48 b8 64 67 65 6d 6d 	[33mmovabs [0m[34mrax[0m,[35m0x76615f6d6d656764[0m
  402826:	[37m|[0m  [36m|[0m                                                                                      [35m|[0m                                 5f 61 76 
  402829:	[37m|[0m  [36m|[0m                                                                                      [35m|[0m                                 48 89 94 24 28 01 00 	[33mmov    [0mQWORD PTR [[34mrsp[0m+[35m0x128[0m],[34mrdx[0m
  402830:	[37m|[0m  [36m|[0m                                                                                      [35m|[0m                                 00 
  402831:	[37m|[0m  [36m|[0m                                                                                      [35m|[0m                                 48 8d 74 24 30       	[33mlea    [0m[34mrsi[0m,[[34mrsp[0m+[35m0x30[0m]
  402836:	[37m|[0m  [36m|[0m                                                                                      [35m|[0m                                 31 d2                	[33mxor    [0m[34medx[0m,[34medx[0m
  402838:	[37m|[0m  [36m|[0m                                                                                      [35m|[0m                                 48 8d bc 24 a0 00 00 	[33mlea    [0m[34mrdi[0m,[[34mrsp[0m+[35m0xa0[0m]
  40283f:	[37m|[0m  [36m|[0m                                                                                      [35m|[0m                                 00 
  402840:	[37m|[0m  [36m|[0m                                                                                      [35m|[0m                                 48 c7 84 24 18 01 00 	[33mmov    [0mQWORD PTR [[34mrsp[0m+[35m0x118[0m],[35m0x0[0m
  402847:	[37m|[0m  [36m|[0m                                                                                      [35m|[0m                                 00 00 00 00 00 
  40284c:	[37m|[0m  [36m|[0m                                                                                      [35m|[0m                                 4c 89 a4 24 80 00 00 	[33mmov    [0mQWORD PTR [[34mrsp[0m+[35m0x80[0m],[34mr12[0m
  402853:	[37m|[0m  [36m|[0m                                                                                      [35m|[0m                                 00 
  402854:	[37m|[0m  [36m|[0m                                                                                      [35m|[0m                                 48 89 84 24 90 00 00 	[33mmov    [0mQWORD PTR [[34mrsp[0m+[35m0x90[0m],[34mrax[0m
  40285b:	[37m|[0m  [36m|[0m                                                                                      [35m|[0m                                 00 
  40285c:	[37m|[0m  [36m|[0m                                                                                      [35m|[0m                                 c7 84 24 98 00 00 00 	[33mmov    [0mDWORD PTR [[34mrsp[0m+[35m0x98[0m],[35m0x36353278[0m
  402863:	[37m|[0m  [36m|[0m                                                                                      [35m|[0m                                 78 32 35 36 
  402867:	[37m|[0m  [36m|[0m                                                                                      [35m|[0m                                 48 c7 84 24 88 00 00 	[33mmov    [0mQWORD PTR [[34mrsp[0m+[35m0x88[0m],[35m0xc[0m
  40286e:	[37m|[0m  [36m|[0m                                                                                      [35m|[0m                                 00 0c 00 00 00 
  402873:	[37m|[0m  [36m|[0m                                                                                      [35m|[0m                                 c6 84 24 9c 00 00 00 	[33mmov    [0mBYTE PTR [[34mrsp[0m+[35m0x9c[0m],[35m0x0[0m
  40287a:	[37m|[0m  [36m|[0m                                                                                      [35m|[0m                                 00 
  40287b:	[37m|[0m  [36m|[0m                                                                                      [35m|[0m                                 48 c7 84 24 20 01 00 	[33mmov    [0mQWORD PTR [[34mrsp[0m+[35m0x120[0m],[35m0x403800[0m
  402882:	[37m|[0m  [36m|[0m                                                                                      [35m|[0m                                 00 00 38 40 00 
  402887:	[37m|[0m  [36m|[0m                                                                                      [35m|[0m                                 48 89 84 24 38 01 00 	[33mmov    [0mQWORD PTR [[34mrsp[0m+[35m0x138[0m],[34mrax[0m
  40288e:	[37m|[0m  [36m|[0m                                                                                      [35m|[0m                                 00 
  40288f:	[37m|[0m  [36m|[0m                                                                                      [35m|[0m                                 c7 84 24 40 01 00 00 	[33mmov    [0mDWORD PTR [[34mrsp[0m+[35m0x140[0m],[35m0x36353278[0m
  402896:	[37m|[0m  [36m|[0m                                                                                      [35m|[0m                                 78 32 35 36 
  40289a:	[37m|[0m  [36m|[0m                                                                                      [35m|[0m                                 48 c7 84 24 30 01 00 	[33mmov    [0mQWORD PTR [[34mrsp[0m+[35m0x130[0m],[35m0xc[0m
  4028a1:	[37m|[0m  [36m|[0m                                                                                      [35m|[0m                                 00 0c 00 00 00 
  4028a6:	[37m|[0m  [36m|[0m                                                                                      [35m|[0m                                 c6 84 24 44 01 00 00 	[33mmov    [0mBYTE PTR [[34mrsp[0m+[35m0x144[0m],[35m0x0[0m
  4028ad:	[37m|[0m  [36m|[0m                                                                                      [35m|[0m                                 00 
  4028ae:	[37m|[0m  [36m|[0m                                                                                      [35m|[0m                                 48 c7 84 24 48 01 00 	[33mmov    [0mQWORD PTR [[34mrsp[0m+[35m0x148[0m],[35m0x0[0m
  4028b5:	[37m|[0m  [36m|[0m                                                                                      [35m|[0m                                 00 00 00 00 00 
  4028ba:	[37m|[0m  [36m|[0m                                                                                      [35m|[0m                                 4c 89 ac 24 a0 00 00 	[33mmov    [0mQWORD PTR [[34mrsp[0m+[35m0xa0[0m],[34mr13[0m
  4028c1:	[37m|[0m  [36m|[0m                                                                                      [35m|[0m                                 00 
  4028c2:	[37m|[0m  [36m|[0m                                                                                      [35m|[0m                                 48 c7 44 24 30 15 00 	[33mmov    [0mQWORD PTR [[34mrsp[0m+[35m0x30[0m],[35m0x15[0m
  4028c9:	[37m|[0m  [36m|[0m                                                                                      [35m|[0m                                 00 00 
  4028cb:	[37m|[0m  [36m|[0m                                                                                      [35m|[0m                                 e8 f0 f8 ff ff       	[33mcall   [0m[35m4021c0[0m <[32m_ZNSt7__cxx1112basic_stringIcSt11char_traitsIcESaIcEE9_M_createERmm@plt[0m>
  4028d0:	[37m|[0m  [36m|[0m                                                                                      [35m|[0m                                 c5 f9 6f 05 98 27 00 	[33mvmovdqa [0m[34mxmm0[0m,XMMWORD PTR [[34mrip[0m+[35m0x2798[0m]        # 405070 <_IO_stdin_used+0x70>
  4028d7:	[37m|[0m  [36m|[0m                                                                                      [35m|[0m                                 00 
  4028d8:	[37m|[0m  [36m|[0m                                                                                      [35m|[0m                                 48 8b 54 24 30       	[33mmov    [0m[34mrdx[0m,QWORD PTR [[34mrsp[0m+[35m0x30[0m]
  4028dd:	[37m|[0m  [36m|[0m                                                                                      [35m|[0m                                 48 b9 64 5f 61 76 78 	[33mmovabs [0m[34mrcx[0m,[35m0x3635327876615f64[0m
  4028e4:	[37m|[0m  [36m|[0m                                                                                      [35m|[0m                                 32 35 36 
  4028e7:	[37m|[0m  [36m|[0m                                                                                      [35m|[0m                                 48 89 84 24 a0 00 00 	[33mmov    [0mQWORD PTR [[34mrsp[0m+[35m0xa0[0m],[34mrax[0m
  4028ee:	[37m|[0m  [36m|[0m                                                                                      [35m|[0m                                 00 
  4028ef:	[37m|[0m  [36m|[0m                                                                                      [35m|[0m                                 48 89 94 24 b0 00 00 	[33mmov    [0mQWORD PTR [[34mrsp[0m+[35m0xb0[0m],[34mrdx[0m
  4028f6:	[37m|[0m  [36m|[0m                                                                                      [35m|[0m                                 00 
  4028f7:	[37m|[0m  [36m|[0m                                                                                      [35m|[0m                                 c5 fa 7f 00          	[33mvmovdqu [0mXMMWORD PTR [[34mrax[0m],[34mxmm0[0m
  4028fb:	[37m|[0m  [36m|[0m                                                                                      [35m|[0m                                 48 89 48 0d          	[33mmov    [0mQWORD PTR [[34mrax[0m+[35m0xd[0m],[34mrcx[0m
  4028ff:	[37m|[0m  [36m|[0m                                                                                      [35m|[0m                                 48 8b 94 24 a0 00 00 	[33mmov    [0m[34mrdx[0m,QWORD PTR [[34mrsp[0m+[35m0xa0[0m]
  402906:	[37m|[0m  [36m|[0m                                                                                      [35m|[0m                                 00 
  402907:	[37m|[0m  [36m|[0m                                                                                      [35m|[0m                                 48 8b 44 24 30       	[33mmov    [0m[34mrax[0m,QWORD PTR [[34mrsp[0m+[35m0x30[0m]
  40290c:	[37m|[0m  [36m|[0m                                                                                      [35m|[0m                                 48 89 84 24 a8 00 00 	[33mmov    [0mQWORD PTR [[34mrsp[0m+[35m0xa8[0m],[34mrax[0m
  402913:	[37m|[0m  [36m|[0m                                                                                      [35m|[0m                                 00 
  402914:	[37m|[0m  [36m|[0m                                                                                      [35m|[0m                                 c6 04 02 00          	[33mmov    [0mBYTE PTR [[34mrdx[0m+[34mrax[0m*[35m1[0m],[35m0x0[0m
  402918:	[37m|[0m  [36m|[0m                                                                                      [35m|[0m                                 48 8b 9c 24 a8 00 00 	[33mmov    [0m[34mrbx[0m,QWORD PTR [[34mrsp[0m+[35m0xa8[0m]
  40291f:	[37m|[0m  [36m|[0m                                                                                      [35m|[0m                                 00 
  402920:	[37m|[0m  [36m|[0m                                                                                      [35m|[0m                                 48 8d 84 24 68 01 00 	[33mlea    [0m[34mrax[0m,[[34mrsp[0m+[35m0x168[0m]
  402927:	[37m|[0m  [36m|[0m                                                                                      [35m|[0m                                 00 
  402928:	[37m|[0m  [36m|[0m                                                                                      [35m|[0m                                 48 c7 84 24 50 01 00 	[33mmov    [0mQWORD PTR [[34mrsp[0m+[35m0x150[0m],[35m0x4038b0[0m
  40292f:	[37m|[0m  [36m|[0m                                                                                      [35m|[0m                                 00 b0 38 40 00 
  402934:	[37m|[0m  [36m|[0m                                                                                      [35m|[0m                                 48 89 84 24 58 01 00 	[33mmov    [0mQWORD PTR [[34mrsp[0m+[35m0x158[0m],[34mrax[0m
  40293b:	[37m|[0m  [36m|[0m                                                                                      [35m|[0m                                 00 
  40293c:	[37m|[0m  [36m|[0m                                                                                      [35m|[0m                                 4c 8b bc 24 a0 00 00 	[33mmov    [0m[34mr15[0m,QWORD PTR [[34mrsp[0m+[35m0xa0[0m]
  402943:	[37m|[0m  [36m|[0m                                                                                      [35m|[0m                                 00 
  402944:	[37m|[0m  [36m|[0m                                                                                      [35m|[0m                                 48 89 5c 24 30       	[33mmov    [0mQWORD PTR [[34mrsp[0m+[35m0x30[0m],[34mrbx[0m
  402949:	[37m|[0m  [36m|[0m                                                                                      [35m|[0m                                 48 83 fb 0f          	[33mcmp    [0m[34mrbx[0m,[35m0xf[0m
  40294d:	[37m|[0m  [36m|[0m                                   [33m/--------------------------------------------------[35m|[33m--------------------------------[0m 0f 87 fe 05 00 00    	[33mja     [0m[35m402f51[0m <[32m_Z13calc_speed_upv[0m[35m+0x[0m[35m8a1[0m>
  402953:	[37m|[0m  [36m|[0m                                   [33m|[0m                                                  [35m|[0m                                 48 83 fb 01          	[33mcmp    [0m[34mrbx[0m,[35m0x1[0m
  402957:	[37m|[0m  [36m|[0m                                   [33m|[0m     [32m/[32m-[32m-[32m-[32m-[32m-[32m-[32m-[32m-[32m-[32m-[32m-[32m-[32m-[32m-[32m-[32m-[32m-[32m-[32m-[32m-[32m-[32m-[32m-[32m-[32m-[32m-[32m-[32m-[32m-[32m-[32m-[32m-[32m-[32m-[32m-[32m-[32m-[32m-[32m-[32m-[32m-[32m-[32m-[32m-[35m|[32m-[32m-[32m-[32m-[32m-[32m-[32m-[32m-[32m-[32m-[32m-[32m-[32m-[32m-[32m-[32m-[32m-[32m-[32m-[32m-[32m-[32m-[32m-[32m-[32m-[32m-[32m-[32m-[32m-[32m-[32m-[32m-[0m 0f 84 e4 05 00 00    	[33mje     [0m[35m402f41[0m <[32m_Z13calc_speed_upv[0m[35m+0x[0m[35m891[0m>
  40295d:	[37m|[0m  [36m|[0m                                   [33m|[0m     [32m|[0m                                            [35m|[0m                                 48 85 db             	[33mtest   [0m[34mrbx[0m,[34mrbx[0m
  402960:	[37m|[0m  [36m|[0m  [31m/[31m-[31m-[31m-[31m-[31m-[31m-[31m-[31m-[31m-[31m-[31m-[31m-[31m-[31m-[31m-[31m-[31m-[31m-[31m-[31m-[31m-[31m-[31m-[31m-[31m-[31m-[31m-[31m-[31m-[31m-[31m-[31m-[33m|[31m-[31m-[31m-[31m-[31m-[32m|[31m-[31m-[31m-[31m-[31m-[31m-[31m-[31m-[31m-[31m-[31m-[31m-[31m-[31m-[31m-[31m-[31m-[31m-[31m-[31m-[31m-[31m-[31m-[31m-[31m-[31m-[31m-[31m-[31m-[31m-[31m-[31m-[31m-[31m-[31m-[31m-[31m-[31m-[31m-[31m-[31m-[31m-[31m-[31m-[35m|[31m-[31m-[31m-[31m-[31m-[31m-[31m-[31m-[31m-[31m-[31m-[31m-[31m-[31m-[31m-[31m-[31m-[31m-[31m-[31m-[31m-[31m-[31m-[31m-[31m-[31m-[31m-[31m-[31m-[31m-[31m-[31m-[0m 0f 85 9d 07 00 00    	[33mjne    [0m[35m403103[0m <[32m_Z13calc_speed_upv[0m[35m+0x[0m[35ma53[0m>
  402966:	[37m|[0m  [36m|[0m  [31m|[0m                    [31m/[31m-[31m-[31m-[31m-[31m-[31m-[31m-[31m-[31m-[31m-[31m-[33m|[31m-[31m-[31m-[31m-[31m-[32m|[31m-[31m-[31m-[31m-[31m-[31m-[31m-[31m-[31m-[31m-[31m-[31m-[31m-[31m-[31m-[31m-[31m-[31m-[31m-[31m-[31m-[31m-[31m-[31m-[31m-[31m-[31m-[31m-[31m-[31m-[31m-[31m-[31m-[31m-[31m-[31m-[31m-[31m-[31m-[31m-[31m-[31m-[31m-[31m-[35m|[31m-[31m-[31m-[31m-[31m-[31m-[31m-[31m-[31m-[31m-[31m-[31m-[31m-[31m-[31m-[31m-[31m-[31m-[31m-[31m-[31m-[31m-[31m-[31m-[31m-[31m-[31m-[31m-[31m-[31m-[31m-[31m>[0m 48 89 9c 24 60 01 00 	[33mmov    [0mQWORD PTR [[34mrsp[0m+[35m0x160[0m],[34mrbx[0m
  40296d:	[37m|[0m  [36m|[0m  [31m|[0m                    [31m|[0m           [33m|[0m     [32m|[0m                                            [35m|[0m                                 00 
  40296e:	[37m|[0m  [36m|[0m  [31m|[0m                    [31m|[0m           [33m|[0m     [32m|[0m                                            [35m|[0m                                 bf c0 00 00 00       	[33mmov    [0m[34medi[0m,[35m0xc0[0m
  402973:	[37m|[0m  [36m|[0m  [31m|[0m                    [31m|[0m           [33m|[0m     [32m|[0m                                            [35m|[0m                                 c6 04 18 00          	[33mmov    [0mBYTE PTR [[34mrax[0m+[34mrbx[0m*[35m1[0m],[35m0x0[0m
  402977:	[37m|[0m  [36m|[0m  [31m|[0m                    [31m|[0m           [33m|[0m     [32m|[0m                                            [35m|[0m                                 48 c7 84 24 78 01 00 	[33mmov    [0mQWORD PTR [[34mrsp[0m+[35m0x178[0m],[35m0x0[0m
  40297e:	[37m|[0m  [36m|[0m  [31m|[0m                    [31m|[0m           [33m|[0m     [32m|[0m                                            [35m|[0m                                 00 00 00 00 00 
  402983:	[37m|[0m  [36m|[0m  [31m|[0m                    [31m|[0m           [33m|[0m     [32m|[0m                                            [35m|[0m                                 e8 28 f7 ff ff       	[33mcall   [0m[35m4020b0[0m <[32m_Znwm@plt[0m>
  402988:	[37m|[0m  [36m|[0m  [31m|[0m                    [31m|[0m           [33m|[0m     [32m|[0m                                            [35m|[0m                                 49 89 c7             	[33mmov    [0m[34mr15[0m,[34mrax[0m
  40298b:	[37m|[0m  [36m|[0m  [31m|[0m                    [31m|[0m           [33m|[0m     [32m|[0m                                            [35m|[0m                                 48 8b 9c 24 d0 00 00 	[33mmov    [0m[34mrbx[0m,QWORD PTR [[34mrsp[0m+[35m0xd0[0m]
  402992:	[37m|[0m  [36m|[0m  [31m|[0m                    [31m|[0m           [33m|[0m     [32m|[0m                                            [35m|[0m                                 00 
  402993:	[37m|[0m  [36m|[0m  [31m|[0m                    [31m|[0m           [33m|[0m     [32m|[0m                                            [35m|[0m                                 48 8b 84 24 c0 00 00 	[33mmov    [0m[34mrax[0m,QWORD PTR [[34mrsp[0m+[35m0xc0[0m]
  40299a:	[37m|[0m  [36m|[0m  [31m|[0m                    [31m|[0m           [33m|[0m     [32m|[0m                                            [35m|[0m                                 00 
  40299b:	[37m|[0m  [36m|[0m  [31m|[0m                    [31m|[0m           [33m|[0m     [32m|[0m                                            [35m|[0m                                 49 8d 7f 18          	[33mlea    [0m[34mrdi[0m,[[34mr15[0m+[35m0x18[0m]
  40299f:	[37m|[0m  [36m|[0m  [31m|[0m                    [31m|[0m           [33m|[0m     [32m|[0m                                            [35m|[0m                                 48 8b ac 24 c8 00 00 	[33mmov    [0m[34mrbp[0m,QWORD PTR [[34mrsp[0m+[35m0xc8[0m]
  4029a6:	[37m|[0m  [36m|[0m  [31m|[0m                    [31m|[0m           [33m|[0m     [32m|[0m                                            [35m|[0m                                 00 
  4029a7:	[37m|[0m  [36m|[0m  [31m|[0m                    [31m|[0m           [33m|[0m     [32m|[0m                                            [35m|[0m                                 49 89 7f 08          	[33mmov    [0mQWORD PTR [[34mr15[0m+[35m0x8[0m],[34mrdi[0m
  4029ab:	[37m|[0m  [36m|[0m  [31m|[0m                    [31m|[0m           [33m|[0m     [32m|[0m                                            [35m|[0m                                 49 89 07             	[33mmov    [0mQWORD PTR [[34mr15[0m],[34mrax[0m
  4029ae:	[37m|[0m  [36m|[0m  [31m|[0m                    [31m|[0m           [33m|[0m     [32m|[0m                                            [35m|[0m                                 48 89 5c 24 30       	[33mmov    [0mQWORD PTR [[34mrsp[0m+[35m0x30[0m],[34mrbx[0m
  4029b3:	[37m|[0m  [36m|[0m  [31m|[0m                    [31m|[0m           [33m|[0m     [32m|[0m                                            [35m|[0m                                 49 8d 47 08          	[33mlea    [0m[34mrax[0m,[[34mr15[0m+[35m0x8[0m]
  4029b7:	[37m|[0m  [36m|[0m  [31m|[0m                    [31m|[0m           [33m|[0m     [32m|[0m                                            [35m|[0m                                 48 83 fb 0f          	[33mcmp    [0m[34mrbx[0m,[35m0xf[0m
  4029bb:	[37m|[0m  [36m|[0m  [31m|[0m        [36m/-----------[31m|[36m-----------[33m|[36m-----[32m|[36m--------------------------------------------[35m|[36m--------------------------------[0m 0f 87 d2 06 00 00    	[33mja     [0m[35m403093[0m <[32m_Z13calc_speed_upv[0m[35m+0x[0m[35m9e3[0m>
  4029c1:	[37m|[0m  [36m|[0m  [31m|[0m        [36m|[0m           [31m|[0m           [33m|[0m     [32m|[0m                                            [35m|[0m                                 48 83 fb 01          	[33mcmp    [0m[34mrbx[0m,[35m0x1[0m
  4029c5:	[37m|[0m  [36m|[0m  [31m|[0m        [36m|[0m           [31m|[0m  [35m/[35m-[35m-[35m-[35m-[35m-[35m-[35m-[35m-[33m|[35m-[35m-[35m-[35m-[35m-[32m|[35m-[35m-[35m-[35m-[35m-[35m-[35m-[35m-[35m-[35m-[35m-[35m-[35m-[35m-[35m-[35m-[35m-[35m-[35m-[35m-[35m-[35m-[35m-[35m-[35m-[35m-[35m-[35m-[35m-[35m-[35m-[35m-[35m-[35m-[35m-[35m-[35m-[35m-[35m-[35m-[35m-[35m-[35m-[35m-[35m|[35m-[35m-[35m-[35m-[35m-[35m-[35m-[35m-[35m-[35m-[35m-[35m-[35m-[35m-[35m-[35m-[35m-[35m-[35m-[35m-[35m-[35m-[35m-[35m-[35m-[35m-[35m-[35m-[35m-[35m-[35m-[35m-[0m 0f 84 18 06 00 00    	[33mje     [0m[35m402fe3[0m <[32m_Z13calc_speed_upv[0m[35m+0x[0m[35m933[0m>
  4029cb:	[37m|[0m  [36m|[0m  [31m|[0m        [36m|[0m           [31m|[0m  [35m|[0m        [33m|[0m     [32m|[0m                                            [35m|[0m                                 48 85 db             	[33mtest   [0m[34mrbx[0m,[34mrbx[0m
  4029ce:	[37m|[0m  [36m|[0m  [31m|[0m     [31m/--[36m|[31m-----------[31m|[31m--[35m|[31m--------[33m|[31m-----[32m|[31m--------------------------------------------[35m|[31m--------------------------------[0m 0f 85 de 06 00 00    	[33mjne    [0m[35m4030b2[0m <[32m_Z13calc_speed_upv[0m[35m+0x[0m[35ma02[0m>
  4029d4:	[37m|[0m  [36m|[0m  [31m|[0m  [36m/[36m-[36m-[31m|[36m-[36m-[36m|[36m-[36m-[36m-[36m-[36m-[36m-[36m-[36m-[36m-[36m-[36m-[31m|[36m-[36m-[35m|[36m-[36m-[36m-[36m-[36m-[36m-[36m-[36m-[33m|[36m-[36m-[36m-[36m-[36m-[32m|[36m-[36m-[36m-[36m-[36m-[36m-[36m-[36m-[36m-[36m-[36m-[36m-[36m-[36m-[36m-[36m-[36m-[36m-[36m-[36m-[36m-[36m-[36m-[36m-[36m-[36m-[36m-[36m-[36m-[36m-[36m-[36m-[36m-[36m-[36m-[36m-[36m-[36m-[36m-[36m-[36m-[36m-[36m-[36m-[35m|[36m-[36m-[36m-[36m-[36m-[36m-[36m-[36m-[36m-[36m-[36m-[36m-[36m-[36m-[36m-[36m-[36m-[36m-[36m-[36m-[36m-[36m-[36m-[36m-[36m-[36m-[36m-[36m-[36m-[36m-[36m-[36m>[0m 49 89 5f 10          	[33mmov    [0mQWORD PTR [[34mr15[0m+[35m0x10[0m],[34mrbx[0m
  4029d8:	[37m|[0m  [36m|[0m  [31m|[0m  [36m|[0m  [31m|[0m  [36m|[0m           [31m|[0m  [35m|[0m        [33m|[0m     [32m|[0m                                            [35m|[0m                                 c6 04 1f 00          	[33mmov    [0mBYTE PTR [[34mrdi[0m+[34mrbx[0m*[35m1[0m],[35m0x0[0m
  4029dc:	[37m|[0m  [36m|[0m  [31m|[0m  [36m|[0m  [31m|[0m  [36m|[0m           [31m|[0m  [35m|[0m        [33m|[0m     [32m|[0m                                            [35m|[0m                                 48 8b 84 24 e8 00 00 	[33mmov    [0m[34mrax[0m,QWORD PTR [[34mrsp[0m+[35m0xe8[0m]
  4029e3:	[37m|[0m  [36m|[0m  [31m|[0m  [36m|[0m  [31m|[0m  [36m|[0m           [31m|[0m  [35m|[0m        [33m|[0m     [32m|[0m                                            [35m|[0m                                 00 
  4029e4:	[37m|[0m  [36m|[0m  [31m|[0m  [36m|[0m  [31m|[0m  [36m|[0m           [31m|[0m  [35m|[0m        [33m|[0m     [32m|[0m                                            [35m|[0m                                 48 8b 9c 24 00 01 00 	[33mmov    [0m[34mrbx[0m,QWORD PTR [[34mrsp[0m+[35m0x100[0m]
  4029eb:	[37m|[0m  [36m|[0m  [31m|[0m  [36m|[0m  [31m|[0m  [36m|[0m           [31m|[0m  [35m|[0m        [33m|[0m     [32m|[0m                                            [35m|[0m                                 00 
  4029ec:	[37m|[0m  [36m|[0m  [31m|[0m  [36m|[0m  [31m|[0m  [36m|[0m           [31m|[0m  [35m|[0m        [33m|[0m     [32m|[0m                                            [35m|[0m                                 49 8d 7f 48          	[33mlea    [0m[34mrdi[0m,[[34mr15[0m+[35m0x48[0m]
  4029f0:	[37m|[0m  [36m|[0m  [31m|[0m  [36m|[0m  [31m|[0m  [36m|[0m           [31m|[0m  [35m|[0m        [33m|[0m     [32m|[0m                                            [35m|[0m                                 48 8b ac 24 f8 00 00 	[33mmov    [0m[34mrbp[0m,QWORD PTR [[34mrsp[0m+[35m0xf8[0m]
  4029f7:	[37m|[0m  [36m|[0m  [31m|[0m  [36m|[0m  [31m|[0m  [36m|[0m           [31m|[0m  [35m|[0m        [33m|[0m     [32m|[0m                                            [35m|[0m                                 00 
  4029f8:	[37m|[0m  [36m|[0m  [31m|[0m  [36m|[0m  [31m|[0m  [36m|[0m           [31m|[0m  [35m|[0m        [33m|[0m     [32m|[0m                                            [35m|[0m                                 49 89 7f 38          	[33mmov    [0mQWORD PTR [[34mr15[0m+[35m0x38[0m],[34mrdi[0m
  4029fc:	[37m|[0m  [36m|[0m  [31m|[0m  [36m|[0m  [31m|[0m  [36m|[0m           [31m|[0m  [35m|[0m        [33m|[0m     [32m|[0m                                            [35m|[0m                                 49 89 47 28          	[33mmov    [0mQWORD PTR [[34mr15[0m+[35m0x28[0m],[34mrax[0m
  402a00:	[37m|[0m  [36m|[0m  [31m|[0m  [36m|[0m  [31m|[0m  [36m|[0m           [31m|[0m  [35m|[0m        [33m|[0m     [32m|[0m                                            [35m|[0m                                 49 8d 47 30          	[33mlea    [0m[34mrax[0m,[[34mr15[0m+[35m0x30[0m]
  402a04:	[37m|[0m  [36m|[0m  [31m|[0m  [36m|[0m  [31m|[0m  [36m|[0m           [31m|[0m  [35m|[0m        [33m|[0m     [32m|[0m                                            [35m|[0m                                 48 89 5c 24 30       	[33mmov    [0mQWORD PTR [[34mrsp[0m+[35m0x30[0m],[34mrbx[0m
  402a09:	[37m|[0m  [36m|[0m  [31m|[0m  [36m|[0m  [31m|[0m  [36m|[0m           [31m|[0m  [35m|[0m        [33m|[0m     [32m|[0m                                            [35m|[0m                                 48 89 44 24 08       	[33mmov    [0mQWORD PTR [[34mrsp[0m+[35m0x8[0m],[34mrax[0m
  402a0e:	[37m|[0m  [36m|[0m  [31m|[0m  [36m|[0m  [31m|[0m  [36m|[0m           [31m|[0m  [35m|[0m        [33m|[0m     [32m|[0m                                            [35m|[0m                                 48 8b 84 24 f0 00 00 	[33mmov    [0m[34mrax[0m,QWORD PTR [[34mrsp[0m+[35m0xf0[0m]
  402a15:	[37m|[0m  [36m|[0m  [31m|[0m  [36m|[0m  [31m|[0m  [36m|[0m           [31m|[0m  [35m|[0m        [33m|[0m     [32m|[0m                                            [35m|[0m                                 00 
  402a16:	[37m|[0m  [36m|[0m  [31m|[0m  [36m|[0m  [31m|[0m  [36m|[0m           [31m|[0m  [35m|[0m        [33m|[0m     [32m|[0m                                            [35m|[0m                                 49 89 47 30          	[33mmov    [0mQWORD PTR [[34mr15[0m+[35m0x30[0m],[34mrax[0m
  402a1a:	[37m|[0m  [36m|[0m  [31m|[0m  [36m|[0m  [31m|[0m  [36m|[0m           [31m|[0m  [35m|[0m        [33m|[0m     [32m|[0m                                            [35m|[0m                                 49 8d 47 38          	[33mlea    [0m[34mrax[0m,[[34mr15[0m+[35m0x38[0m]
  402a1e:	[37m|[0m  [36m|[0m  [31m|[0m  [36m|[0m  [31m|[0m  [36m|[0m           [31m|[0m  [35m|[0m        [33m|[0m     [32m|[0m                                            [35m|[0m                                 48 83 fb 0f          	[33mcmp    [0m[34mrbx[0m,[35m0xf[0m
  402a22:	[37m|[0m  [36m|[0m  [31m|[0m  [36m|[0m  [31m|[0m  [36m|[0m           [31m|[0m  [35m|[0m        [33m|[0m  [31m/[31m-[31m-[32m|[31m-[31m-[31m-[31m-[31m-[31m-[31m-[31m-[31m-[31m-[31m-[31m-[31m-[31m-[31m-[31m-[31m-[31m-[31m-[31m-[31m-[31m-[31m-[31m-[31m-[31m-[31m-[31m-[31m-[31m-[31m-[31m-[31m-[31m-[31m-[31m-[31m-[31m-[31m-[31m-[31m-[31m-[31m-[31m-[35m|[31m-[31m-[31m-[31m-[31m-[31m-[31m-[31m-[31m-[31m-[31m-[31m-[31m-[31m-[31m-[31m-[31m-[31m-[31m-[31m-[31m-[31m-[31m-[31m-[31m-[31m-[31m-[31m-[31m-[31m-[31m-[31m-[0m 0f 87 f2 05 00 00    	[33mja     [0m[35m40301a[0m <[32m_Z13calc_speed_upv[0m[35m+0x[0m[35m96a[0m>
  402a28:	[37m|[0m  [36m|[0m  [31m|[0m  [36m|[0m  [31m|[0m  [36m|[0m           [31m|[0m  [35m|[0m        [33m|[0m  [31m|[0m  [32m|[0m                                            [35m|[0m                                 48 83 fb 01          	[33mcmp    [0m[34mrbx[0m,[35m0x1[0m
  402a2c:	[37m|[0m  [36m|[0m  [31m|[0m  [36m|[0m  [31m|[0m  [36m|[0m           [31m|[0m  [35m|[0m        [33m|[0m  [31m|[0m  [32m|[0m  [33m/-----------------------------------------[35m|[33m--------------------------------[0m 0f 84 db 05 00 00    	[33mje     [0m[35m40300d[0m <[32m_Z13calc_speed_upv[0m[35m+0x[0m[35m95d[0m>
  402a32:	[37m|[0m  [36m|[0m  [31m|[0m  [36m|[0m  [31m|[0m  [36m|[0m           [31m|[0m  [35m|[0m        [33m|[0m  [31m|[0m  [32m|[0m  [33m|[0m                                         [35m|[0m                                 48 85 db             	[33mtest   [0m[34mrbx[0m,[34mrbx[0m
  402a35:	[37m|[0m  [36m|[0m  [31m|[0m  [36m|[0m  [31m|[0m  [36m|[0m           [31m|[0m  [35m|[0m     [37m/[37m-[37m-[33m|[37m-[37m-[31m|[37m-[37m-[32m|[37m-[37m-[33m|[37m-[37m-[37m-[37m-[37m-[37m-[37m-[37m-[37m-[37m-[37m-[37m-[37m-[37m-[37m-[37m-[37m-[37m-[37m-[37m-[37m-[37m-[37m-[37m-[37m-[37m-[37m-[37m-[37m-[37m-[37m-[37m-[37m-[37m-[37m-[37m-[37m-[37m-[37m-[37m-[37m-[35m|[37m-[37m-[37m-[37m-[37m-[37m-[37m-[37m-[37m-[37m-[37m-[37m-[37m-[37m-[37m-[37m-[37m-[37m-[37m-[37m-[37m-[37m-[37m-[37m-[37m-[37m-[37m-[37m-[37m-[37m-[37m-[37m-[0m 0f 85 fe 05 00 00    	[33mjne    [0m[35m403039[0m <[32m_Z13calc_speed_upv[0m[35m+0x[0m[35m989[0m>
  402a3b:	[37m|[0m  [36m|[0m  [31m|[0m  [36m|[0m  [31m|[0m  [36m|[0m           [31m|[0m  [35m|[0m  [31m/--[37m|[31m--[33m|[31m--[31m|[31m--[32m|[31m--[33m|[31m-----------------------------------------[35m|[31m------------------------------->[0m 49 89 5f 40          	[33mmov    [0mQWORD PTR [[34mr15[0m+[35m0x40[0m],[34mrbx[0m
  402a3f:	[37m|[0m  [36m|[0m  [31m|[0m  [36m|[0m  [31m|[0m  [36m|[0m           [31m|[0m  [35m|[0m  [31m|[0m  [37m|[0m  [33m|[0m  [31m|[0m  [32m|[0m  [33m|[0m                                         [35m|[0m                                 c6 04 1f 00          	[33mmov    [0mBYTE PTR [[34mrdi[0m+[34mrbx[0m*[35m1[0m],[35m0x0[0m
  402a43:	[37m|[0m  [36m|[0m  [31m|[0m  [36m|[0m  [31m|[0m  [36m|[0m           [31m|[0m  [35m|[0m  [31m|[0m  [37m|[0m  [33m|[0m  [31m|[0m  [32m|[0m  [33m|[0m                                         [35m|[0m                                 48 8b 84 24 18 01 00 	[33mmov    [0m[34mrax[0m,QWORD PTR [[34mrsp[0m+[35m0x118[0m]
  402a4a:	[37m|[0m  [36m|[0m  [31m|[0m  [36m|[0m  [31m|[0m  [36m|[0m           [31m|[0m  [35m|[0m  [31m|[0m  [37m|[0m  [33m|[0m  [31m|[0m  [32m|[0m  [33m|[0m                                         [35m|[0m                                 00 
  402a4b:	[37m|[0m  [36m|[0m  [31m|[0m  [36m|[0m  [31m|[0m  [36m|[0m           [31m|[0m  [35m|[0m  [31m|[0m  [37m|[0m  [33m|[0m  [31m|[0m  [32m|[0m  [33m|[0m                                         [35m|[0m                                 48 8b 9c 24 30 01 00 	[33mmov    [0m[34mrbx[0m,QWORD PTR [[34mrsp[0m+[35m0x130[0m]
  402a52:	[37m|[0m  [36m|[0m  [31m|[0m  [36m|[0m  [31m|[0m  [36m|[0m           [31m|[0m  [35m|[0m  [31m|[0m  [37m|[0m  [33m|[0m  [31m|[0m  [32m|[0m  [33m|[0m                                         [35m|[0m                                 00 
  402a53:	[37m|[0m  [36m|[0m  [31m|[0m  [36m|[0m  [31m|[0m  [36m|[0m           [31m|[0m  [35m|[0m  [31m|[0m  [37m|[0m  [33m|[0m  [31m|[0m  [32m|[0m  [33m|[0m                                         [35m|[0m                                 49 8d 7f 78          	[33mlea    [0m[34mrdi[0m,[[34mr15[0m+[35m0x78[0m]
  402a57:	[37m|[0m  [36m|[0m  [31m|[0m  [36m|[0m  [31m|[0m  [36m|[0m           [31m|[0m  [35m|[0m  [31m|[0m  [37m|[0m  [33m|[0m  [31m|[0m  [32m|[0m  [33m|[0m                                         [35m|[0m                                 48 8b ac 24 28 01 00 	[33mmov    [0m[34mrbp[0m,QWORD PTR [[34mrsp[0m+[35m0x128[0m]
  402a5e:	[37m|[0m  [36m|[0m  [31m|[0m  [36m|[0m  [31m|[0m  [36m|[0m           [31m|[0m  [35m|[0m  [31m|[0m  [37m|[0m  [33m|[0m  [31m|[0m  [32m|[0m  [33m|[0m                                         [35m|[0m                                 00 
  402a5f:	[37m|[0m  [36m|[0m  [31m|[0m  [36m|[0m  [31m|[0m  [36m|[0m           [31m|[0m  [35m|[0m  [31m|[0m  [37m|[0m  [33m|[0m  [31m|[0m  [32m|[0m  [33m|[0m                                         [35m|[0m                                 49 89 7f 68          	[33mmov    [0mQWORD PTR [[34mr15[0m+[35m0x68[0m],[34mrdi[0m
  402a63:	[37m|[0m  [36m|[0m  [31m|[0m  [36m|[0m  [31m|[0m  [36m|[0m           [31m|[0m  [35m|[0m  [31m|[0m  [37m|[0m  [33m|[0m  [31m|[0m  [32m|[0m  [33m|[0m                                         [35m|[0m                                 49 89 47 58          	[33mmov    [0mQWORD PTR [[34mr15[0m+[35m0x58[0m],[34mrax[0m
  402a67:	[37m|[0m  [36m|[0m  [31m|[0m  [36m|[0m  [31m|[0m  [36m|[0m           [31m|[0m  [35m|[0m  [31m|[0m  [37m|[0m  [33m|[0m  [31m|[0m  [32m|[0m  [33m|[0m                                         [35m|[0m                                 48 8b 84 24 20 01 00 	[33mmov    [0m[34mrax[0m,QWORD PTR [[34mrsp[0m+[35m0x120[0m]
  402a6e:	[37m|[0m  [36m|[0m  [31m|[0m  [36m|[0m  [31m|[0m  [36m|[0m           [31m|[0m  [35m|[0m  [31m|[0m  [37m|[0m  [33m|[0m  [31m|[0m  [32m|[0m  [33m|[0m                                         [35m|[0m                                 00 
  402a6f:	[37m|[0m  [36m|[0m  [31m|[0m  [36m|[0m  [31m|[0m  [36m|[0m           [31m|[0m  [35m|[0m  [31m|[0m  [37m|[0m  [33m|[0m  [31m|[0m  [32m|[0m  [33m|[0m                                         [35m|[0m                                 48 89 5c 24 30       	[33mmov    [0mQWORD PTR [[34mrsp[0m+[35m0x30[0m],[34mrbx[0m
  402a74:	[37m|[0m  [36m|[0m  [31m|[0m  [36m|[0m  [31m|[0m  [36m|[0m           [31m|[0m  [35m|[0m  [31m|[0m  [37m|[0m  [33m|[0m  [31m|[0m  [32m|[0m  [33m|[0m                                         [35m|[0m                                 49 89 47 60          	[33mmov    [0mQWORD PTR [[34mr15[0m+[35m0x60[0m],[34mrax[0m
  402a78:	[37m|[0m  [36m|[0m  [31m|[0m  [36m|[0m  [31m|[0m  [36m|[0m           [31m|[0m  [35m|[0m  [31m|[0m  [37m|[0m  [33m|[0m  [31m|[0m  [32m|[0m  [33m|[0m                                         [35m|[0m                                 49 8d 47 68          	[33mlea    [0m[34mrax[0m,[[34mr15[0m+[35m0x68[0m]
  402a7c:	[37m|[0m  [36m|[0m  [31m|[0m  [36m|[0m  [31m|[0m  [36m|[0m           [31m|[0m  [35m|[0m  [31m|[0m  [37m|[0m  [33m|[0m  [31m|[0m  [32m|[0m  [33m|[0m                                         [35m|[0m                                 48 83 fb 0f          	[33mcmp    [0m[34mrbx[0m,[35m0xf[0m
  402a80:	[37m|[0m  [36m|[0m  [31m|[0m  [36m|[0m  [31m|[0m  [36m|[0m        [34m/--[31m|[34m--[35m|[34m--[31m|[34m--[37m|[34m--[33m|[34m--[31m|[34m--[32m|[34m--[33m|[34m-----------------------------------------[35m|[34m--------------------------------[0m 0f 87 45 06 00 00    	[33mja     [0m[35m4030cb[0m <[32m_Z13calc_speed_upv[0m[35m+0x[0m[35ma1b[0m>
  402a86:	[37m|[0m  [36m|[0m  [31m|[0m  [36m|[0m  [31m|[0m  [36m|[0m        [34m|[0m  [31m|[0m  [35m|[0m  [31m|[0m  [37m|[0m  [33m|[0m  [31m|[0m  [32m|[0m  [33m|[0m                                         [35m|[0m                                 48 83 fb 01          	[33mcmp    [0m[34mrbx[0m,[35m0x1[0m
  402a8a:	[37m|[0m  [36m|[0m  [31m|[0m  [36m|[0m  [31m|[0m  [36m|[0m        [34m|[0m  [31m|[0m  [35m|[0m  [31m|[0m  [37m|[0m  [33m|[0m  [31m|[0m  [32m|[0m  [33m|[0m        [34m/[34m-[34m-[34m-[34m-[34m-[34m-[34m-[34m-[34m-[34m-[34m-[34m-[34m-[34m-[34m-[34m-[34m-[34m-[34m-[34m-[34m-[34m-[34m-[34m-[34m-[34m-[34m-[34m-[34m-[34m-[34m-[34m-[35m|[34m-[34m-[34m-[34m-[34m-[34m-[34m-[34m-[34m-[34m-[34m-[34m-[34m-[34m-[34m-[34m-[34m-[34m-[34m-[34m-[34m-[34m-[34m-[34m-[34m-[34m-[34m-[34m-[34m-[34m-[34m-[34m-[0m 0f 84 70 05 00 00    	[33mje     [0m[35m403000[0m <[32m_Z13calc_speed_upv[0m[35m+0x[0m[35m950[0m>
  402a90:	[37m|[0m  [36m|[0m  [31m|[0m  [36m|[0m  [31m|[0m  [36m|[0m        [34m|[0m  [31m|[0m  [35m|[0m  [31m|[0m  [37m|[0m  [33m|[0m  [31m|[0m  [32m|[0m  [33m|[0m        [34m|[0m                                [35m|[0m                                 48 85 db             	[33mtest   [0m[34mrbx[0m,[34mrbx[0m
  402a93:	[37m|[0m  [36m|[0m  [31m|[0m  [36m|[0m  [31m|[0m  [36m|[0m     [36m/--[34m|[36m--[31m|[36m--[35m|[36m--[31m|[36m--[37m|[36m--[33m|[36m--[31m|[36m--[32m|[36m--[33m|[36m--------[34m|[36m--------------------------------[35m|[36m--------------------------------[0m 0f 85 51 06 00 00    	[33mjne    [0m[35m4030ea[0m <[32m_Z13calc_speed_upv[0m[35m+0x[0m[35ma3a[0m>
  402a99:	[37m|[0m  [36m|[0m  [31m|[0m  [36m|[0m  [31m|[0m  [36m|[0m  [32m/[32m-[32m-[36m|[32m-[32m-[34m|[32m-[32m-[31m|[32m-[32m-[35m|[32m-[32m-[31m|[32m-[32m-[37m|[32m-[32m-[33m|[32m-[32m-[31m|[32m-[32m-[32m|[32m-[32m-[33m|[32m-[32m-[32m-[32m-[32m-[32m-[32m-[32m-[34m|[32m-[32m-[32m-[32m-[32m-[32m-[32m-[32m-[32m-[32m-[32m-[32m-[32m-[32m-[32m-[32m-[32m-[32m-[32m-[32m-[32m-[32m-[32m-[32m-[32m-[32m-[32m-[32m-[32m-[32m-[32m-[32m-[35m|[32m-[32m-[32m-[32m-[32m-[32m-[32m-[32m-[32m-[32m-[32m-[32m-[32m-[32m-[32m-[32m-[32m-[32m-[32m-[32m-[32m-[32m-[32m-[32m-[32m-[32m-[32m-[32m-[32m-[32m-[32m-[32m>[0m 49 89 5f 70          	[33mmov    [0mQWORD PTR [[34mr15[0m+[35m0x70[0m],[34mrbx[0m
  402a9d:	[37m|[0m  [36m|[0m  [31m|[0m  [36m|[0m  [31m|[0m  [36m|[0m  [32m|[0m  [36m|[0m  [34m|[0m  [31m|[0m  [35m|[0m  [31m|[0m  [37m|[0m  [33m|[0m  [31m|[0m  [32m|[0m  [33m|[0m        [34m|[0m                                [35m|[0m                                 c6 04 1f 00          	[33mmov    [0mBYTE PTR [[34mrdi[0m+[34mrbx[0m*[35m1[0m],[35m0x0[0m
  402aa1:	[37m|[0m  [36m|[0m  [31m|[0m  [36m|[0m  [31m|[0m  [36m|[0m  [32m|[0m  [36m|[0m  [34m|[0m  [31m|[0m  [35m|[0m  [31m|[0m  [37m|[0m  [33m|[0m  [31m|[0m  [32m|[0m  [33m|[0m        [34m|[0m                                [35m|[0m                                 48 8b 84 24 48 01 00 	[33mmov    [0m[34mrax[0m,QWORD PTR [[34mrsp[0m+[35m0x148[0m]
  402aa8:	[37m|[0m  [36m|[0m  [31m|[0m  [36m|[0m  [31m|[0m  [36m|[0m  [32m|[0m  [36m|[0m  [34m|[0m  [31m|[0m  [35m|[0m  [31m|[0m  [37m|[0m  [33m|[0m  [31m|[0m  [32m|[0m  [33m|[0m        [34m|[0m                                [35m|[0m                                 00 
  402aa9:	[37m|[0m  [36m|[0m  [31m|[0m  [36m|[0m  [31m|[0m  [36m|[0m  [32m|[0m  [36m|[0m  [34m|[0m  [31m|[0m  [35m|[0m  [31m|[0m  [37m|[0m  [33m|[0m  [31m|[0m  [32m|[0m  [33m|[0m        [34m|[0m                                [35m|[0m                                 48 8b 9c 24 60 01 00 	[33mmov    [0m[34mrbx[0m,QWORD PTR [[34mrsp[0m+[35m0x160[0m]
  402ab0:	[37m|[0m  [36m|[0m  [31m|[0m  [36m|[0m  [31m|[0m  [36m|[0m  [32m|[0m  [36m|[0m  [34m|[0m  [31m|[0m  [35m|[0m  [31m|[0m  [37m|[0m  [33m|[0m  [31m|[0m  [32m|[0m  [33m|[0m        [34m|[0m                                [35m|[0m                                 00 
  402ab1:	[37m|[0m  [36m|[0m  [31m|[0m  [36m|[0m  [31m|[0m  [36m|[0m  [32m|[0m  [36m|[0m  [34m|[0m  [31m|[0m  [35m|[0m  [31m|[0m  [37m|[0m  [33m|[0m  [31m|[0m  [32m|[0m  [33m|[0m        [34m|[0m                                [35m|[0m                                 49 8d bf a8 00 00 00 	[33mlea    [0m[34mrdi[0m,[[34mr15[0m+[35m0xa8[0m]
  402ab8:	[37m|[0m  [36m|[0m  [31m|[0m  [36m|[0m  [31m|[0m  [36m|[0m  [32m|[0m  [36m|[0m  [34m|[0m  [31m|[0m  [35m|[0m  [31m|[0m  [37m|[0m  [33m|[0m  [31m|[0m  [32m|[0m  [33m|[0m        [34m|[0m                                [35m|[0m                                 48 8b ac 24 58 01 00 	[33mmov    [0m[34mrbp[0m,QWORD PTR [[34mrsp[0m+[35m0x158[0m]
  402abf:	[37m|[0m  [36m|[0m  [31m|[0m  [36m|[0m  [31m|[0m  [36m|[0m  [32m|[0m  [36m|[0m  [34m|[0m  [31m|[0m  [35m|[0m  [31m|[0m  [37m|[0m  [33m|[0m  [31m|[0m  [32m|[0m  [33m|[0m        [34m|[0m                                [35m|[0m                                 00 
  402ac0:	[37m|[0m  [36m|[0m  [31m|[0m  [36m|[0m  [31m|[0m  [36m|[0m  [32m|[0m  [36m|[0m  [34m|[0m  [31m|[0m  [35m|[0m  [31m|[0m  [37m|[0m  [33m|[0m  [31m|[0m  [32m|[0m  [33m|[0m        [34m|[0m                                [35m|[0m                                 49 89 bf 98 00 00 00 	[33mmov    [0mQWORD PTR [[34mr15[0m+[35m0x98[0m],[34mrdi[0m
  402ac7:	[37m|[0m  [36m|[0m  [31m|[0m  [36m|[0m  [31m|[0m  [36m|[0m  [32m|[0m  [36m|[0m  [34m|[0m  [31m|[0m  [35m|[0m  [31m|[0m  [37m|[0m  [33m|[0m  [31m|[0m  [32m|[0m  [33m|[0m        [34m|[0m                                [35m|[0m                                 49 89 87 88 00 00 00 	[33mmov    [0mQWORD PTR [[34mr15[0m+[35m0x88[0m],[34mrax[0m
  402ace:	[37m|[0m  [36m|[0m  [31m|[0m  [36m|[0m  [31m|[0m  [36m|[0m  [32m|[0m  [36m|[0m  [34m|[0m  [31m|[0m  [35m|[0m  [31m|[0m  [37m|[0m  [33m|[0m  [31m|[0m  [32m|[0m  [33m|[0m        [34m|[0m                                [35m|[0m                                 48 8b 84 24 50 01 00 	[33mmov    [0m[34mrax[0m,QWORD PTR [[34mrsp[0m+[35m0x150[0m]
  402ad5:	[37m|[0m  [36m|[0m  [31m|[0m  [36m|[0m  [31m|[0m  [36m|[0m  [32m|[0m  [36m|[0m  [34m|[0m  [31m|[0m  [35m|[0m  [31m|[0m  [37m|[0m  [33m|[0m  [31m|[0m  [32m|[0m  [33m|[0m        [34m|[0m                                [35m|[0m                                 00 
  402ad6:	[37m|[0m  [36m|[0m  [31m|[0m  [36m|[0m  [31m|[0m  [36m|[0m  [32m|[0m  [36m|[0m  [34m|[0m  [31m|[0m  [35m|[0m  [31m|[0m  [37m|[0m  [33m|[0m  [31m|[0m  [32m|[0m  [33m|[0m        [34m|[0m                                [35m|[0m                                 48 89 5c 24 30       	[33mmov    [0mQWORD PTR [[34mrsp[0m+[35m0x30[0m],[34mrbx[0m
  402adb:	[37m|[0m  [36m|[0m  [31m|[0m  [36m|[0m  [31m|[0m  [36m|[0m  [32m|[0m  [36m|[0m  [34m|[0m  [31m|[0m  [35m|[0m  [31m|[0m  [37m|[0m  [33m|[0m  [31m|[0m  [32m|[0m  [33m|[0m        [34m|[0m                                [35m|[0m                                 49 89 87 90 00 00 00 	[33mmov    [0mQWORD PTR [[34mr15[0m+[35m0x90[0m],[34mrax[0m
  402ae2:	[37m|[0m  [36m|[0m  [31m|[0m  [36m|[0m  [31m|[0m  [36m|[0m  [32m|[0m  [36m|[0m  [34m|[0m  [31m|[0m  [35m|[0m  [31m|[0m  [37m|[0m  [33m|[0m  [31m|[0m  [32m|[0m  [33m|[0m        [34m|[0m                                [35m|[0m                                 49 8d 87 98 00 00 00 	[33mlea    [0m[34mrax[0m,[[34mr15[0m+[35m0x98[0m]
  402ae9:	[37m|[0m  [36m|[0m  [31m|[0m  [36m|[0m  [31m|[0m  [36m|[0m  [32m|[0m  [36m|[0m  [34m|[0m  [31m|[0m  [35m|[0m  [31m|[0m  [37m|[0m  [33m|[0m  [31m|[0m  [32m|[0m  [33m|[0m        [34m|[0m                                [35m|[0m                                 48 83 fb 0f          	[33mcmp    [0m[34mrbx[0m,[35m0xf[0m
  402aed:	[37m|[0m  [36m|[0m  [31m|[0m  [36m|[0m  [31m|[0m  [36m|[0m  [32m|[0m  [36m|[0m  [34m|[0m  [31m|[0m  [35m|[0m  [31m|[0m  [37m|[0m  [33m|[0m  [31m|[0m  [32m|[0m  [33m|[0m        [34m|[0m  [33m/-----------------------------[35m|[33m--------------------------------[0m 0f 87 5f 05 00 00    	[33mja     [0m[35m403052[0m <[32m_Z13calc_speed_upv[0m[35m+0x[0m[35m9a2[0m>
  402af3:	[37m|[0m  [36m|[0m  [31m|[0m  [36m|[0m  [31m|[0m  [36m|[0m  [32m|[0m  [36m|[0m  [34m|[0m  [31m|[0m  [35m|[0m  [31m|[0m  [37m|[0m  [33m|[0m  [31m|[0m  [32m|[0m  [33m|[0m        [34m|[0m  [33m|[0m                             [35m|[0m                                 48 83 fb 01          	[33mcmp    [0m[34mrbx[0m,[35m0x1[0m
  402af7:	[37m|[0m  [36m|[0m  [31m|[0m  [36m|[0m  [31m|[0m  [36m|[0m  [32m|[0m  [36m|[0m  [34m|[0m  [31m|[0m  [35m|[0m  [31m|[0m  [37m|[0m  [33m|[0m  [31m|[0m  [32m|[0m  [33m|[0m        [34m|[0m  [33m|[0m  [37m/[37m-[37m-[37m-[37m-[37m-[37m-[37m-[37m-[37m-[37m-[37m-[37m-[37m-[37m-[37m-[37m-[37m-[37m-[37m-[37m-[37m-[37m-[37m-[37m-[37m-[37m-[35m|[37m-[37m-[37m-[37m-[37m-[37m-[37m-[37m-[37m-[37m-[37m-[37m-[37m-[37m-[37m-[37m-[37m-[37m-[37m-[37m-[37m-[37m-[37m-[37m-[37m-[37m-[37m-[37m-[37m-[37m-[37m-[37m-[0m 0f 84 f3 04 00 00    	[33mje     [0m[35m402ff0[0m <[32m_Z13calc_speed_upv[0m[35m+0x[0m[35m940[0m>
  402afd:	[37m|[0m  [36m|[0m  [31m|[0m  [36m|[0m  [31m|[0m  [36m|[0m  [32m|[0m  [36m|[0m  [34m|[0m  [31m|[0m  [35m|[0m  [31m|[0m  [37m|[0m  [33m|[0m  [31m|[0m  [32m|[0m  [33m|[0m        [34m|[0m  [33m|[0m  [37m|[0m                          [35m|[0m                                 48 85 db             	[33mtest   [0m[34mrbx[0m,[34mrbx[0m
  402b00:	[37m|[0m  [36m|[0m  [31m|[0m  [36m|[0m  [31m|[0m  [36m|[0m  [32m|[0m  [36m|[0m  [34m|[0m  [31m|[0m  [35m|[0m  [31m|[0m  [37m|[0m  [33m|[0m  [31m|[0m  [32m|[0m  [33m|[0m     [32m/[32m-[32m-[34m|[32m-[32m-[33m|[32m-[32m-[37m|[32m-[32m-[32m-[32m-[32m-[32m-[32m-[32m-[32m-[32m-[32m-[32m-[32m-[32m-[32m-[32m-[32m-[32m-[32m-[32m-[32m-[32m-[32m-[32m-[32m-[32m-[35m|[32m-[32m-[32m-[32m-[32m-[32m-[32m-[32m-[32m-[32m-[32m-[32m-[32m-[32m-[32m-[32m-[32m-[32m-[32m-[32m-[32m-[32m-[32m-[32m-[32m-[32m-[32m-[32m-[32m-[32m-[32m-[32m-[0m 0f 85 71 05 00 00    	[33mjne    [0m[35m403077[0m <[32m_Z13calc_speed_upv[0m[35m+0x[0m[35m9c7[0m>
  402b06:	[37m|[0m  [36m|[0m  [31m|[0m  [36m|[0m  [31m|[0m  [36m|[0m  [32m|[0m  [36m|[0m  [34m|[0m  [31m|[0m  [35m|[0m  [31m|[0m  [37m|[0m  [33m|[0m  [31m|[0m  [32m|[0m  [33m|[0m  [32m/--[32m|[32m--[34m|[32m--[33m|[32m--[37m|[32m--------------------------[35m|[32m------------------------------->[0m 49 89 9f a0 00 00 00 	[33mmov    [0mQWORD PTR [[34mr15[0m+[35m0xa0[0m],[34mrbx[0m
  402b0d:	[37m|[0m  [36m|[0m  [31m|[0m  [36m|[0m  [31m|[0m  [36m|[0m  [32m|[0m  [36m|[0m  [34m|[0m  [31m|[0m  [35m|[0m  [31m|[0m  [37m|[0m  [33m|[0m  [31m|[0m  [32m|[0m  [33m|[0m  [32m|[0m  [32m|[0m  [34m|[0m  [33m|[0m  [37m|[0m                          [35m|[0m                                 c6 04 1f 00          	[33mmov    [0mBYTE PTR [[34mrdi[0m+[34mrbx[0m*[35m1[0m],[35m0x0[0m
  402b11:	[37m|[0m  [36m|[0m  [31m|[0m  [36m|[0m  [31m|[0m  [36m|[0m  [32m|[0m  [36m|[0m  [34m|[0m  [31m|[0m  [35m|[0m  [31m|[0m  [37m|[0m  [33m|[0m  [31m|[0m  [32m|[0m  [33m|[0m  [32m|[0m  [32m|[0m  [34m|[0m  [33m|[0m  [37m|[0m                          [35m|[0m                                 48 8b 84 24 78 01 00 	[33mmov    [0m[34mrax[0m,QWORD PTR [[34mrsp[0m+[35m0x178[0m]
  402b18:	[37m|[0m  [36m|[0m  [31m|[0m  [36m|[0m  [31m|[0m  [36m|[0m  [32m|[0m  [36m|[0m  [34m|[0m  [31m|[0m  [35m|[0m  [31m|[0m  [37m|[0m  [33m|[0m  [31m|[0m  [32m|[0m  [33m|[0m  [32m|[0m  [32m|[0m  [34m|[0m  [33m|[0m  [37m|[0m                          [35m|[0m                                 00 
  402b19:	[37m|[0m  [36m|[0m  [31m|[0m  [36m|[0m  [31m|[0m  [36m|[0m  [32m|[0m  [36m|[0m  [34m|[0m  [31m|[0m  [35m|[0m  [31m|[0m  [37m|[0m  [33m|[0m  [31m|[0m  [32m|[0m  [33m|[0m  [32m|[0m  [32m|[0m  [34m|[0m  [33m|[0m  [37m|[0m                          [35m|[0m                                 48 8d ac 24 80 01 00 	[33mlea    [0m[34mrbp[0m,[[34mrsp[0m+[35m0x180[0m]
  402b20:	[37m|[0m  [36m|[0m  [31m|[0m  [36m|[0m  [31m|[0m  [36m|[0m  [32m|[0m  [36m|[0m  [34m|[0m  [31m|[0m  [35m|[0m  [31m|[0m  [37m|[0m  [33m|[0m  [31m|[0m  [32m|[0m  [33m|[0m  [32m|[0m  [32m|[0m  [34m|[0m  [33m|[0m  [37m|[0m                          [35m|[0m                                 00 
  402b21:	[37m|[0m  [36m|[0m  [31m|[0m  [36m|[0m  [31m|[0m  [36m|[0m  [32m|[0m  [36m|[0m  [34m|[0m  [31m|[0m  [35m|[0m  [31m|[0m  [37m|[0m  [33m|[0m  [31m|[0m  [32m|[0m  [33m|[0m  [32m|[0m  [32m|[0m  [34m|[0m  [33m|[0m  [37m|[0m                          [35m|[0m                                 48 8d 9c 24 c0 00 00 	[33mlea    [0m[34mrbx[0m,[[34mrsp[0m+[35m0xc0[0m]
  402b28:	[37m|[0m  [36m|[0m  [31m|[0m  [36m|[0m  [31m|[0m  [36m|[0m  [32m|[0m  [36m|[0m  [34m|[0m  [31m|[0m  [35m|[0m  [31m|[0m  [37m|[0m  [33m|[0m  [31m|[0m  [32m|[0m  [33m|[0m  [32m|[0m  [32m|[0m  [34m|[0m  [33m|[0m  [37m|[0m                          [35m|[0m                                 00 
  402b29:	[37m|[0m  [36m|[0m  [31m|[0m  [36m|[0m  [31m|[0m  [36m|[0m  [32m|[0m  [36m|[0m  [34m|[0m  [31m|[0m  [35m|[0m  [31m|[0m  [37m|[0m  [33m|[0m  [31m|[0m  [32m|[0m  [33m|[0m  [32m|[0m  [32m|[0m  [34m|[0m  [33m|[0m  [37m|[0m                          [35m|[0m                                 49 89 87 b8 00 00 00 	[33mmov    [0mQWORD PTR [[34mr15[0m+[35m0xb8[0m],[34mrax[0m
  402b30:	[37m|[0m  [36m|[0m  [31m|[0m  [36m|[0m  [31m|[0m  [36m|[0m  [32m|[0m  [36m|[0m  [34m|[0m  [31m|[0m  [35m|[0m  [31m|[0m  [37m|[0m  [33m|[0m  [31m|[0m  [32m|[0m  [33m|[0m  [32m|[0m  [32m|[0m  [34m|[0m  [33m|[0m  [37m|[0m                          [35m|[0m                                 49 8d 87 c0 00 00 00 	[33mlea    [0m[34mrax[0m,[[34mr15[0m+[35m0xc0[0m]
  402b37:	[37m|[0m  [36m|[0m  [31m|[0m  [36m|[0m  [31m|[0m  [36m|[0m  [32m|[0m  [36m|[0m  [34m|[0m  [31m|[0m  [35m|[0m  [31m|[0m  [37m|[0m  [33m|[0m  [31m|[0m  [32m|[0m  [33m|[0m  [32m|[0m  [32m|[0m  [34m|[0m  [33m|[0m  [37m|[0m                          [35m|[0m                                 48 89 04 24          	[33mmov    [0mQWORD PTR [[34mrsp[0m],[34mrax[0m
  402b3b:	[37m|[0m  [36m|[0m  [31m|[0m  [36m|[0m  [31m|[0m  [36m|[0m  [32m|[0m  [36m|[0m  [34m|[0m  [31m|[0m  [35m|[0m  [31m|[0m  [37m|[0m  [33m|[0m  [31m|[0m  [32m|[0m  [33m|[0m  [32m|[0m  [32m|[0m  [34m|[0m  [33m|[0m  [37m|[0m  [31m/[31m-[31m-[31m-[31m-[31m-[31m-[31m-[31m-[31m-[31m-[31m-[31m-[31m-[31m-[31m-[31m-[31m-[31m-[31m-[31m-[31m-[31m-[31m-[35m|[31m-[31m-[31m-[31m-[31m-[31m-[31m-[31m-[31m-[31m-[31m-[31m-[31m-[31m-[31m-[31m-[31m-[31m-[31m-[31m-[31m-[31m-[31m-[31m-[31m-[31m-[31m-[31m-[31m-[31m-[31m-[31m>[0m 48 8b 7d d8          	[33mmov    [0m[34mrdi[0m,QWORD PTR [[34mrbp[0m[35m-[0m[35m0x28[0m]
  402b3f:	[37m|[0m  [36m|[0m  [31m|[0m  [36m|[0m  [31m|[0m  [36m|[0m  [32m|[0m  [36m|[0m  [34m|[0m  [31m|[0m  [35m|[0m  [31m|[0m  [37m|[0m  [33m|[0m  [31m|[0m  [32m|[0m  [33m|[0m  [32m|[0m  [32m|[0m  [34m|[0m  [33m|[0m  [37m|[0m  [31m|[0m                       [35m|[0m                                 48 83 ed 30          	[33msub    [0m[34mrbp[0m,[35m0x30[0m
  402b43:	[37m|[0m  [36m|[0m  [31m|[0m  [36m|[0m  [31m|[0m  [36m|[0m  [32m|[0m  [36m|[0m  [34m|[0m  [31m|[0m  [35m|[0m  [31m|[0m  [37m|[0m  [33m|[0m  [31m|[0m  [32m|[0m  [33m|[0m  [32m|[0m  [32m|[0m  [34m|[0m  [33m|[0m  [37m|[0m  [31m|[0m                       [35m|[0m                                 48 8d 55 18          	[33mlea    [0m[34mrdx[0m,[[34mrbp[0m+[35m0x18[0m]
  402b47:	[37m|[0m  [36m|[0m  [31m|[0m  [36m|[0m  [31m|[0m  [36m|[0m  [32m|[0m  [36m|[0m  [34m|[0m  [31m|[0m  [35m|[0m  [31m|[0m  [37m|[0m  [33m|[0m  [31m|[0m  [32m|[0m  [33m|[0m  [32m|[0m  [32m|[0m  [34m|[0m  [33m|[0m  [37m|[0m  [31m|[0m                       [35m|[0m                                 48 39 d7             	[33mcmp    [0m[34mrdi[0m,[34mrdx[0m
  402b4a:	[37m|[0m  [36m|[0m  [31m|[0m  [36m|[0m  [31m|[0m  [36m|[0m  [32m|[0m  [36m|[0m  [34m|[0m  [31m|[0m  [35m|[0m  [31m|[0m  [37m|[0m  [33m|[0m  [31m|[0m  [32m|[0m  [33m|[0m  [32m|[0m  [32m|[0m  [34m|[0m  [33m|[0m  [37m|[0m  [31m|[0m  [35m/[35m-[35m-[35m-[35m-[35m-[35m-[35m-[35m-[35m-[35m-[35m-[35m-[35m-[35m-[35m-[35m-[35m-[35m-[35m-[35m-[35m|[35m-[35m-[35m-[35m-[35m-[35m-[35m-[35m-[35m-[35m-[35m-[35m-[35m-[35m-[35m-[35m-[35m-[35m-[35m-[35m-[35m-[35m-[35m-[35m-[35m-[35m-[35m-[35m-[35m-[35m-[35m-[35m-[0m 0f 84 e3 03 00 00    	[33mje     [0m[35m402f33[0m <[32m_Z13calc_speed_upv[0m[35m+0x[0m[35m883[0m>
  402b50:	[37m|[0m  [36m|[0m  [31m|[0m  [36m|[0m  [31m|[0m  [36m|[0m  [32m|[0m  [36m|[0m  [34m|[0m  [31m|[0m  [35m|[0m  [31m|[0m  [37m|[0m  [33m|[0m  [31m|[0m  [32m|[0m  [33m|[0m  [32m|[0m  [32m|[0m  [34m|[0m  [33m|[0m  [37m|[0m  [31m|[0m  [35m|[0m                    [35m|[0m                                 48 8b 45 18          	[33mmov    [0m[34mrax[0m,QWORD PTR [[34mrbp[0m+[35m0x18[0m]
  402b54:	[37m|[0m  [36m|[0m  [31m|[0m  [36m|[0m  [31m|[0m  [36m|[0m  [32m|[0m  [36m|[0m  [34m|[0m  [31m|[0m  [35m|[0m  [31m|[0m  [37m|[0m  [33m|[0m  [31m|[0m  [32m|[0m  [33m|[0m  [32m|[0m  [32m|[0m  [34m|[0m  [33m|[0m  [37m|[0m  [31m|[0m  [35m|[0m                    [35m|[0m                                 48 8d 70 01          	[33mlea    [0m[34mrsi[0m,[[34mrax[0m+[35m0x1[0m]
  402b58:	[37m|[0m  [36m|[0m  [31m|[0m  [36m|[0m  [31m|[0m  [36m|[0m  [32m|[0m  [36m|[0m  [34m|[0m  [31m|[0m  [35m|[0m  [31m|[0m  [37m|[0m  [33m|[0m  [31m|[0m  [32m|[0m  [33m|[0m  [32m|[0m  [32m|[0m  [34m|[0m  [33m|[0m  [37m|[0m  [31m|[0m  [35m|[0m                    [35m|[0m                                 e8 63 f5 ff ff       	[33mcall   [0m[35m4020c0[0m <[32m_ZdlPvm@plt[0m>
  402b5d:	[37m|[0m  [36m|[0m  [31m|[0m  [36m|[0m  [31m|[0m  [36m|[0m  [32m|[0m  [36m|[0m  [34m|[0m  [31m|[0m  [35m|[0m  [31m|[0m  [37m|[0m  [33m|[0m  [31m|[0m  [32m|[0m  [33m|[0m  [32m|[0m  [32m|[0m  [34m|[0m  [33m|[0m  [37m|[0m  [31m|[0m  [35m|[0m                    [35m|[0m                                 48 39 dd             	[33mcmp    [0m[34mrbp[0m,[34mrbx[0m
  402b60:	[37m|[0m  [36m|[0m  [31m|[0m  [36m|[0m  [31m|[0m  [36m|[0m  [32m|[0m  [36m|[0m  [34m|[0m  [31m|[0m  [35m|[0m  [31m|[0m  [37m|[0m  [33m|[0m  [31m|[0m  [32m|[0m  [33m|[0m  [32m|[0m  [32m|[0m  [34m|[0m  [33m|[0m  [37m|[0m  [31m+[31m-[31m-[35m|[31m-[31m-[31m-[31m-[31m-[31m-[31m-[31m-[31m-[31m-[31m-[31m-[31m-[31m-[31m-[31m-[31m-[31m-[31m-[31m-[35m|[31m-[31m-[31m-[31m-[31m-[31m-[31m-[31m-[31m-[31m-[31m-[31m-[31m-[31m-[31m-[31m-[31m-[31m-[31m-[31m-[31m-[31m-[31m-[31m-[31m-[31m-[31m-[31m-[31m-[31m-[31m-[31m-[0m 75 d9                	[33mjne    [0m[35m402b3b[0m <[32m_Z13calc_speed_upv[0m[35m+0x[0m[35m48b[0m>
  402b62:	[37m|[0m  [36m|[0m  [31m|[0m  [36m|[0m  [31m|[0m  [36m|[0m  [32m|[0m  [36m|[0m  [34m|[0m  [31m|[0m  [35m|[0m  [31m|[0m  [37m|[0m  [33m|[0m  [31m|[0m  [32m|[0m  [33m|[0m  [32m|[0m  [32m|[0m  [34m|[0m  [33m|[0m  [37m|[0m  [31m|[0m  [35m|[0m  [32m/[32m-[32m-[32m-[32m-[32m-[32m-[32m-[32m-[32m-[32m-[32m-[32m-[32m-[32m-[32m-[32m-[32m-[35m|[32m-[32m-[32m-[32m-[32m-[32m-[32m-[32m-[32m-[32m-[32m-[32m-[32m-[32m-[32m-[32m-[32m-[32m-[32m-[32m-[32m-[32m-[32m-[32m-[32m-[32m-[32m-[32m-[32m-[32m-[32m-[32m>[0m 48 8b bc 24 a0 00 00 	[33mmov    [0m[34mrdi[0m,QWORD PTR [[34mrsp[0m+[35m0xa0[0m]
  402b69:	[37m|[0m  [36m|[0m  [31m|[0m  [36m|[0m  [31m|[0m  [36m|[0m  [32m|[0m  [36m|[0m  [34m|[0m  [31m|[0m  [35m|[0m  [31m|[0m  [37m|[0m  [33m|[0m  [31m|[0m  [32m|[0m  [33m|[0m  [32m|[0m  [32m|[0m  [34m|[0m  [33m|[0m  [37m|[0m  [31m|[0m  [35m|[0m  [32m|[0m                 [35m|[0m                                 00 
  402b6a:	[37m|[0m  [36m|[0m  [31m|[0m  [36m|[0m  [31m|[0m  [36m|[0m  [32m|[0m  [36m|[0m  [34m|[0m  [31m|[0m  [35m|[0m  [31m|[0m  [37m|[0m  [33m|[0m  [31m|[0m  [32m|[0m  [33m|[0m  [32m|[0m  [32m|[0m  [34m|[0m  [33m|[0m  [37m|[0m  [31m|[0m  [35m|[0m  [32m|[0m                 [35m|[0m                                 4c 39 ef             	[33mcmp    [0m[34mrdi[0m,[34mr13[0m
  402b6d:	[37m|[0m  [36m|[0m  [31m|[0m  [36m|[0m  [31m|[0m  [36m|[0m  [32m|[0m  [36m|[0m  [34m|[0m  [31m|[0m  [35m|[0m  [31m|[0m  [37m|[0m  [33m|[0m  [31m|[0m  [32m|[0m  [33m|[0m  [32m|[0m  [32m|[0m  [34m|[0m  [33m|[0m  [37m|[0m  [31m|[0m  [35m|[0m  [32m|[0m                 [35m|[0m                             [32m/[32m-[32m-[0m 74 11                	[33mje     [0m[35m402b80[0m <[32m_Z13calc_speed_upv[0m[35m+0x[0m[35m4d0[0m>
  402b6f:	[37m|[0m  [36m|[0m  [31m|[0m  [36m|[0m  [31m|[0m  [36m|[0m  [32m|[0m  [36m|[0m  [34m|[0m  [31m|[0m  [35m|[0m  [31m|[0m  [37m|[0m  [33m|[0m  [31m|[0m  [32m|[0m  [33m|[0m  [32m|[0m  [32m|[0m  [34m|[0m  [33m|[0m  [37m|[0m  [31m|[0m  [35m|[0m  [32m|[0m                 [35m|[0m                             [32m|[0m   48 8b 84 24 b0 00 00 	[33mmov    [0m[34mrax[0m,QWORD PTR [[34mrsp[0m+[35m0xb0[0m]
  402b76:	[37m|[0m  [36m|[0m  [31m|[0m  [36m|[0m  [31m|[0m  [36m|[0m  [32m|[0m  [36m|[0m  [34m|[0m  [31m|[0m  [35m|[0m  [31m|[0m  [37m|[0m  [33m|[0m  [31m|[0m  [32m|[0m  [33m|[0m  [32m|[0m  [32m|[0m  [34m|[0m  [33m|[0m  [37m|[0m  [31m|[0m  [35m|[0m  [32m|[0m                 [35m|[0m                             [32m|[0m   00 
  402b77:	[37m|[0m  [36m|[0m  [31m|[0m  [36m|[0m  [31m|[0m  [36m|[0m  [32m|[0m  [36m|[0m  [34m|[0m  [31m|[0m  [35m|[0m  [31m|[0m  [37m|[0m  [33m|[0m  [31m|[0m  [32m|[0m  [33m|[0m  [32m|[0m  [32m|[0m  [34m|[0m  [33m|[0m  [37m|[0m  [31m|[0m  [35m|[0m  [32m|[0m                 [35m|[0m                             [32m|[0m   48 8d 70 01          	[33mlea    [0m[34mrsi[0m,[[34mrax[0m+[35m0x1[0m]
  402b7b:	[37m|[0m  [36m|[0m  [31m|[0m  [36m|[0m  [31m|[0m  [36m|[0m  [32m|[0m  [36m|[0m  [34m|[0m  [31m|[0m  [35m|[0m  [31m|[0m  [37m|[0m  [33m|[0m  [31m|[0m  [32m|[0m  [33m|[0m  [32m|[0m  [32m|[0m  [34m|[0m  [33m|[0m  [37m|[0m  [31m|[0m  [35m|[0m  [32m|[0m                 [35m|[0m                             [32m|[0m   e8 40 f5 ff ff       	[33mcall   [0m[35m4020c0[0m <[32m_ZdlPvm@plt[0m>
  402b80:	[37m|[0m  [36m|[0m  [31m|[0m  [36m|[0m  [31m|[0m  [36m|[0m  [32m|[0m  [36m|[0m  [34m|[0m  [31m|[0m  [35m|[0m  [31m|[0m  [37m|[0m  [33m|[0m  [31m|[0m  [32m|[0m  [33m|[0m  [32m|[0m  [32m|[0m  [34m|[0m  [33m|[0m  [37m|[0m  [31m|[0m  [35m|[0m  [32m|[0m                 [35m|[0m                             [32m\[32m-[32m>[0m 48 8b bc 24 80 00 00 	[33mmov    [0m[34mrdi[0m,QWORD PTR [[34mrsp[0m+[35m0x80[0m]
  402b87:	[37m|[0m  [36m|[0m  [31m|[0m  [36m|[0m  [31m|[0m  [36m|[0m  [32m|[0m  [36m|[0m  [34m|[0m  [31m|[0m  [35m|[0m  [31m|[0m  [37m|[0m  [33m|[0m  [31m|[0m  [32m|[0m  [33m|[0m  [32m|[0m  [32m|[0m  [34m|[0m  [33m|[0m  [37m|[0m  [31m|[0m  [35m|[0m  [32m|[0m                 [35m|[0m                                 00 
  402b88:	[37m|[0m  [36m|[0m  [31m|[0m  [36m|[0m  [31m|[0m  [36m|[0m  [32m|[0m  [36m|[0m  [34m|[0m  [31m|[0m  [35m|[0m  [31m|[0m  [37m|[0m  [33m|[0m  [31m|[0m  [32m|[0m  [33m|[0m  [32m|[0m  [32m|[0m  [34m|[0m  [33m|[0m  [37m|[0m  [31m|[0m  [35m|[0m  [32m|[0m                 [35m|[0m                                 4c 39 e7             	[33mcmp    [0m[34mrdi[0m,[34mr12[0m
  402b8b:	[37m|[0m  [36m|[0m  [31m|[0m  [36m|[0m  [31m|[0m  [36m|[0m  [32m|[0m  [36m|[0m  [34m|[0m  [31m|[0m  [35m|[0m  [31m|[0m  [37m|[0m  [33m|[0m  [31m|[0m  [32m|[0m  [33m|[0m  [32m|[0m  [32m|[0m  [34m|[0m  [33m|[0m  [37m|[0m  [31m|[0m  [35m|[0m  [32m|[0m                 [35m|[0m                             [32m/--[0m 74 11                	[33mje     [0m[35m402b9e[0m <[32m_Z13calc_speed_upv[0m[35m+0x[0m[35m4ee[0m>
  402b8d:	[37m|[0m  [36m|[0m  [31m|[0m  [36m|[0m  [31m|[0m  [36m|[0m  [32m|[0m  [36m|[0m  [34m|[0m  [31m|[0m  [35m|[0m  [31m|[0m  [37m|[0m  [33m|[0m  [31m|[0m  [32m|[0m  [33m|[0m  [32m|[0m  [32m|[0m  [34m|[0m  [33m|[0m  [37m|[0m  [31m|[0m  [35m|[0m  [32m|[0m                 [35m|[0m                             [32m|[0m   48 8b 84 24 90 00 00 	[33mmov    [0m[34mrax[0m,QWORD PTR [[34mrsp[0m+[35m0x90[0m]
  402b94:	[37m|[0m  [36m|[0m  [31m|[0m  [36m|[0m  [31m|[0m  [36m|[0m  [32m|[0m  [36m|[0m  [34m|[0m  [31m|[0m  [35m|[0m  [31m|[0m  [37m|[0m  [33m|[0m  [31m|[0m  [32m|[0m  [33m|[0m  [32m|[0m  [32m|[0m  [34m|[0m  [33m|[0m  [37m|[0m  [31m|[0m  [35m|[0m  [32m|[0m                 [35m|[0m                             [32m|[0m   00 
  402b95:	[37m|[0m  [36m|[0m  [31m|[0m  [36m|[0m  [31m|[0m  [36m|[0m  [32m|[0m  [36m|[0m  [34m|[0m  [31m|[0m  [35m|[0m  [31m|[0m  [37m|[0m  [33m|[0m  [31m|[0m  [32m|[0m  [33m|[0m  [32m|[0m  [32m|[0m  [34m|[0m  [33m|[0m  [37m|[0m  [31m|[0m  [35m|[0m  [32m|[0m                 [35m|[0m                             [32m|[0m   48 8d 70 01          	[33mlea    [0m[34mrsi[0m,[[34mrax[0m+[35m0x1[0m]
  402b99:	[37m|[0m  [36m|[0m  [31m|[0m  [36m|[0m  [31m|[0m  [36m|[0m  [32m|[0m  [36m|[0m  [34m|[0m  [31m|[0m  [35m|[0m  [31m|[0m  [37m|[0m  [33m|[0m  [31m|[0m  [32m|[0m  [33m|[0m  [32m|[0m  [32m|[0m  [34m|[0m  [33m|[0m  [37m|[0m  [31m|[0m  [35m|[0m  [32m|[0m                 [35m|[0m                             [32m|[0m   e8 22 f5 ff ff       	[33mcall   [0m[35m4020c0[0m <[32m_ZdlPvm@plt[0m>
  402b9e:	[37m|[0m  [36m|[0m  [31m|[0m  [36m|[0m  [31m|[0m  [36m|[0m  [32m|[0m  [36m|[0m  [34m|[0m  [31m|[0m  [35m|[0m  [31m|[0m  [37m|[0m  [33m|[0m  [31m|[0m  [32m|[0m  [33m|[0m  [32m|[0m  [32m|[0m  [34m|[0m  [33m|[0m  [37m|[0m  [31m|[0m  [35m|[0m  [32m|[0m                 [35m|[0m                             [32m\->[0m 48 8b 7c 24 60       	[33mmov    [0m[34mrdi[0m,QWORD PTR [[34mrsp[0m+[35m0x60[0m]
  402ba3:	[37m|[0m  [36m|[0m  [31m|[0m  [36m|[0m  [31m|[0m  [36m|[0m  [32m|[0m  [36m|[0m  [34m|[0m  [31m|[0m  [35m|[0m  [31m|[0m  [37m|[0m  [33m|[0m  [31m|[0m  [32m|[0m  [33m|[0m  [32m|[0m  [32m|[0m  [34m|[0m  [33m|[0m  [37m|[0m  [31m|[0m  [35m|[0m  [32m|[0m                 [35m|[0m                                 48 8d 44 24 70       	[33mlea    [0m[34mrax[0m,[[34mrsp[0m+[35m0x70[0m]
  402ba8:	[37m|[0m  [36m|[0m  [31m|[0m  [36m|[0m  [31m|[0m  [36m|[0m  [32m|[0m  [36m|[0m  [34m|[0m  [31m|[0m  [35m|[0m  [31m|[0m  [37m|[0m  [33m|[0m  [31m|[0m  [32m|[0m  [33m|[0m  [32m|[0m  [32m|[0m  [34m|[0m  [33m|[0m  [37m|[0m  [31m|[0m  [35m|[0m  [32m|[0m                 [35m|[0m                                 48 39 c7             	[33mcmp    [0m[34mrdi[0m,[34mrax[0m
  402bab:	[37m|[0m  [36m|[0m  [31m|[0m  [36m|[0m  [31m|[0m  [36m|[0m  [32m|[0m  [36m|[0m  [34m|[0m  [31m|[0m  [35m|[0m  [31m|[0m  [37m|[0m  [33m|[0m  [31m|[0m  [32m|[0m  [33m|[0m  [32m|[0m  [32m|[0m  [34m|[0m  [33m|[0m  [37m|[0m  [31m|[0m  [35m|[0m  [32m|[0m                 [35m|[0m                             [35m/--[0m 74 0e                	[33mje     [0m[35m402bbb[0m <[32m_Z13calc_speed_upv[0m[35m+0x[0m[35m50b[0m>
  402bad:	[37m|[0m  [36m|[0m  [31m|[0m  [36m|[0m  [31m|[0m  [36m|[0m  [32m|[0m  [36m|[0m  [34m|[0m  [31m|[0m  [35m|[0m  [31m|[0m  [37m|[0m  [33m|[0m  [31m|[0m  [32m|[0m  [33m|[0m  [32m|[0m  [32m|[0m  [34m|[0m  [33m|[0m  [37m|[0m  [31m|[0m  [35m|[0m  [32m|[0m                 [35m|[0m                             [35m|[0m   48 8b 44 24 70       	[33mmov    [0m[34mrax[0m,QWORD PTR [[34mrsp[0m+[35m0x70[0m]
  402bb2:	[37m|[0m  [36m|[0m  [31m|[0m  [36m|[0m  [31m|[0m  [36m|[0m  [32m|[0m  [36m|[0m  [34m|[0m  [31m|[0m  [35m|[0m  [31m|[0m  [37m|[0m  [33m|[0m  [31m|[0m  [32m|[0m  [33m|[0m  [32m|[0m  [32m|[0m  [34m|[0m  [33m|[0m  [37m|[0m  [31m|[0m  [35m|[0m  [32m|[0m                 [35m|[0m                             [35m|[0m   48 8d 70 01          	[33mlea    [0m[34mrsi[0m,[[34mrax[0m+[35m0x1[0m]
  402bb6:	[37m|[0m  [36m|[0m  [31m|[0m  [36m|[0m  [31m|[0m  [36m|[0m  [32m|[0m  [36m|[0m  [34m|[0m  [31m|[0m  [35m|[0m  [31m|[0m  [37m|[0m  [33m|[0m  [31m|[0m  [32m|[0m  [33m|[0m  [32m|[0m  [32m|[0m  [34m|[0m  [33m|[0m  [37m|[0m  [31m|[0m  [35m|[0m  [32m|[0m                 [35m|[0m                             [35m|[0m   e8 05 f5 ff ff       	[33mcall   [0m[35m4020c0[0m <[32m_ZdlPvm@plt[0m>
  402bbb:	[37m|[0m  [36m|[0m  [31m|[0m  [36m|[0m  [31m|[0m  [36m|[0m  [32m|[0m  [36m|[0m  [34m|[0m  [31m|[0m  [35m|[0m  [31m|[0m  [37m|[0m  [33m|[0m  [31m|[0m  [32m|[0m  [33m|[0m  [32m|[0m  [32m|[0m  [34m|[0m  [33m|[0m  [37m|[0m  [31m|[0m  [35m|[0m  [32m|[0m                 [35m|[0m                             [35m\->[0m 48 8b 7c 24 40       	[33mmov    [0m[34mrdi[0m,QWORD PTR [[34mrsp[0m+[35m0x40[0m]
  402bc0:	[37m|[0m  [36m|[0m  [31m|[0m  [36m|[0m  [31m|[0m  [36m|[0m  [32m|[0m  [36m|[0m  [34m|[0m  [31m|[0m  [35m|[0m  [31m|[0m  [37m|[0m  [33m|[0m  [31m|[0m  [32m|[0m  [33m|[0m  [32m|[0m  [32m|[0m  [34m|[0m  [33m|[0m  [37m|[0m  [31m|[0m  [35m|[0m  [32m|[0m                 [35m|[0m                                 4c 39 f7             	[33mcmp    [0m[34mrdi[0m,[34mr14[0m
  402bc3:	[37m|[0m  [36m|[0m  [31m|[0m  [36m|[0m  [31m|[0m  [36m|[0m  [32m|[0m  [36m|[0m  [34m|[0m  [31m|[0m  [35m|[0m  [31m|[0m  [37m|[0m  [33m|[0m  [31m|[0m  [32m|[0m  [33m|[0m  [32m|[0m  [32m|[0m  [34m|[0m  [33m|[0m  [37m|[0m  [31m|[0m  [35m|[0m  [32m|[0m                 [35m|[0m                             [36m/--[0m 74 0e                	[33mje     [0m[35m402bd3[0m <[32m_Z13calc_speed_upv[0m[35m+0x[0m[35m523[0m>
  402bc5:	[37m|[0m  [36m|[0m  [31m|[0m  [36m|[0m  [31m|[0m  [36m|[0m  [32m|[0m  [36m|[0m  [34m|[0m  [31m|[0m  [35m|[0m  [31m|[0m  [37m|[0m  [33m|[0m  [31m|[0m  [32m|[0m  [33m|[0m  [32m|[0m  [32m|[0m  [34m|[0m  [33m|[0m  [37m|[0m  [31m|[0m  [35m|[0m  [32m|[0m                 [35m|[0m                             [36m|[0m   48 8b 44 24 50       	[33mmov    [0m[34mrax[0m,QWORD PTR [[34mrsp[0m+[35m0x50[0m]
  402bca:	[37m|[0m  [36m|[0m  [31m|[0m  [36m|[0m  [31m|[0m  [36m|[0m  [32m|[0m  [36m|[0m  [34m|[0m  [31m|[0m  [35m|[0m  [31m|[0m  [37m|[0m  [33m|[0m  [31m|[0m  [32m|[0m  [33m|[0m  [32m|[0m  [32m|[0m  [34m|[0m  [33m|[0m  [37m|[0m  [31m|[0m  [35m|[0m  [32m|[0m                 [35m|[0m                             [36m|[0m   48 8d 70 01          	[33mlea    [0m[34mrsi[0m,[[34mrax[0m+[35m0x1[0m]
  402bce:	[37m|[0m  [36m|[0m  [31m|[0m  [36m|[0m  [31m|[0m  [36m|[0m  [32m|[0m  [36m|[0m  [34m|[0m  [31m|[0m  [35m|[0m  [31m|[0m  [37m|[0m  [33m|[0m  [31m|[0m  [32m|[0m  [33m|[0m  [32m|[0m  [32m|[0m  [34m|[0m  [33m|[0m  [37m|[0m  [31m|[0m  [35m|[0m  [32m|[0m                 [35m|[0m                             [36m|[0m   e8 ed f4 ff ff       	[33mcall   [0m[35m4020c0[0m <[32m_ZdlPvm@plt[0m>
  402bd3:	[37m|[0m  [36m|[0m  [31m|[0m  [36m|[0m  [31m|[0m  [36m|[0m  [32m|[0m  [36m|[0m  [34m|[0m  [31m|[0m  [35m|[0m  [31m|[0m  [37m|[0m  [33m|[0m  [31m|[0m  [32m|[0m  [33m|[0m  [32m|[0m  [32m|[0m  [34m|[0m  [33m|[0m  [37m|[0m  [31m|[0m  [35m|[0m  [32m|[0m                 [35m|[0m                             [36m\->[0m 49 8d 87 f0 00 00 00 	[33mlea    [0m[34mrax[0m,[[34mr15[0m+[35m0xf0[0m]
  402bda:	[37m|[0m  [36m|[0m  [31m|[0m  [36m|[0m  [31m|[0m  [36m|[0m  [32m|[0m  [36m|[0m  [34m|[0m  [31m|[0m  [35m|[0m  [31m|[0m  [37m|[0m  [33m|[0m  [31m|[0m  [32m|[0m  [33m|[0m  [32m|[0m  [32m|[0m  [34m|[0m  [33m|[0m  [37m|[0m  [31m|[0m  [35m|[0m  [32m|[0m                 [35m|[0m                                 4c 8b 74 24 08       	[33mmov    [0m[34mr14[0m,QWORD PTR [[34mrsp[0m+[35m0x8[0m]
  402bdf:	[37m|[0m  [36m|[0m  [31m|[0m  [36m|[0m  [31m|[0m  [36m|[0m  [32m|[0m  [36m|[0m  [34m|[0m  [31m|[0m  [35m|[0m  [31m|[0m  [37m|[0m  [33m|[0m  [31m|[0m  [32m|[0m  [33m|[0m  [32m|[0m  [32m|[0m  [34m|[0m  [33m|[0m  [37m|[0m  [31m|[0m  [35m|[0m  [32m|[0m                 [35m|[0m                                 48 89 44 24 08       	[33mmov    [0mQWORD PTR [[34mrsp[0m+[35m0x8[0m],[34mrax[0m
  402be4:	[37m|[0m  [36m|[0m  [31m|[0m  [36m|[0m  [31m|[0m  [36m|[0m  [32m|[0m  [36m|[0m  [34m|[0m  [31m|[0m  [35m|[0m  [31m|[0m  [37m|[0m  [33m|[0m  [31m|[0m  [32m|[0m  [33m|[0m  [32m|[0m  [32m|[0m  [34m|[0m  [33m|[0m  [37m|[0m  [31m|[0m  [35m|[0m  [32m|[0m                 [35m|[0m                                 66 66 2e 0f 1f 84 00 	[33mdata16 [0m[33mcs [0m[33mnop [0mWORD PTR [[34mrax[0m+[34mrax[0m*[35m1[0m+[35m0x0[0m]
  402beb:	[37m|[0m  [36m|[0m  [31m|[0m  [36m|[0m  [31m|[0m  [36m|[0m  [32m|[0m  [36m|[0m  [34m|[0m  [31m|[0m  [35m|[0m  [31m|[0m  [37m|[0m  [33m|[0m  [31m|[0m  [32m|[0m  [33m|[0m  [32m|[0m  [32m|[0m  [34m|[0m  [33m|[0m  [37m|[0m  [31m|[0m  [35m|[0m  [32m|[0m                 [35m|[0m                                 00 00 00 00 
  402bef:	[37m|[0m  [36m|[0m  [31m|[0m  [36m|[0m  [31m|[0m  [36m|[0m  [32m|[0m  [36m|[0m  [34m|[0m  [31m|[0m  [35m|[0m  [31m|[0m  [37m|[0m  [33m|[0m  [31m|[0m  [32m|[0m  [33m|[0m  [32m|[0m  [32m|[0m  [34m|[0m  [33m|[0m  [37m|[0m  [31m|[0m  [35m|[0m  [32m|[0m                 [35m|[0m                                 90                   	[33mnop[0m
  402bf0:	[37m|[0m  [36m|[0m  [31m|[0m  [36m|[0m  [31m|[0m  [36m|[0m  [32m|[0m  [36m|[0m  [34m|[0m  [31m|[0m  [35m|[0m  [31m|[0m  [37m|[0m  [33m|[0m  [31m|[0m  [32m|[0m  [33m|[0m  [32m|[0m  [32m|[0m  [34m|[0m  [33m|[0m  [37m|[0m  [31m|[0m  [35m|[0m  [32m|[0m                 [35m|[0m                          [34m/[34m-[34m-[34m-[34m-[34m>[0m be 80 02 00 00       	[33mmov    [0m[34mesi[0m,[35m0x280[0m
  402bf5:	[37m|[0m  [36m|[0m  [31m|[0m  [36m|[0m  [31m|[0m  [36m|[0m  [32m|[0m  [36m|[0m  [34m|[0m  [31m|[0m  [35m|[0m  [31m|[0m  [37m|[0m  [33m|[0m  [31m|[0m  [32m|[0m  [33m|[0m  [32m|[0m  [32m|[0m  [34m|[0m  [33m|[0m  [37m|[0m  [31m|[0m  [35m|[0m  [32m|[0m                 [35m|[0m                          [34m|[0m      48 8d 7c 24 10       	[33mlea    [0m[34mrdi[0m,[[34mrsp[0m+[35m0x10[0m]
  402bfa:	[37m|[0m  [36m|[0m  [31m|[0m  [36m|[0m  [31m|[0m  [36m|[0m  [32m|[0m  [36m|[0m  [34m|[0m  [31m|[0m  [35m|[0m  [31m|[0m  [37m|[0m  [33m|[0m  [31m|[0m  [32m|[0m  [33m|[0m  [32m|[0m  [32m|[0m  [34m|[0m  [33m|[0m  [37m|[0m  [31m|[0m  [35m|[0m  [32m|[0m                 [35m|[0m                          [34m|[0m      4d 8b 6e d0          	[33mmov    [0m[34mr13[0m,QWORD PTR [[34mr14[0m[35m-[0m[35m0x30[0m]
  402bfe:	[37m|[0m  [36m|[0m  [31m|[0m  [36m|[0m  [31m|[0m  [36m|[0m  [32m|[0m  [36m|[0m  [34m|[0m  [31m|[0m  [35m|[0m  [31m|[0m  [37m|[0m  [33m|[0m  [31m|[0m  [32m|[0m  [33m|[0m  [32m|[0m  [32m|[0m  [34m|[0m  [33m|[0m  [37m|[0m  [31m|[0m  [35m|[0m  [32m|[0m                 [35m|[0m                          [34m|[0m      e8 3d 13 00 00       	[33mcall   [0m[35m403f40[0m <[32m_ZN3MtxC1Ej[0m>
  402c03:	[37m|[0m  [36m|[0m  [31m|[0m  [36m|[0m  [31m|[0m  [36m|[0m  [32m|[0m  [36m|[0m  [34m|[0m  [31m|[0m  [35m|[0m  [31m|[0m  [37m|[0m  [33m|[0m  [31m|[0m  [32m|[0m  [33m|[0m  [32m|[0m  [32m|[0m  [34m|[0m  [33m|[0m  [37m|[0m  [31m|[0m  [35m|[0m  [32m|[0m                 [35m|[0m                          [34m|[0m      be 80 02 00 00       	[33mmov    [0m[34mesi[0m,[35m0x280[0m
  402c08:	[37m|[0m  [36m|[0m  [31m|[0m  [36m|[0m  [31m|[0m  [36m|[0m  [32m|[0m  [36m|[0m  [34m|[0m  [31m|[0m  [35m|[0m  [31m|[0m  [37m|[0m  [33m|[0m  [31m|[0m  [32m|[0m  [33m|[0m  [32m|[0m  [32m|[0m  [34m|[0m  [33m|[0m  [37m|[0m  [31m|[0m  [35m|[0m  [32m|[0m                 [35m|[0m                          [34m|[0m      48 8d 7c 24 20       	[33mlea    [0m[34mrdi[0m,[[34mrsp[0m+[35m0x20[0m]
  402c0d:	[37m|[0m  [36m|[0m  [31m|[0m  [36m|[0m  [31m|[0m  [36m|[0m  [32m|[0m  [36m|[0m  [34m|[0m  [31m|[0m  [35m|[0m  [31m|[0m  [37m|[0m  [33m|[0m  [31m|[0m  [32m|[0m  [33m|[0m  [32m|[0m  [32m|[0m  [34m|[0m  [33m|[0m  [37m|[0m  [31m|[0m  [35m|[0m  [32m|[0m                 [35m|[0m                          [34m|[0m      e8 2e 13 00 00       	[33mcall   [0m[35m403f40[0m <[32m_ZN3MtxC1Ej[0m>
  402c12:	[37m|[0m  [36m|[0m  [31m|[0m  [36m|[0m  [31m|[0m  [36m|[0m  [32m|[0m  [36m|[0m  [34m|[0m  [31m|[0m  [35m|[0m  [31m|[0m  [37m|[0m  [33m|[0m  [31m|[0m  [32m|[0m  [33m|[0m  [32m|[0m  [32m|[0m  [34m|[0m  [33m|[0m  [37m|[0m  [31m|[0m  [35m|[0m  [32m|[0m                 [35m|[0m                          [34m|[0m      be 80 02 00 00       	[33mmov    [0m[34mesi[0m,[35m0x280[0m
  402c17:	[37m|[0m  [36m|[0m  [31m|[0m  [36m|[0m  [31m|[0m  [36m|[0m  [32m|[0m  [36m|[0m  [34m|[0m  [31m|[0m  [35m|[0m  [31m|[0m  [37m|[0m  [33m|[0m  [31m|[0m  [32m|[0m  [33m|[0m  [32m|[0m  [32m|[0m  [34m|[0m  [33m|[0m  [37m|[0m  [31m|[0m  [35m|[0m  [32m|[0m                 [35m|[0m                          [34m|[0m      48 8d 7c 24 30       	[33mlea    [0m[34mrdi[0m,[[34mrsp[0m+[35m0x30[0m]
  402c1c:	[37m|[0m  [36m|[0m  [31m|[0m  [36m|[0m  [31m|[0m  [36m|[0m  [32m|[0m  [36m|[0m  [34m|[0m  [31m|[0m  [35m|[0m  [31m|[0m  [37m|[0m  [33m|[0m  [31m|[0m  [32m|[0m  [33m|[0m  [32m|[0m  [32m|[0m  [34m|[0m  [33m|[0m  [37m|[0m  [31m|[0m  [35m|[0m  [32m|[0m                 [35m|[0m                          [34m|[0m      e8 1f 13 00 00       	[33mcall   [0m[35m403f40[0m <[32m_ZN3MtxC1Ej[0m>
  402c21:	[37m|[0m  [36m|[0m  [31m|[0m  [36m|[0m  [31m|[0m  [36m|[0m  [32m|[0m  [36m|[0m  [34m|[0m  [31m|[0m  [35m|[0m  [31m|[0m  [37m|[0m  [33m|[0m  [31m|[0m  [32m|[0m  [33m|[0m  [32m|[0m  [32m|[0m  [34m|[0m  [33m|[0m  [37m|[0m  [31m|[0m  [35m|[0m  [32m|[0m                 [35m|[0m                          [34m|[0m      bd 0b 00 00 00       	[33mmov    [0m[34mebp[0m,[35m0xb[0m
  402c26:	[37m|[0m  [36m|[0m  [31m|[0m  [36m|[0m  [31m|[0m  [36m|[0m  [32m|[0m  [36m|[0m  [34m|[0m  [31m|[0m  [35m|[0m  [31m|[0m  [37m|[0m  [33m|[0m  [31m|[0m  [32m|[0m  [33m|[0m  [32m|[0m  [32m|[0m  [34m|[0m  [33m|[0m  [37m|[0m  [31m|[0m  [35m|[0m  [32m|[0m                 [35m|[0m                          [34m|[0m      45 31 e4             	[33mxor    [0m[34mr12d[0m,[34mr12d[0m
  402c29:	[37m|[0m  [36m|[0m  [31m|[0m  [36m|[0m  [31m|[0m  [36m|[0m  [32m|[0m  [36m|[0m  [34m|[0m  [31m|[0m  [35m|[0m  [31m|[0m  [37m|[0m  [33m|[0m  [31m|[0m  [32m|[0m  [33m|[0m  [32m|[0m  [32m|[0m  [34m|[0m  [33m|[0m  [37m|[0m  [31m|[0m  [35m|[0m  [32m|[0m                 [35m|[0m                          [34m|[0m      0f 1f 80 00 00 00 00 	[33mnop    [0mDWORD PTR [[34mrax[0m+[35m0x0[0m]
  402c30:	[37m|[0m  [36m|[0m  [31m|[0m  [36m|[0m  [31m|[0m  [36m|[0m  [32m|[0m  [36m|[0m  [34m|[0m  [31m|[0m  [35m|[0m  [31m|[0m  [37m|[0m  [33m|[0m  [31m|[0m  [32m|[0m  [33m|[0m  [32m|[0m  [32m|[0m  [34m|[0m  [33m|[0m  [37m|[0m  [31m|[0m  [35m|[0m  [32m|[0m                 [35m|[0m                          [34m|[0m  [34m/[34m-[34m>[0m 48 8b 05 01 24 00 00 	[33mmov    [0m[34mrax[0m,QWORD PTR [[34mrip[0m+[35m0x2401[0m]        # 405038 <_IO_stdin_used+0x38>
  402c37:	[37m|[0m  [36m|[0m  [31m|[0m  [36m|[0m  [31m|[0m  [36m|[0m  [32m|[0m  [36m|[0m  [34m|[0m  [31m|[0m  [35m|[0m  [31m|[0m  [37m|[0m  [33m|[0m  [31m|[0m  [32m|[0m  [33m|[0m  [32m|[0m  [32m|[0m  [34m|[0m  [33m|[0m  [37m|[0m  [31m|[0m  [35m|[0m  [32m|[0m                 [35m|[0m                          [34m|[0m  [34m|[0m   48 8d 7c 24 10       	[33mlea    [0m[34mrdi[0m,[[34mrsp[0m+[35m0x10[0m]
  402c3c:	[37m|[0m  [36m|[0m  [31m|[0m  [36m|[0m  [31m|[0m  [36m|[0m  [32m|[0m  [36m|[0m  [34m|[0m  [31m|[0m  [35m|[0m  [31m|[0m  [37m|[0m  [33m|[0m  [31m|[0m  [32m|[0m  [33m|[0m  [32m|[0m  [32m|[0m  [34m|[0m  [33m|[0m  [37m|[0m  [31m|[0m  [35m|[0m  [32m|[0m                 [35m|[0m                          [34m|[0m  [34m|[0m   c4 e1 f9 6e c8       	[33mvmovq  [0m[34mxmm1[0m,[34mrax[0m
  402c41:	[37m|[0m  [36m|[0m  [31m|[0m  [36m|[0m  [31m|[0m  [36m|[0m  [32m|[0m  [36m|[0m  [34m|[0m  [31m|[0m  [35m|[0m  [31m|[0m  [37m|[0m  [33m|[0m  [31m|[0m  [32m|[0m  [33m|[0m  [32m|[0m  [32m|[0m  [34m|[0m  [33m|[0m  [37m|[0m  [31m|[0m  [35m|[0m  [32m|[0m                 [35m|[0m                          [34m|[0m  [34m|[0m   48 8b 05 f8 23 00 00 	[33mmov    [0m[34mrax[0m,QWORD PTR [[34mrip[0m+[35m0x23f8[0m]        # 405040 <_IO_stdin_used+0x40>
  402c48:	[37m|[0m  [36m|[0m  [31m|[0m  [36m|[0m  [31m|[0m  [36m|[0m  [32m|[0m  [36m|[0m  [34m|[0m  [31m|[0m  [35m|[0m  [31m|[0m  [37m|[0m  [33m|[0m  [31m|[0m  [32m|[0m  [33m|[0m  [32m|[0m  [32m|[0m  [34m|[0m  [33m|[0m  [37m|[0m  [31m|[0m  [35m|[0m  [32m|[0m                 [35m|[0m                          [34m|[0m  [34m|[0m   c4 e1 f9 6e c0       	[33mvmovq  [0m[34mxmm0[0m,[34mrax[0m
  402c4d:	[37m|[0m  [36m|[0m  [31m|[0m  [36m|[0m  [31m|[0m  [36m|[0m  [32m|[0m  [36m|[0m  [34m|[0m  [31m|[0m  [35m|[0m  [31m|[0m  [37m|[0m  [33m|[0m  [31m|[0m  [32m|[0m  [33m|[0m  [32m|[0m  [32m|[0m  [34m|[0m  [33m|[0m  [37m|[0m  [31m|[0m  [35m|[0m  [32m|[0m                 [35m|[0m                          [34m|[0m  [34m|[0m   e8 9e 13 00 00       	[33mcall   [0m[35m403ff0[0m <[32m_ZN3Mtx8generateEdd[0m>
  402c52:	[37m|[0m  [36m|[0m  [31m|[0m  [36m|[0m  [31m|[0m  [36m|[0m  [32m|[0m  [36m|[0m  [34m|[0m  [31m|[0m  [35m|[0m  [31m|[0m  [37m|[0m  [33m|[0m  [31m|[0m  [32m|[0m  [33m|[0m  [32m|[0m  [32m|[0m  [34m|[0m  [33m|[0m  [37m|[0m  [31m|[0m  [35m|[0m  [32m|[0m                 [35m|[0m                          [34m|[0m  [34m|[0m   48 8b 05 df 23 00 00 	[33mmov    [0m[34mrax[0m,QWORD PTR [[34mrip[0m+[35m0x23df[0m]        # 405038 <_IO_stdin_used+0x38>
  402c59:	[37m|[0m  [36m|[0m  [31m|[0m  [36m|[0m  [31m|[0m  [36m|[0m  [32m|[0m  [36m|[0m  [34m|[0m  [31m|[0m  [35m|[0m  [31m|[0m  [37m|[0m  [33m|[0m  [31m|[0m  [32m|[0m  [33m|[0m  [32m|[0m  [32m|[0m  [34m|[0m  [33m|[0m  [37m|[0m  [31m|[0m  [35m|[0m  [32m|[0m                 [35m|[0m                          [34m|[0m  [34m|[0m   48 8d 7c 24 20       	[33mlea    [0m[34mrdi[0m,[[34mrsp[0m+[35m0x20[0m]
  402c5e:	[37m|[0m  [36m|[0m  [31m|[0m  [36m|[0m  [31m|[0m  [36m|[0m  [32m|[0m  [36m|[0m  [34m|[0m  [31m|[0m  [35m|[0m  [31m|[0m  [37m|[0m  [33m|[0m  [31m|[0m  [32m|[0m  [33m|[0m  [32m|[0m  [32m|[0m  [34m|[0m  [33m|[0m  [37m|[0m  [31m|[0m  [35m|[0m  [32m|[0m                 [35m|[0m                          [34m|[0m  [34m|[0m   c4 e1 f9 6e c8       	[33mvmovq  [0m[34mxmm1[0m,[34mrax[0m
  402c63:	[37m|[0m  [36m|[0m  [31m|[0m  [36m|[0m  [31m|[0m  [36m|[0m  [32m|[0m  [36m|[0m  [34m|[0m  [31m|[0m  [35m|[0m  [31m|[0m  [37m|[0m  [33m|[0m  [31m|[0m  [32m|[0m  [33m|[0m  [32m|[0m  [32m|[0m  [34m|[0m  [33m|[0m  [37m|[0m  [31m|[0m  [35m|[0m  [32m|[0m                 [35m|[0m                          [34m|[0m  [34m|[0m   48 8b 05 d6 23 00 00 	[33mmov    [0m[34mrax[0m,QWORD PTR [[34mrip[0m+[35m0x23d6[0m]        # 405040 <_IO_stdin_used+0x40>
  402c6a:	[37m|[0m  [36m|[0m  [31m|[0m  [36m|[0m  [31m|[0m  [36m|[0m  [32m|[0m  [36m|[0m  [34m|[0m  [31m|[0m  [35m|[0m  [31m|[0m  [37m|[0m  [33m|[0m  [31m|[0m  [32m|[0m  [33m|[0m  [32m|[0m  [32m|[0m  [34m|[0m  [33m|[0m  [37m|[0m  [31m|[0m  [35m|[0m  [32m|[0m                 [35m|[0m                          [34m|[0m  [34m|[0m   c4 e1 f9 6e c0       	[33mvmovq  [0m[34mxmm0[0m,[34mrax[0m
  402c6f:	[37m|[0m  [36m|[0m  [31m|[0m  [36m|[0m  [31m|[0m  [36m|[0m  [32m|[0m  [36m|[0m  [34m|[0m  [31m|[0m  [35m|[0m  [31m|[0m  [37m|[0m  [33m|[0m  [31m|[0m  [32m|[0m  [33m|[0m  [32m|[0m  [32m|[0m  [34m|[0m  [33m|[0m  [37m|[0m  [31m|[0m  [35m|[0m  [32m|[0m                 [35m|[0m                          [34m|[0m  [34m|[0m   e8 7c 13 00 00       	[33mcall   [0m[35m403ff0[0m <[32m_ZN3Mtx8generateEdd[0m>
  402c74:	[37m|[0m  [36m|[0m  [31m|[0m  [36m|[0m  [31m|[0m  [36m|[0m  [32m|[0m  [36m|[0m  [34m|[0m  [31m|[0m  [35m|[0m  [31m|[0m  [37m|[0m  [33m|[0m  [31m|[0m  [32m|[0m  [33m|[0m  [32m|[0m  [32m|[0m  [34m|[0m  [33m|[0m  [37m|[0m  [31m|[0m  [35m|[0m  [32m|[0m                 [35m|[0m                          [34m|[0m  [34m|[0m   48 8d 7c 24 30       	[33mlea    [0m[34mrdi[0m,[[34mrsp[0m+[35m0x30[0m]
  402c79:	[37m|[0m  [36m|[0m  [31m|[0m  [36m|[0m  [31m|[0m  [36m|[0m  [32m|[0m  [36m|[0m  [34m|[0m  [31m|[0m  [35m|[0m  [31m|[0m  [37m|[0m  [33m|[0m  [31m|[0m  [32m|[0m  [33m|[0m  [32m|[0m  [32m|[0m  [34m|[0m  [33m|[0m  [37m|[0m  [31m|[0m  [35m|[0m  [32m|[0m                 [35m|[0m                          [34m|[0m  [34m|[0m   e8 42 13 00 00       	[33mcall   [0m[35m403fc0[0m <[32m_ZN3Mtx4zeroEv[0m>
  402c7e:	[37m|[0m  [36m|[0m  [31m|[0m  [36m|[0m  [31m|[0m  [36m|[0m  [32m|[0m  [36m|[0m  [34m|[0m  [31m|[0m  [35m|[0m  [31m|[0m  [37m|[0m  [33m|[0m  [31m|[0m  [32m|[0m  [33m|[0m  [32m|[0m  [32m|[0m  [34m|[0m  [33m|[0m  [37m|[0m  [31m|[0m  [35m|[0m  [32m|[0m                 [35m|[0m                          [34m|[0m  [34m|[0m   e8 6d 12 00 00       	[33mcall   [0m[35m403ef0[0m <[32m_Z13get_timestampv[0m>
  402c83:	[37m|[0m  [36m|[0m  [31m|[0m  [36m|[0m  [31m|[0m  [36m|[0m  [32m|[0m  [36m|[0m  [34m|[0m  [31m|[0m  [35m|[0m  [31m|[0m  [37m|[0m  [33m|[0m  [31m|[0m  [32m|[0m  [33m|[0m  [32m|[0m  [32m|[0m  [34m|[0m  [33m|[0m  [37m|[0m  [31m|[0m  [35m|[0m  [32m|[0m                 [35m|[0m                          [34m|[0m  [34m|[0m   48 8b 4c 24 30       	[33mmov    [0m[34mrcx[0m,QWORD PTR [[34mrsp[0m+[35m0x30[0m]
  402c88:	[37m|[0m  [36m|[0m  [31m|[0m  [36m|[0m  [31m|[0m  [36m|[0m  [32m|[0m  [36m|[0m  [34m|[0m  [31m|[0m  [35m|[0m  [31m|[0m  [37m|[0m  [33m|[0m  [31m|[0m  [32m|[0m  [33m|[0m  [32m|[0m  [32m|[0m  [34m|[0m  [33m|[0m  [37m|[0m  [31m|[0m  [35m|[0m  [32m|[0m                 [35m|[0m                          [34m|[0m  [34m|[0m   48 8b 54 24 20       	[33mmov    [0m[34mrdx[0m,QWORD PTR [[34mrsp[0m+[35m0x20[0m]
  402c8d:	[37m|[0m  [36m|[0m  [31m|[0m  [36m|[0m  [31m|[0m  [36m|[0m  [32m|[0m  [36m|[0m  [34m|[0m  [31m|[0m  [35m|[0m  [31m|[0m  [37m|[0m  [33m|[0m  [31m|[0m  [32m|[0m  [33m|[0m  [32m|[0m  [32m|[0m  [34m|[0m  [33m|[0m  [37m|[0m  [31m|[0m  [35m|[0m  [32m|[0m                 [35m|[0m                          [34m|[0m  [34m|[0m   48 89 c3             	[33mmov    [0m[34mrbx[0m,[34mrax[0m
  402c90:	[37m|[0m  [36m|[0m  [31m|[0m  [36m|[0m  [31m|[0m  [36m|[0m  [32m|[0m  [36m|[0m  [34m|[0m  [31m|[0m  [35m|[0m  [31m|[0m  [37m|[0m  [33m|[0m  [31m|[0m  [32m|[0m  [33m|[0m  [32m|[0m  [32m|[0m  [34m|[0m  [33m|[0m  [37m|[0m  [31m|[0m  [35m|[0m  [32m|[0m                 [35m|[0m                          [34m|[0m  [34m|[0m   bf 80 02 00 00       	[33mmov    [0m[34medi[0m,[35m0x280[0m
  402c95:	[37m|[0m  [36m|[0m  [31m|[0m  [36m|[0m  [31m|[0m  [36m|[0m  [32m|[0m  [36m|[0m  [34m|[0m  [31m|[0m  [35m|[0m  [31m|[0m  [37m|[0m  [33m|[0m  [31m|[0m  [32m|[0m  [33m|[0m  [32m|[0m  [32m|[0m  [34m|[0m  [33m|[0m  [37m|[0m  [31m|[0m  [35m|[0m  [32m|[0m                 [35m|[0m                          [34m|[0m  [34m|[0m   48 8b 74 24 10       	[33mmov    [0m[34mrsi[0m,QWORD PTR [[34mrsp[0m+[35m0x10[0m]
  402c9a:	[37m|[0m  [36m|[0m  [31m|[0m  [36m|[0m  [31m|[0m  [36m|[0m  [32m|[0m  [36m|[0m  [34m|[0m  [31m|[0m  [35m|[0m  [31m|[0m  [37m|[0m  [33m|[0m  [31m|[0m  [32m|[0m  [33m|[0m  [32m|[0m  [32m|[0m  [34m|[0m  [33m|[0m  [37m|[0m  [31m|[0m  [35m|[0m  [32m|[0m                 [35m|[0m                          [34m|[0m  [34m|[0m   41 ff d5             	[33mcall   [0m[34mr13[0m
  402c9d:	[37m|[0m  [36m|[0m  [31m|[0m  [36m|[0m  [31m|[0m  [36m|[0m  [32m|[0m  [36m|[0m  [34m|[0m  [31m|[0m  [35m|[0m  [31m|[0m  [37m|[0m  [33m|[0m  [31m|[0m  [32m|[0m  [33m|[0m  [32m|[0m  [32m|[0m  [34m|[0m  [33m|[0m  [37m|[0m  [31m|[0m  [35m|[0m  [32m|[0m                 [35m|[0m                          [34m|[0m  [34m|[0m   e8 4e 12 00 00       	[33mcall   [0m[35m403ef0[0m <[32m_Z13get_timestampv[0m>
  402ca2:	[37m|[0m  [36m|[0m  [31m|[0m  [36m|[0m  [31m|[0m  [36m|[0m  [32m|[0m  [36m|[0m  [34m|[0m  [31m|[0m  [35m|[0m  [31m|[0m  [37m|[0m  [33m|[0m  [31m|[0m  [32m|[0m  [33m|[0m  [32m|[0m  [32m|[0m  [34m|[0m  [33m|[0m  [37m|[0m  [31m|[0m  [35m|[0m  [32m|[0m                 [35m|[0m                          [34m|[0m  [34m|[0m   48 29 d8             	[33msub    [0m[34mrax[0m,[34mrbx[0m
  402ca5:	[37m|[0m  [36m|[0m  [31m|[0m  [36m|[0m  [31m|[0m  [36m|[0m  [32m|[0m  [36m|[0m  [34m|[0m  [31m|[0m  [35m|[0m  [31m|[0m  [37m|[0m  [33m|[0m  [31m|[0m  [32m|[0m  [33m|[0m  [32m|[0m  [32m|[0m  [34m|[0m  [33m|[0m  [37m|[0m  [31m|[0m  [35m|[0m  [32m|[0m                 [35m|[0m                          [34m|[0m  [34m|[0m   49 01 c4             	[33madd    [0m[34mr12[0m,[34mrax[0m
  402ca8:	[37m|[0m  [36m|[0m  [31m|[0m  [36m|[0m  [31m|[0m  [36m|[0m  [32m|[0m  [36m|[0m  [34m|[0m  [31m|[0m  [35m|[0m  [31m|[0m  [37m|[0m  [33m|[0m  [31m|[0m  [32m|[0m  [33m|[0m  [32m|[0m  [32m|[0m  [34m|[0m  [33m|[0m  [37m|[0m  [31m|[0m  [35m|[0m  [32m|[0m                 [35m|[0m                          [34m|[0m  [34m|[0m   ff cd                	[33mdec    [0m[34mebp[0m
  402caa:	[37m|[0m  [36m|[0m  [31m|[0m  [36m|[0m  [31m|[0m  [36m|[0m  [32m|[0m  [36m|[0m  [34m|[0m  [31m|[0m  [35m|[0m  [31m|[0m  [37m|[0m  [33m|[0m  [31m|[0m  [32m|[0m  [33m|[0m  [32m|[0m  [32m|[0m  [34m|[0m  [33m|[0m  [37m|[0m  [31m|[0m  [35m|[0m  [32m|[0m                 [35m|[0m                          [34m|[0m  [34m\[34m-[34m-[0m 75 84                	[33mjne    [0m[35m402c30[0m <[32m_Z13calc_speed_upv[0m[35m+0x[0m[35m580[0m>
  402cac:	[37m|[0m  [36m|[0m  [31m|[0m  [36m|[0m  [31m|[0m  [36m|[0m  [32m|[0m  [36m|[0m  [34m|[0m  [31m|[0m  [35m|[0m  [31m|[0m  [37m|[0m  [33m|[0m  [31m|[0m  [32m|[0m  [33m|[0m  [32m|[0m  [32m|[0m  [34m|[0m  [33m|[0m  [37m|[0m  [31m|[0m  [35m|[0m  [32m|[0m                 [35m|[0m                          [34m|[0m      48 8d 7c 24 30       	[33mlea    [0m[34mrdi[0m,[[34mrsp[0m+[35m0x30[0m]
  402cb1:	[37m|[0m  [36m|[0m  [31m|[0m  [36m|[0m  [31m|[0m  [36m|[0m  [32m|[0m  [36m|[0m  [34m|[0m  [31m|[0m  [35m|[0m  [31m|[0m  [37m|[0m  [33m|[0m  [31m|[0m  [32m|[0m  [33m|[0m  [32m|[0m  [32m|[0m  [34m|[0m  [33m|[0m  [37m|[0m  [31m|[0m  [35m|[0m  [32m|[0m                 [35m|[0m                          [34m|[0m      e8 fa 12 00 00       	[33mcall   [0m[35m403fb0[0m <[32m_ZN3MtxD1Ev[0m>
  402cb6:	[37m|[0m  [36m|[0m  [31m|[0m  [36m|[0m  [31m|[0m  [36m|[0m  [32m|[0m  [36m|[0m  [34m|[0m  [31m|[0m  [35m|[0m  [31m|[0m  [37m|[0m  [33m|[0m  [31m|[0m  [32m|[0m  [33m|[0m  [32m|[0m  [32m|[0m  [34m|[0m  [33m|[0m  [37m|[0m  [31m|[0m  [35m|[0m  [32m|[0m                 [35m|[0m                          [34m|[0m      48 8d 7c 24 20       	[33mlea    [0m[34mrdi[0m,[[34mrsp[0m+[35m0x20[0m]
  402cbb:	[37m|[0m  [36m|[0m  [31m|[0m  [36m|[0m  [31m|[0m  [36m|[0m  [32m|[0m  [36m|[0m  [34m|[0m  [31m|[0m  [35m|[0m  [31m|[0m  [37m|[0m  [33m|[0m  [31m|[0m  [32m|[0m  [33m|[0m  [32m|[0m  [32m|[0m  [34m|[0m  [33m|[0m  [37m|[0m  [31m|[0m  [35m|[0m  [32m|[0m                 [35m|[0m                          [34m|[0m      e8 f0 12 00 00       	[33mcall   [0m[35m403fb0[0m <[32m_ZN3MtxD1Ev[0m>
  402cc0:	[37m|[0m  [36m|[0m  [31m|[0m  [36m|[0m  [31m|[0m  [36m|[0m  [32m|[0m  [36m|[0m  [34m|[0m  [31m|[0m  [35m|[0m  [31m|[0m  [37m|[0m  [33m|[0m  [31m|[0m  [32m|[0m  [33m|[0m  [32m|[0m  [32m|[0m  [34m|[0m  [33m|[0m  [37m|[0m  [31m|[0m  [35m|[0m  [32m|[0m                 [35m|[0m                          [34m|[0m      48 8d 7c 24 10       	[33mlea    [0m[34mrdi[0m,[[34mrsp[0m+[35m0x10[0m]
  402cc5:	[37m|[0m  [36m|[0m  [31m|[0m  [36m|[0m  [31m|[0m  [36m|[0m  [32m|[0m  [36m|[0m  [34m|[0m  [31m|[0m  [35m|[0m  [31m|[0m  [37m|[0m  [33m|[0m  [31m|[0m  [32m|[0m  [33m|[0m  [32m|[0m  [32m|[0m  [34m|[0m  [33m|[0m  [37m|[0m  [31m|[0m  [35m|[0m  [32m|[0m                 [35m|[0m                          [34m|[0m      e8 e6 12 00 00       	[33mcall   [0m[35m403fb0[0m <[32m_ZN3MtxD1Ev[0m>
  402cca:	[37m|[0m  [36m|[0m  [31m|[0m  [36m|[0m  [31m|[0m  [36m|[0m  [32m|[0m  [36m|[0m  [34m|[0m  [31m|[0m  [35m|[0m  [31m|[0m  [37m|[0m  [33m|[0m  [31m|[0m  [32m|[0m  [33m|[0m  [32m|[0m  [32m|[0m  [34m|[0m  [33m|[0m  [37m|[0m  [31m|[0m  [35m|[0m  [32m|[0m                 [35m|[0m                          [34m|[0m      4d 85 e4             	[33mtest   [0m[34mr12[0m,[34mr12[0m
  402ccd:	[37m|[0m  [36m|[0m  [31m|[0m  [36m|[0m  [31m|[0m  [36m|[0m  [32m|[0m  [36m|[0m  [34m|[0m  [31m|[0m  [35m|[0m  [31m|[0m  [37m|[0m  [33m|[0m  [31m|[0m  [32m|[0m  [33m|[0m  [32m|[0m  [32m|[0m  [34m|[0m  [33m|[0m  [37m|[0m  [31m|[0m  [35m|[0m  [32m|[0m        [31m/[31m-[31m-[31m-[31m-[31m-[31m-[31m-[31m-[35m|[31m-[31m-[31m-[31m-[31m-[31m-[31m-[31m-[31m-[31m-[31m-[31m-[31m-[31m-[31m-[31m-[31m-[31m-[31m-[31m-[31m-[31m-[31m-[31m-[31m-[31m-[34m|[31m-[31m-[31m-[31m-[31m-[0m 0f 88 ad 01 00 00    	[33mjs     [0m[35m402e80[0m <[32m_Z13calc_speed_upv[0m[35m+0x[0m[35m7d0[0m>
  402cd3:	[37m|[0m  [36m|[0m  [31m|[0m  [36m|[0m  [31m|[0m  [36m|[0m  [32m|[0m  [36m|[0m  [34m|[0m  [31m|[0m  [35m|[0m  [31m|[0m  [37m|[0m  [33m|[0m  [31m|[0m  [32m|[0m  [33m|[0m  [32m|[0m  [32m|[0m  [34m|[0m  [33m|[0m  [37m|[0m  [31m|[0m  [35m|[0m  [32m|[0m        [31m|[0m        [35m|[0m                          [34m|[0m      c5 e9 57 d2          	[33mvxorpd [0m[34mxmm2[0m,[34mxmm2[0m,[34mxmm2[0m
  402cd7:	[37m|[0m  [36m|[0m  [31m|[0m  [36m|[0m  [31m|[0m  [36m|[0m  [32m|[0m  [36m|[0m  [34m|[0m  [31m|[0m  [35m|[0m  [31m|[0m  [37m|[0m  [33m|[0m  [31m|[0m  [32m|[0m  [33m|[0m  [32m|[0m  [32m|[0m  [34m|[0m  [33m|[0m  [37m|[0m  [31m|[0m  [35m|[0m  [32m|[0m        [31m|[0m        [35m|[0m                          [34m|[0m      c4 c1 eb 2a c4       	[33mvcvtsi2sd [0m[34mxmm0[0m,[34mxmm2[0m,[34mr12[0m
  402cdc:	[37m|[0m  [36m|[0m  [31m|[0m  [36m|[0m  [31m|[0m  [36m|[0m  [32m|[0m  [36m|[0m  [34m|[0m  [31m|[0m  [35m|[0m  [31m|[0m  [37m|[0m  [33m|[0m  [31m|[0m  [32m|[0m  [33m|[0m  [32m|[0m  [32m|[0m  [34m|[0m  [33m|[0m  [37m|[0m  [31m|[0m  [35m|[0m  [32m|[0m     [36m/[36m-[36m-[31m|[36m-[36m-[36m-[36m-[36m-[36m-[36m-[36m-[35m|[36m-[36m-[36m-[36m-[36m-[36m-[36m-[36m-[36m-[36m-[36m-[36m-[36m-[36m-[36m-[36m-[36m-[36m-[36m-[36m-[36m-[36m-[36m-[36m-[36m-[36m-[34m|[36m-[36m-[36m-[36m-[36m>[0m c5 fb 5e 05 64 23 00 	[33mvdivsd [0m[34mxmm0[0m,[34mxmm0[0m,QWORD PTR [[34mrip[0m+[35m0x2364[0m]        # 405048 <_IO_stdin_used+0x48>
  402ce3:	[37m|[0m  [36m|[0m  [31m|[0m  [36m|[0m  [31m|[0m  [36m|[0m  [32m|[0m  [36m|[0m  [34m|[0m  [31m|[0m  [35m|[0m  [31m|[0m  [37m|[0m  [33m|[0m  [31m|[0m  [32m|[0m  [33m|[0m  [32m|[0m  [32m|[0m  [34m|[0m  [33m|[0m  [37m|[0m  [31m|[0m  [35m|[0m  [32m|[0m     [36m|[0m  [31m|[0m        [35m|[0m                          [34m|[0m      00 
  402ce4:	[37m|[0m  [36m|[0m  [31m|[0m  [36m|[0m  [31m|[0m  [36m|[0m  [32m|[0m  [36m|[0m  [34m|[0m  [31m|[0m  [35m|[0m  [31m|[0m  [37m|[0m  [33m|[0m  [31m|[0m  [32m|[0m  [33m|[0m  [32m|[0m  [32m|[0m  [34m|[0m  [33m|[0m  [37m|[0m  [31m|[0m  [35m|[0m  [32m|[0m     [36m|[0m  [31m|[0m        [35m|[0m                          [34m|[0m      c5 f9 2f 05 64 23 00 	[33mvcomisd [0m[34mxmm0[0m,QWORD PTR [[34mrip[0m+[35m0x2364[0m]        # 405050 <_IO_stdin_used+0x50>
  402ceb:	[37m|[0m  [36m|[0m  [31m|[0m  [36m|[0m  [31m|[0m  [36m|[0m  [32m|[0m  [36m|[0m  [34m|[0m  [31m|[0m  [35m|[0m  [31m|[0m  [37m|[0m  [33m|[0m  [31m|[0m  [32m|[0m  [33m|[0m  [32m|[0m  [32m|[0m  [34m|[0m  [33m|[0m  [37m|[0m  [31m|[0m  [35m|[0m  [32m|[0m     [36m|[0m  [31m|[0m        [35m|[0m                          [34m|[0m      00 
  402cec:	[37m|[0m  [36m|[0m  [31m|[0m  [36m|[0m  [31m|[0m  [36m|[0m  [32m|[0m  [36m|[0m  [34m|[0m  [31m|[0m  [35m|[0m  [31m|[0m  [37m|[0m  [33m|[0m  [31m|[0m  [32m|[0m  [33m|[0m  [32m|[0m  [32m|[0m  [34m|[0m  [33m|[0m  [37m|[0m  [31m|[0m  [35m|[0m  [32m|[0m     [36m|[0m  [31m|[0m     [31m/--[35m|[31m--------------------------[34m|[31m-----[0m 0f 83 6e 01 00 00    	[33mjae    [0m[35m402e60[0m <[32m_Z13calc_speed_upv[0m[35m+0x[0m[35m7b0[0m>
  402cf2:	[37m|[0m  [36m|[0m  [31m|[0m  [36m|[0m  [31m|[0m  [36m|[0m  [32m|[0m  [36m|[0m  [34m|[0m  [31m|[0m  [35m|[0m  [31m|[0m  [37m|[0m  [33m|[0m  [31m|[0m  [32m|[0m  [33m|[0m  [32m|[0m  [32m|[0m  [34m|[0m  [33m|[0m  [37m|[0m  [31m|[0m  [35m|[0m  [32m|[0m     [36m|[0m  [31m|[0m     [31m|[0m  [35m|[0m                          [34m|[0m      c4 e1 fb 2c c0       	[33mvcvttsd2si [0m[34mrax[0m,[34mxmm0[0m
  402cf7:	[37m|[0m  [36m|[0m  [31m|[0m  [36m|[0m  [31m|[0m  [36m|[0m  [32m|[0m  [36m|[0m  [34m|[0m  [31m|[0m  [35m|[0m  [31m|[0m  [37m|[0m  [33m|[0m  [31m|[0m  [32m|[0m  [33m|[0m  [32m|[0m  [32m|[0m  [34m|[0m  [33m|[0m  [37m|[0m  [31m|[0m  [35m|[0m  [32m|[0m     [36m|[0m  [31m|[0m     [31m|[0m  [35m|[0m                          [34m|[0m      49 89 46 f8          	[33mmov    [0mQWORD PTR [[34mr14[0m[35m-[0m[35m0x8[0m],[34mrax[0m
  402cfb:	[37m|[0m  [36m|[0m  [31m|[0m  [36m|[0m  [31m|[0m  [36m|[0m  [32m|[0m  [36m|[0m  [34m|[0m  [31m|[0m  [35m|[0m  [31m|[0m  [37m|[0m  [33m|[0m  [31m|[0m  [32m|[0m  [33m|[0m  [32m|[0m  [32m|[0m  [34m|[0m  [33m|[0m  [37m|[0m  [31m|[0m  [35m|[0m  [32m|[0m     [36m|[0m  [31m|[0m  [34m/[34m-[34m-[31m|[34m-[34m-[35m|[34m-[34m-[34m-[34m-[34m-[34m-[34m-[34m-[34m-[34m-[34m-[34m-[34m-[34m-[34m-[34m-[34m-[34m-[34m-[34m-[34m-[34m-[34m-[34m-[34m-[34m-[34m|[34m-[34m-[34m-[34m-[34m>[0m 48 8b 05 fe 43 00 00 	[33mmov    [0m[34mrax[0m,QWORD PTR [[34mrip[0m+[35m0x43fe[0m]        # 407100 <_ZSt4cout@GLIBCXX_3.4>
  402d02:	[37m|[0m  [36m|[0m  [31m|[0m  [36m|[0m  [31m|[0m  [36m|[0m  [32m|[0m  [36m|[0m  [34m|[0m  [31m|[0m  [35m|[0m  [31m|[0m  [37m|[0m  [33m|[0m  [31m|[0m  [32m|[0m  [33m|[0m  [32m|[0m  [32m|[0m  [34m|[0m  [33m|[0m  [37m|[0m  [31m|[0m  [35m|[0m  [32m|[0m     [36m|[0m  [31m|[0m  [34m|[0m  [31m|[0m  [35m|[0m                          [34m|[0m      bf 00 71 40 00       	[33mmov    [0m[34medi[0m,[35m0x407100[0m
  402d07:	[37m|[0m  [36m|[0m  [31m|[0m  [36m|[0m  [31m|[0m  [36m|[0m  [32m|[0m  [36m|[0m  [34m|[0m  [31m|[0m  [35m|[0m  [31m|[0m  [37m|[0m  [33m|[0m  [31m|[0m  [32m|[0m  [33m|[0m  [32m|[0m  [32m|[0m  [34m|[0m  [33m|[0m  [37m|[0m  [31m|[0m  [35m|[0m  [32m|[0m     [36m|[0m  [31m|[0m  [34m|[0m  [31m|[0m  [35m|[0m                          [34m|[0m      49 8b 56 e0          	[33mmov    [0m[34mrdx[0m,QWORD PTR [[34mr14[0m[35m-[0m[35m0x20[0m]
  402d0b:	[37m|[0m  [36m|[0m  [31m|[0m  [36m|[0m  [31m|[0m  [36m|[0m  [32m|[0m  [36m|[0m  [34m|[0m  [31m|[0m  [35m|[0m  [31m|[0m  [37m|[0m  [33m|[0m  [31m|[0m  [32m|[0m  [33m|[0m  [32m|[0m  [32m|[0m  [34m|[0m  [33m|[0m  [37m|[0m  [31m|[0m  [35m|[0m  [32m|[0m     [36m|[0m  [31m|[0m  [34m|[0m  [31m|[0m  [35m|[0m                          [34m|[0m      49 8b 76 d8          	[33mmov    [0m[34mrsi[0m,QWORD PTR [[34mr14[0m[35m-[0m[35m0x28[0m]
  402d0f:	[37m|[0m  [36m|[0m  [31m|[0m  [36m|[0m  [31m|[0m  [36m|[0m  [32m|[0m  [36m|[0m  [34m|[0m  [31m|[0m  [35m|[0m  [31m|[0m  [37m|[0m  [33m|[0m  [31m|[0m  [32m|[0m  [33m|[0m  [32m|[0m  [32m|[0m  [34m|[0m  [33m|[0m  [37m|[0m  [31m|[0m  [35m|[0m  [32m|[0m     [36m|[0m  [31m|[0m  [34m|[0m  [31m|[0m  [35m|[0m                          [34m|[0m      48 8b 40 e8          	[33mmov    [0m[34mrax[0m,QWORD PTR [[34mrax[0m[35m-[0m[35m0x18[0m]
  402d13:	[37m|[0m  [36m|[0m  [31m|[0m  [36m|[0m  [31m|[0m  [36m|[0m  [32m|[0m  [36m|[0m  [34m|[0m  [31m|[0m  [35m|[0m  [31m|[0m  [37m|[0m  [33m|[0m  [31m|[0m  [32m|[0m  [33m|[0m  [32m|[0m  [32m|[0m  [34m|[0m  [33m|[0m  [37m|[0m  [31m|[0m  [35m|[0m  [32m|[0m     [36m|[0m  [31m|[0m  [34m|[0m  [31m|[0m  [35m|[0m                          [34m|[0m      48 c7 80 10 71 40 00 	[33mmov    [0mQWORD PTR [[34mrax[0m+[35m0x407110[0m],[35m0x14[0m
  402d1a:	[37m|[0m  [36m|[0m  [31m|[0m  [36m|[0m  [31m|[0m  [36m|[0m  [32m|[0m  [36m|[0m  [34m|[0m  [31m|[0m  [35m|[0m  [31m|[0m  [37m|[0m  [33m|[0m  [31m|[0m  [32m|[0m  [33m|[0m  [32m|[0m  [32m|[0m  [34m|[0m  [33m|[0m  [37m|[0m  [31m|[0m  [35m|[0m  [32m|[0m     [36m|[0m  [31m|[0m  [34m|[0m  [31m|[0m  [35m|[0m                          [34m|[0m      14 00 00 00 
  402d1e:	[37m|[0m  [36m|[0m  [31m|[0m  [36m|[0m  [31m|[0m  [36m|[0m  [32m|[0m  [36m|[0m  [34m|[0m  [31m|[0m  [35m|[0m  [31m|[0m  [37m|[0m  [33m|[0m  [31m|[0m  [32m|[0m  [33m|[0m  [32m|[0m  [32m|[0m  [34m|[0m  [33m|[0m  [37m|[0m  [31m|[0m  [35m|[0m  [32m|[0m     [36m|[0m  [31m|[0m  [34m|[0m  [31m|[0m  [35m|[0m                          [34m|[0m      e8 bd f3 ff ff       	[33mcall   [0m[35m4020e0[0m <[32m_ZSt16__ostream_insertIcSt11char_traitsIcEERSt13basic_ostreamIT_T0_ES6_PKS3_l@plt[0m>
  402d23:	[37m|[0m  [36m|[0m  [31m|[0m  [36m|[0m  [31m|[0m  [36m|[0m  [32m|[0m  [36m|[0m  [34m|[0m  [31m|[0m  [35m|[0m  [31m|[0m  [37m|[0m  [33m|[0m  [31m|[0m  [32m|[0m  [33m|[0m  [32m|[0m  [32m|[0m  [34m|[0m  [33m|[0m  [37m|[0m  [31m|[0m  [35m|[0m  [32m|[0m     [36m|[0m  [31m|[0m  [34m|[0m  [31m|[0m  [35m|[0m                          [34m|[0m      ba 10 00 00 00       	[33mmov    [0m[34medx[0m,[35m0x10[0m
  402d28:	[37m|[0m  [36m|[0m  [31m|[0m  [36m|[0m  [31m|[0m  [36m|[0m  [32m|[0m  [36m|[0m  [34m|[0m  [31m|[0m  [35m|[0m  [31m|[0m  [37m|[0m  [33m|[0m  [31m|[0m  [32m|[0m  [33m|[0m  [32m|[0m  [32m|[0m  [34m|[0m  [33m|[0m  [37m|[0m  [31m|[0m  [35m|[0m  [32m|[0m     [36m|[0m  [31m|[0m  [34m|[0m  [31m|[0m  [35m|[0m                          [34m|[0m      be 04 50 40 00       	[33mmov    [0m[34mesi[0m,[35m0x405004[0m
  402d2d:	[37m|[0m  [36m|[0m  [31m|[0m  [36m|[0m  [31m|[0m  [36m|[0m  [32m|[0m  [36m|[0m  [34m|[0m  [31m|[0m  [35m|[0m  [31m|[0m  [37m|[0m  [33m|[0m  [31m|[0m  [32m|[0m  [33m|[0m  [32m|[0m  [32m|[0m  [34m|[0m  [33m|[0m  [37m|[0m  [31m|[0m  [35m|[0m  [32m|[0m     [36m|[0m  [31m|[0m  [34m|[0m  [31m|[0m  [35m|[0m                          [34m|[0m      48 89 c7             	[33mmov    [0m[34mrdi[0m,[34mrax[0m
  402d30:	[37m|[0m  [36m|[0m  [31m|[0m  [36m|[0m  [31m|[0m  [36m|[0m  [32m|[0m  [36m|[0m  [34m|[0m  [31m|[0m  [35m|[0m  [31m|[0m  [37m|[0m  [33m|[0m  [31m|[0m  [32m|[0m  [33m|[0m  [32m|[0m  [32m|[0m  [34m|[0m  [33m|[0m  [37m|[0m  [31m|[0m  [35m|[0m  [32m|[0m     [36m|[0m  [31m|[0m  [34m|[0m  [31m|[0m  [35m|[0m                          [34m|[0m      48 89 c3             	[33mmov    [0m[34mrbx[0m,[34mrax[0m
  402d33:	[37m|[0m  [36m|[0m  [31m|[0m  [36m|[0m  [31m|[0m  [36m|[0m  [32m|[0m  [36m|[0m  [34m|[0m  [31m|[0m  [35m|[0m  [31m|[0m  [37m|[0m  [33m|[0m  [31m|[0m  [32m|[0m  [33m|[0m  [32m|[0m  [32m|[0m  [34m|[0m  [33m|[0m  [37m|[0m  [31m|[0m  [35m|[0m  [32m|[0m     [36m|[0m  [31m|[0m  [34m|[0m  [31m|[0m  [35m|[0m                          [34m|[0m      e8 a8 f3 ff ff       	[33mcall   [0m[35m4020e0[0m <[32m_ZSt16__ostream_insertIcSt11char_traitsIcEERSt13basic_ostreamIT_T0_ES6_PKS3_l@plt[0m>
  402d38:	[37m|[0m  [36m|[0m  [31m|[0m  [36m|[0m  [31m|[0m  [36m|[0m  [32m|[0m  [36m|[0m  [34m|[0m  [31m|[0m  [35m|[0m  [31m|[0m  [37m|[0m  [33m|[0m  [31m|[0m  [32m|[0m  [33m|[0m  [32m|[0m  [32m|[0m  [34m|[0m  [33m|[0m  [37m|[0m  [31m|[0m  [35m|[0m  [32m|[0m     [36m|[0m  [31m|[0m  [34m|[0m  [31m|[0m  [35m|[0m                          [34m|[0m      48 8b 03             	[33mmov    [0m[34mrax[0m,QWORD PTR [[34mrbx[0m]
  402d3b:	[37m|[0m  [36m|[0m  [31m|[0m  [36m|[0m  [31m|[0m  [36m|[0m  [32m|[0m  [36m|[0m  [34m|[0m  [31m|[0m  [35m|[0m  [31m|[0m  [37m|[0m  [33m|[0m  [31m|[0m  [32m|[0m  [33m|[0m  [32m|[0m  [32m|[0m  [34m|[0m  [33m|[0m  [37m|[0m  [31m|[0m  [35m|[0m  [32m|[0m     [36m|[0m  [31m|[0m  [34m|[0m  [31m|[0m  [35m|[0m                          [34m|[0m      49 8b 76 f8          	[33mmov    [0m[34mrsi[0m,QWORD PTR [[34mr14[0m[35m-[0m[35m0x8[0m]
  402d3f:	[37m|[0m  [36m|[0m  [31m|[0m  [36m|[0m  [31m|[0m  [36m|[0m  [32m|[0m  [36m|[0m  [34m|[0m  [31m|[0m  [35m|[0m  [31m|[0m  [37m|[0m  [33m|[0m  [31m|[0m  [32m|[0m  [33m|[0m  [32m|[0m  [32m|[0m  [34m|[0m  [33m|[0m  [37m|[0m  [31m|[0m  [35m|[0m  [32m|[0m     [36m|[0m  [31m|[0m  [34m|[0m  [31m|[0m  [35m|[0m                          [34m|[0m      48 89 df             	[33mmov    [0m[34mrdi[0m,[34mrbx[0m
  402d42:	[37m|[0m  [36m|[0m  [31m|[0m  [36m|[0m  [31m|[0m  [36m|[0m  [32m|[0m  [36m|[0m  [34m|[0m  [31m|[0m  [35m|[0m  [31m|[0m  [37m|[0m  [33m|[0m  [31m|[0m  [32m|[0m  [33m|[0m  [32m|[0m  [32m|[0m  [34m|[0m  [33m|[0m  [37m|[0m  [31m|[0m  [35m|[0m  [32m|[0m     [36m|[0m  [31m|[0m  [34m|[0m  [31m|[0m  [35m|[0m                          [34m|[0m      48 8b 40 e8          	[33mmov    [0m[34mrax[0m,QWORD PTR [[34mrax[0m[35m-[0m[35m0x18[0m]
  402d46:	[37m|[0m  [36m|[0m  [31m|[0m  [36m|[0m  [31m|[0m  [36m|[0m  [32m|[0m  [36m|[0m  [34m|[0m  [31m|[0m  [35m|[0m  [31m|[0m  [37m|[0m  [33m|[0m  [31m|[0m  [32m|[0m  [33m|[0m  [32m|[0m  [32m|[0m  [34m|[0m  [33m|[0m  [37m|[0m  [31m|[0m  [35m|[0m  [32m|[0m     [36m|[0m  [31m|[0m  [34m|[0m  [31m|[0m  [35m|[0m                          [34m|[0m      48 c7 44 03 10 0a 00 	[33mmov    [0mQWORD PTR [[34mrbx[0m+[34mrax[0m*[35m1[0m+[35m0x10[0m],[35m0xa[0m
  402d4d:	[37m|[0m  [36m|[0m  [31m|[0m  [36m|[0m  [31m|[0m  [36m|[0m  [32m|[0m  [36m|[0m  [34m|[0m  [31m|[0m  [35m|[0m  [31m|[0m  [37m|[0m  [33m|[0m  [31m|[0m  [32m|[0m  [33m|[0m  [32m|[0m  [32m|[0m  [34m|[0m  [33m|[0m  [37m|[0m  [31m|[0m  [35m|[0m  [32m|[0m     [36m|[0m  [31m|[0m  [34m|[0m  [31m|[0m  [35m|[0m                          [34m|[0m      00 00 
  402d4f:	[37m|[0m  [36m|[0m  [31m|[0m  [36m|[0m  [31m|[0m  [36m|[0m  [32m|[0m  [36m|[0m  [34m|[0m  [31m|[0m  [35m|[0m  [31m|[0m  [37m|[0m  [33m|[0m  [31m|[0m  [32m|[0m  [33m|[0m  [32m|[0m  [32m|[0m  [34m|[0m  [33m|[0m  [37m|[0m  [31m|[0m  [35m|[0m  [32m|[0m     [36m|[0m  [31m|[0m  [34m|[0m  [31m|[0m  [35m|[0m                          [34m|[0m      e8 2c f3 ff ff       	[33mcall   [0m[35m402080[0m <[32m_ZNSo9_M_insertIyEERSoT_@plt[0m>
  402d54:	[37m|[0m  [36m|[0m  [31m|[0m  [36m|[0m  [31m|[0m  [36m|[0m  [32m|[0m  [36m|[0m  [34m|[0m  [31m|[0m  [35m|[0m  [31m|[0m  [37m|[0m  [33m|[0m  [31m|[0m  [32m|[0m  [33m|[0m  [32m|[0m  [32m|[0m  [34m|[0m  [33m|[0m  [37m|[0m  [31m|[0m  [35m|[0m  [32m|[0m     [36m|[0m  [31m|[0m  [34m|[0m  [31m|[0m  [35m|[0m                          [34m|[0m      49 83 7e e0 0b       	[33mcmp    [0mQWORD PTR [[34mr14[0m[35m-[0m[35m0x20[0m],[35m0xb[0m
  402d59:	[37m|[0m  [36m|[0m  [31m|[0m  [36m|[0m  [31m|[0m  [36m|[0m  [32m|[0m  [36m|[0m  [34m|[0m  [31m|[0m  [35m|[0m  [31m|[0m  [37m|[0m  [33m|[0m  [31m|[0m  [32m|[0m  [33m|[0m  [32m|[0m  [32m|[0m  [34m|[0m  [33m|[0m  [37m|[0m  [31m|[0m  [35m|[0m  [32m|[0m     [36m|[0m  [31m|[0m  [34m|[0m  [31m|[0m  [35m|[0m           [35m/--------------[34m|[35m-----[0m 0f 84 41 01 00 00    	[33mje     [0m[35m402ea0[0m <[32m_Z13calc_speed_upv[0m[35m+0x[0m[35m7f0[0m>
  402d5f:	[37m|[0m  [36m|[0m  [31m|[0m  [36m|[0m  [31m|[0m  [36m|[0m  [32m|[0m  [36m|[0m  [34m|[0m  [31m|[0m  [35m|[0m  [31m|[0m  [37m|[0m  [33m|[0m  [31m|[0m  [32m|[0m  [33m|[0m  [32m|[0m  [32m|[0m  [34m|[0m  [33m|[0m  [37m|[0m  [31m|[0m  [35m|[0m  [32m|[0m     [36m|[0m  [31m|[0m  [34m|[0m  [31m|[0m  [35m|[0m  [33m/[33m-[33m-[33m-[33m-[33m-[33m-[33m-[33m-[35m|[33m-[33m-[33m-[33m-[33m-[33m-[33m-[33m-[33m-[33m-[33m-[33m-[33m-[33m-[34m|[33m-[33m-[33m-[33m-[33m>[0m ba 0e 00 00 00       	[33mmov    [0m[34medx[0m,[35m0xe[0m
  402d64:	[37m|[0m  [36m|[0m  [31m|[0m  [36m|[0m  [31m|[0m  [36m|[0m  [32m|[0m  [36m|[0m  [34m|[0m  [31m|[0m  [35m|[0m  [31m|[0m  [37m|[0m  [33m|[0m  [31m|[0m  [32m|[0m  [33m|[0m  [32m|[0m  [32m|[0m  [34m|[0m  [33m|[0m  [37m|[0m  [31m|[0m  [35m|[0m  [32m|[0m     [36m|[0m  [31m|[0m  [34m|[0m  [31m|[0m  [35m|[0m  [33m|[0m        [35m|[0m              [34m|[0m      be 21 50 40 00       	[33mmov    [0m[34mesi[0m,[35m0x405021[0m
  402d69:	[37m|[0m  [36m|[0m  [31m|[0m  [36m|[0m  [31m|[0m  [36m|[0m  [32m|[0m  [36m|[0m  [34m|[0m  [31m|[0m  [35m|[0m  [31m|[0m  [37m|[0m  [33m|[0m  [31m|[0m  [32m|[0m  [33m|[0m  [32m|[0m  [32m|[0m  [34m|[0m  [33m|[0m  [37m|[0m  [31m|[0m  [35m|[0m  [32m|[0m     [36m|[0m  [31m|[0m  [34m|[0m  [31m|[0m  [35m|[0m  [33m|[0m        [35m|[0m              [34m|[0m      bf 00 71 40 00       	[33mmov    [0m[34medi[0m,[35m0x407100[0m
  402d6e:	[37m|[0m  [36m|[0m  [31m|[0m  [36m|[0m  [31m|[0m  [36m|[0m  [32m|[0m  [36m|[0m  [34m|[0m  [31m|[0m  [35m|[0m  [31m|[0m  [37m|[0m  [33m|[0m  [31m|[0m  [32m|[0m  [33m|[0m  [32m|[0m  [32m|[0m  [34m|[0m  [33m|[0m  [37m|[0m  [31m|[0m  [35m|[0m  [32m|[0m     [36m|[0m  [31m|[0m  [34m|[0m  [31m|[0m  [35m|[0m  [33m|[0m        [35m|[0m              [34m|[0m      e8 6d f3 ff ff       	[33mcall   [0m[35m4020e0[0m <[32m_ZSt16__ostream_insertIcSt11char_traitsIcEERSt13basic_ostreamIT_T0_ES6_PKS3_l@plt[0m>
  402d73:	[37m|[0m  [36m|[0m  [31m|[0m  [36m|[0m  [31m|[0m  [36m|[0m  [32m|[0m  [36m|[0m  [34m|[0m  [31m|[0m  [35m|[0m  [31m|[0m  [37m|[0m  [33m|[0m  [31m|[0m  [32m|[0m  [33m|[0m  [32m|[0m  [32m|[0m  [34m|[0m  [33m|[0m  [37m|[0m  [31m|[0m  [35m|[0m  [32m|[0m     [36m|[0m  [31m|[0m  [34m|[0m  [31m|[0m  [35m|[0m  [33m|[0m        [35m|[0m              [34m|[0m      48 8b 05 86 43 00 00 	[33mmov    [0m[34mrax[0m,QWORD PTR [[34mrip[0m+[35m0x4386[0m]        # 407100 <_ZSt4cout@GLIBCXX_3.4>
  402d7a:	[37m|[0m  [36m|[0m  [31m|[0m  [36m|[0m  [31m|[0m  [36m|[0m  [32m|[0m  [36m|[0m  [34m|[0m  [31m|[0m  [35m|[0m  [31m|[0m  [37m|[0m  [33m|[0m  [31m|[0m  [32m|[0m  [33m|[0m  [32m|[0m  [32m|[0m  [34m|[0m  [33m|[0m  [37m|[0m  [31m|[0m  [35m|[0m  [32m|[0m     [36m|[0m  [31m|[0m  [34m|[0m  [31m|[0m  [35m|[0m  [33m|[0m        [35m|[0m              [34m|[0m      48 8b 40 e8          	[33mmov    [0m[34mrax[0m,QWORD PTR [[34mrax[0m[35m-[0m[35m0x18[0m]
  402d7e:	[37m|[0m  [36m|[0m  [31m|[0m  [36m|[0m  [31m|[0m  [36m|[0m  [32m|[0m  [36m|[0m  [34m|[0m  [31m|[0m  [35m|[0m  [31m|[0m  [37m|[0m  [33m|[0m  [31m|[0m  [32m|[0m  [33m|[0m  [32m|[0m  [32m|[0m  [34m|[0m  [33m|[0m  [37m|[0m  [31m|[0m  [35m|[0m  [32m|[0m     [36m|[0m  [31m|[0m  [34m|[0m  [31m|[0m  [35m|[0m  [33m|[0m        [35m|[0m              [34m|[0m      48 c7 80 10 71 40 00 	[33mmov    [0mQWORD PTR [[34mrax[0m+[35m0x407110[0m],[35m0xa[0m
  402d85:	[37m|[0m  [36m|[0m  [31m|[0m  [36m|[0m  [31m|[0m  [36m|[0m  [32m|[0m  [36m|[0m  [34m|[0m  [31m|[0m  [35m|[0m  [31m|[0m  [37m|[0m  [33m|[0m  [31m|[0m  [32m|[0m  [33m|[0m  [32m|[0m  [32m|[0m  [34m|[0m  [33m|[0m  [37m|[0m  [31m|[0m  [35m|[0m  [32m|[0m     [36m|[0m  [31m|[0m  [34m|[0m  [31m|[0m  [35m|[0m  [33m|[0m        [35m|[0m              [34m|[0m      0a 00 00 00 
  402d89:	[37m|[0m  [36m|[0m  [31m|[0m  [36m|[0m  [31m|[0m  [36m|[0m  [32m|[0m  [36m|[0m  [34m|[0m  [31m|[0m  [35m|[0m  [31m|[0m  [37m|[0m  [33m|[0m  [31m|[0m  [32m|[0m  [33m|[0m  [32m|[0m  [32m|[0m  [34m|[0m  [33m|[0m  [37m|[0m  [31m|[0m  [35m|[0m  [32m|[0m     [36m|[0m  [31m|[0m  [34m|[0m  [31m|[0m  [35m|[0m  [33m|[0m        [35m|[0m              [34m|[0m      49 8b 47 28          	[33mmov    [0m[34mrax[0m,QWORD PTR [[34mr15[0m+[35m0x28[0m]
  402d8d:	[37m|[0m  [36m|[0m  [31m|[0m  [36m|[0m  [31m|[0m  [36m|[0m  [32m|[0m  [36m|[0m  [34m|[0m  [31m|[0m  [35m|[0m  [31m|[0m  [37m|[0m  [33m|[0m  [31m|[0m  [32m|[0m  [33m|[0m  [32m|[0m  [32m|[0m  [34m|[0m  [33m|[0m  [37m|[0m  [31m|[0m  [35m|[0m  [32m|[0m     [36m|[0m  [31m|[0m  [34m|[0m  [31m|[0m  [35m|[0m  [33m|[0m        [35m|[0m              [34m|[0m      48 85 c0             	[33mtest   [0m[34mrax[0m,[34mrax[0m
  402d90:	[37m|[0m  [36m|[0m  [31m|[0m  [36m|[0m  [31m|[0m  [36m|[0m  [32m|[0m  [36m|[0m  [34m|[0m  [31m|[0m  [35m|[0m  [31m|[0m  [37m|[0m  [33m|[0m  [31m|[0m  [32m|[0m  [33m|[0m  [32m|[0m  [32m|[0m  [34m|[0m  [33m|[0m  [37m|[0m  [31m|[0m  [35m|[0m  [32m|[0m     [36m|[0m  [31m|[0m  [34m|[0m  [31m|[0m  [35m|[0m  [33m|[0m        [35m|[0m     [31m/--------[34m|[31m-----[0m 0f 88 3a 01 00 00    	[33mjs     [0m[35m402ed0[0m <[32m_Z13calc_speed_upv[0m[35m+0x[0m[35m820[0m>
  402d96:	[37m|[0m  [36m|[0m  [31m|[0m  [36m|[0m  [31m|[0m  [36m|[0m  [32m|[0m  [36m|[0m  [34m|[0m  [31m|[0m  [35m|[0m  [31m|[0m  [37m|[0m  [33m|[0m  [31m|[0m  [32m|[0m  [33m|[0m  [32m|[0m  [32m|[0m  [34m|[0m  [33m|[0m  [37m|[0m  [31m|[0m  [35m|[0m  [32m|[0m     [36m|[0m  [31m|[0m  [34m|[0m  [31m|[0m  [35m|[0m  [33m|[0m        [35m|[0m     [31m|[0m        [34m|[0m      c5 d9 57 e4          	[33mvxorpd [0m[34mxmm4[0m,[34mxmm4[0m,[34mxmm4[0m
  402d9a:	[37m|[0m  [36m|[0m  [31m|[0m  [36m|[0m  [31m|[0m  [36m|[0m  [32m|[0m  [36m|[0m  [34m|[0m  [31m|[0m  [35m|[0m  [31m|[0m  [37m|[0m  [33m|[0m  [31m|[0m  [32m|[0m  [33m|[0m  [32m|[0m  [32m|[0m  [34m|[0m  [33m|[0m  [37m|[0m  [31m|[0m  [35m|[0m  [32m|[0m     [36m|[0m  [31m|[0m  [34m|[0m  [31m|[0m  [35m|[0m  [33m|[0m        [35m|[0m     [31m|[0m        [34m|[0m      c4 e1 db 2a c0       	[33mvcvtsi2sd [0m[34mxmm0[0m,[34mxmm4[0m,[34mrax[0m
  402d9f:	[37m|[0m  [36m|[0m  [31m|[0m  [36m|[0m  [31m|[0m  [36m|[0m  [32m|[0m  [36m|[0m  [34m|[0m  [31m|[0m  [35m|[0m  [31m|[0m  [37m|[0m  [33m|[0m  [31m|[0m  [32m|[0m  [33m|[0m  [32m|[0m  [32m|[0m  [34m|[0m  [33m|[0m  [37m|[0m  [31m|[0m  [35m|[0m  [32m|[0m     [36m|[0m  [31m|[0m  [34m|[0m  [31m|[0m  [35m|[0m  [33m|[0m        [35m|[0m     [31m|[0m        [34m|[0m      49 8b 46 f8          	[33mmov    [0m[34mrax[0m,QWORD PTR [[34mr14[0m[35m-[0m[35m0x8[0m]
  402da3:	[37m|[0m  [36m|[0m  [31m|[0m  [36m|[0m  [31m|[0m  [36m|[0m  [32m|[0m  [36m|[0m  [34m|[0m  [31m|[0m  [35m|[0m  [31m|[0m  [37m|[0m  [33m|[0m  [31m|[0m  [32m|[0m  [33m|[0m  [32m|[0m  [32m|[0m  [34m|[0m  [33m|[0m  [37m|[0m  [31m|[0m  [35m|[0m  [32m|[0m     [36m|[0m  [31m|[0m  [34m|[0m  [31m|[0m  [35m|[0m  [33m|[0m        [35m|[0m     [31m|[0m        [34m|[0m      48 85 c0             	[33mtest   [0m[34mrax[0m,[34mrax[0m
  402da6:	[37m|[0m  [36m|[0m  [31m|[0m  [36m|[0m  [31m|[0m  [36m|[0m  [32m|[0m  [36m|[0m  [34m|[0m  [31m|[0m  [35m|[0m  [31m|[0m  [37m|[0m  [33m|[0m  [31m|[0m  [32m|[0m  [33m|[0m  [32m|[0m  [32m|[0m  [34m|[0m  [33m|[0m  [37m|[0m  [31m|[0m  [35m|[0m  [32m|[0m     [36m|[0m  [31m|[0m  [34m|[0m  [31m|[0m  [35m|[0m  [33m|[0m     [36m/--[35m|[36m-----[31m|[36m--------[34m|[36m-----[0m 0f 88 4a 01 00 00    	[33mjs     [0m[35m402ef6[0m <[32m_Z13calc_speed_upv[0m[35m+0x[0m[35m846[0m>
  402dac:	[37m|[0m  [36m|[0m  [31m|[0m  [36m|[0m  [31m|[0m  [36m|[0m  [32m|[0m  [36m|[0m  [34m|[0m  [31m|[0m  [35m|[0m  [31m|[0m  [37m|[0m  [33m|[0m  [31m|[0m  [32m|[0m  [33m|[0m  [32m|[0m  [32m|[0m  [34m|[0m  [33m|[0m  [37m|[0m  [31m|[0m  [35m|[0m  [32m|[0m     [36m|[0m  [31m|[0m  [34m|[0m  [31m|[0m  [35m|[0m  [33m|[0m     [36m|[0m  [35m|[0m  [36m/[36m-[36m-[31m|[36m-[36m-[36m-[36m-[36m-[36m-[36m-[36m-[34m|[36m-[36m-[36m-[36m-[36m>[0m c5 d1 57 ed          	[33mvxorpd [0m[34mxmm5[0m,[34mxmm5[0m,[34mxmm5[0m
  402db0:	[37m|[0m  [36m|[0m  [31m|[0m  [36m|[0m  [31m|[0m  [36m|[0m  [32m|[0m  [36m|[0m  [34m|[0m  [31m|[0m  [35m|[0m  [31m|[0m  [37m|[0m  [33m|[0m  [31m|[0m  [32m|[0m  [33m|[0m  [32m|[0m  [32m|[0m  [34m|[0m  [33m|[0m  [37m|[0m  [31m|[0m  [35m|[0m  [32m|[0m     [36m|[0m  [31m|[0m  [34m|[0m  [31m|[0m  [35m|[0m  [33m|[0m     [36m|[0m  [35m|[0m  [36m|[0m  [31m|[0m        [34m|[0m      c4 e1 d3 2a c8       	[33mvcvtsi2sd [0m[34mxmm1[0m,[34mxmm5[0m,[34mrax[0m
  402db5:	[37m|[0m  [36m|[0m  [31m|[0m  [36m|[0m  [31m|[0m  [36m|[0m  [32m|[0m  [36m|[0m  [34m|[0m  [31m|[0m  [35m|[0m  [31m|[0m  [37m|[0m  [33m|[0m  [31m|[0m  [32m|[0m  [33m|[0m  [32m|[0m  [32m|[0m  [34m|[0m  [33m|[0m  [37m|[0m  [31m|[0m  [35m|[0m  [32m|[0m     [36m|[0m  [31m|[0m  [34m|[0m  [31m|[0m  [35m|[0m  [33m|[0m  [37m/--[36m|[37m--[35m|[37m--[36m|[37m--[31m|[37m--------[34m|[37m---->[0m c5 fb 5e c1          	[33mvdivsd [0m[34mxmm0[0m,[34mxmm0[0m,[34mxmm1[0m
  402db9:	[37m|[0m  [36m|[0m  [31m|[0m  [36m|[0m  [31m|[0m  [36m|[0m  [32m|[0m  [36m|[0m  [34m|[0m  [31m|[0m  [35m|[0m  [31m|[0m  [37m|[0m  [33m|[0m  [31m|[0m  [32m|[0m  [33m|[0m  [32m|[0m  [32m|[0m  [34m|[0m  [33m|[0m  [37m|[0m  [31m|[0m  [35m|[0m  [32m|[0m     [36m|[0m  [31m|[0m  [34m|[0m  [31m|[0m  [35m|[0m  [33m|[0m  [37m|[0m  [36m|[0m  [35m|[0m  [36m|[0m  [31m|[0m        [34m|[0m      bf 00 71 40 00       	[33mmov    [0m[34medi[0m,[35m0x407100[0m
  402dbe:	[37m|[0m  [36m|[0m  [31m|[0m  [36m|[0m  [31m|[0m  [36m|[0m  [32m|[0m  [36m|[0m  [34m|[0m  [31m|[0m  [35m|[0m  [31m|[0m  [37m|[0m  [33m|[0m  [31m|[0m  [32m|[0m  [33m|[0m  [32m|[0m  [32m|[0m  [34m|[0m  [33m|[0m  [37m|[0m  [31m|[0m  [35m|[0m  [32m|[0m     [36m|[0m  [31m|[0m  [34m|[0m  [31m|[0m  [35m|[0m  [33m|[0m  [37m|[0m  [36m|[0m  [35m|[0m  [36m|[0m  [31m|[0m        [34m|[0m      e8 8d f3 ff ff       	[33mcall   [0m[35m402150[0m <[32m_ZNSo9_M_insertIdEERSoT_@plt[0m>
  402dc3:	[37m|[0m  [36m|[0m  [31m|[0m  [36m|[0m  [31m|[0m  [36m|[0m  [32m|[0m  [36m|[0m  [34m|[0m  [31m|[0m  [35m|[0m  [31m|[0m  [37m|[0m  [33m|[0m  [31m|[0m  [32m|[0m  [33m|[0m  [32m|[0m  [32m|[0m  [34m|[0m  [33m|[0m  [37m|[0m  [31m|[0m  [35m|[0m  [32m|[0m     [36m|[0m  [31m|[0m  [34m|[0m  [31m|[0m  [35m|[0m  [33m|[0m  [37m|[0m  [36m|[0m  [35m|[0m  [36m|[0m  [31m|[0m        [34m|[0m  [32m/->[0m ba 01 00 00 00       	[33mmov    [0m[34medx[0m,[35m0x1[0m
  402dc8:	[37m|[0m  [36m|[0m  [31m|[0m  [36m|[0m  [31m|[0m  [36m|[0m  [32m|[0m  [36m|[0m  [34m|[0m  [31m|[0m  [35m|[0m  [31m|[0m  [37m|[0m  [33m|[0m  [31m|[0m  [32m|[0m  [33m|[0m  [32m|[0m  [32m|[0m  [34m|[0m  [33m|[0m  [37m|[0m  [31m|[0m  [35m|[0m  [32m|[0m     [36m|[0m  [31m|[0m  [34m|[0m  [31m|[0m  [35m|[0m  [33m|[0m  [37m|[0m  [36m|[0m  [35m|[0m  [36m|[0m  [31m|[0m        [34m|[0m  [32m|[0m   be 30 50 40 00       	[33mmov    [0m[34mesi[0m,[35m0x405030[0m
  402dcd:	[37m|[0m  [36m|[0m  [31m|[0m  [36m|[0m  [31m|[0m  [36m|[0m  [32m|[0m  [36m|[0m  [34m|[0m  [31m|[0m  [35m|[0m  [31m|[0m  [37m|[0m  [33m|[0m  [31m|[0m  [32m|[0m  [33m|[0m  [32m|[0m  [32m|[0m  [34m|[0m  [33m|[0m  [37m|[0m  [31m|[0m  [35m|[0m  [32m|[0m     [36m|[0m  [31m|[0m  [34m|[0m  [31m|[0m  [35m|[0m  [33m|[0m  [37m|[0m  [36m|[0m  [35m|[0m  [36m|[0m  [31m|[0m        [34m|[0m  [32m|[0m   bf 00 71 40 00       	[33mmov    [0m[34medi[0m,[35m0x407100[0m
  402dd2:	[37m|[0m  [36m|[0m  [31m|[0m  [36m|[0m  [31m|[0m  [36m|[0m  [32m|[0m  [36m|[0m  [34m|[0m  [31m|[0m  [35m|[0m  [31m|[0m  [37m|[0m  [33m|[0m  [31m|[0m  [32m|[0m  [33m|[0m  [32m|[0m  [32m|[0m  [34m|[0m  [33m|[0m  [37m|[0m  [31m|[0m  [35m|[0m  [32m|[0m     [36m|[0m  [31m|[0m  [34m|[0m  [31m|[0m  [35m|[0m  [33m|[0m  [37m|[0m  [36m|[0m  [35m|[0m  [36m|[0m  [31m|[0m        [34m|[0m  [32m|[0m   e8 09 f3 ff ff       	[33mcall   [0m[35m4020e0[0m <[32m_ZSt16__ostream_insertIcSt11char_traitsIcEERSt13basic_ostreamIT_T0_ES6_PKS3_l@plt[0m>
  402dd7:	[37m|[0m  [36m|[0m  [31m|[0m  [36m|[0m  [31m|[0m  [36m|[0m  [32m|[0m  [36m|[0m  [34m|[0m  [31m|[0m  [35m|[0m  [31m|[0m  [37m|[0m  [33m|[0m  [31m|[0m  [32m|[0m  [33m|[0m  [32m|[0m  [32m|[0m  [34m|[0m  [33m|[0m  [37m|[0m  [31m|[0m  [35m|[0m  [32m|[0m     [36m|[0m  [31m|[0m  [34m|[0m  [31m|[0m  [35m|[0m  [33m|[0m  [37m|[0m  [36m|[0m  [35m|[0m  [36m|[0m  [31m|[0m        [34m|[0m  [32m|[0m   48 8b 44 24 08       	[33mmov    [0m[34mrax[0m,QWORD PTR [[34mrsp[0m+[35m0x8[0m]
  402ddc:	[37m|[0m  [36m|[0m  [31m|[0m  [36m|[0m  [31m|[0m  [36m|[0m  [32m|[0m  [36m|[0m  [34m|[0m  [31m|[0m  [35m|[0m  [31m|[0m  [37m|[0m  [33m|[0m  [31m|[0m  [32m|[0m  [33m|[0m  [32m|[0m  [32m|[0m  [34m|[0m  [33m|[0m  [37m|[0m  [31m|[0m  [35m|[0m  [32m|[0m     [36m|[0m  [31m|[0m  [34m|[0m  [31m|[0m  [35m|[0m  [33m|[0m  [37m|[0m  [36m|[0m  [35m|[0m  [36m|[0m  [31m|[0m        [34m|[0m  [32m|[0m   49 83 c6 30          	[33madd    [0m[34mr14[0m,[35m0x30[0m
  402de0:	[37m|[0m  [36m|[0m  [31m|[0m  [36m|[0m  [31m|[0m  [36m|[0m  [32m|[0m  [36m|[0m  [34m|[0m  [31m|[0m  [35m|[0m  [31m|[0m  [37m|[0m  [33m|[0m  [31m|[0m  [32m|[0m  [33m|[0m  [32m|[0m  [32m|[0m  [34m|[0m  [33m|[0m  [37m|[0m  [31m|[0m  [35m|[0m  [32m|[0m     [36m|[0m  [31m|[0m  [34m|[0m  [31m|[0m  [35m|[0m  [33m|[0m  [37m|[0m  [36m|[0m  [35m|[0m  [36m|[0m  [31m|[0m        [34m|[0m  [32m|[0m   49 39 c6             	[33mcmp    [0m[34mr14[0m,[34mrax[0m
  402de3:	[37m|[0m  [36m|[0m  [31m|[0m  [36m|[0m  [31m|[0m  [36m|[0m  [32m|[0m  [36m|[0m  [34m|[0m  [31m|[0m  [35m|[0m  [31m|[0m  [37m|[0m  [33m|[0m  [31m|[0m  [32m|[0m  [33m|[0m  [32m|[0m  [32m|[0m  [34m|[0m  [33m|[0m  [37m|[0m  [31m|[0m  [35m|[0m  [32m|[0m     [36m|[0m  [31m|[0m  [34m|[0m  [31m|[0m  [35m|[0m  [33m|[0m  [37m|[0m  [36m|[0m  [35m|[0m  [36m|[0m  [31m|[0m        [34m\[34m-[34m-[32m|[34m-[34m-[0m 0f 85 07 fe ff ff    	[33mjne    [0m[35m402bf0[0m <[32m_Z13calc_speed_upv[0m[35m+0x[0m[35m540[0m>
  402de9:	[37m|[0m  [36m|[0m  [31m|[0m  [36m|[0m  [31m|[0m  [36m|[0m  [32m|[0m  [36m|[0m  [34m|[0m  [31m|[0m  [35m|[0m  [31m|[0m  [37m|[0m  [33m|[0m  [31m|[0m  [32m|[0m  [33m|[0m  [32m|[0m  [32m|[0m  [34m|[0m  [33m|[0m  [37m|[0m  [31m|[0m  [35m|[0m  [32m|[0m     [36m|[0m  [31m|[0m  [34m|[0m  [31m|[0m  [35m|[0m  [33m|[0m  [37m|[0m  [36m|[0m  [35m|[0m  [36m|[0m  [31m|[0m           [32m|[0m   4c 89 fb             	[33mmov    [0m[34mrbx[0m,[34mr15[0m
  402dec:	[37m|[0m  [36m|[0m  [31m|[0m  [36m|[0m  [31m|[0m  [36m|[0m  [32m|[0m  [36m|[0m  [34m|[0m  [31m|[0m  [35m|[0m  [31m|[0m  [37m|[0m  [33m|[0m  [31m|[0m  [32m|[0m  [33m|[0m  [32m|[0m  [32m|[0m  [34m|[0m  [33m|[0m  [37m|[0m  [31m|[0m  [35m|[0m  [32m|[0m     [36m|[0m  [31m|[0m  [34m|[0m  [31m|[0m  [35m|[0m  [33m|[0m  [37m|[0m  [36m|[0m  [35m|[0m  [36m|[0m  [31m|[0m           [32m|[0m   0f 1f 40 00          	[33mnop    [0mDWORD PTR [[34mrax[0m+[35m0x0[0m]
  402df0:	[37m|[0m  [36m|[0m  [31m|[0m  [36m|[0m  [31m|[0m  [36m|[0m  [32m|[0m  [36m|[0m  [34m|[0m  [31m|[0m  [35m|[0m  [31m|[0m  [37m|[0m  [33m|[0m  [31m|[0m  [32m|[0m  [33m|[0m  [32m|[0m  [32m|[0m  [34m|[0m  [33m|[0m  [37m|[0m  [31m|[0m  [35m|[0m  [32m|[0m     [36m|[0m  [31m|[0m  [34m|[0m  [31m|[0m  [35m|[0m  [33m|[0m  [37m|[0m  [36m|[0m  [35m|[0m  [36m|[0m  [31m|[0m  [35m/[35m-[35m-[35m-[35m-[35m-[35m-[35m-[35m-[32m|[35m-[35m>[0m 48 8b 7b 08          	[33mmov    [0m[34mrdi[0m,QWORD PTR [[34mrbx[0m+[35m0x8[0m]
  402df4:	[37m|[0m  [36m|[0m  [31m|[0m  [36m|[0m  [31m|[0m  [36m|[0m  [32m|[0m  [36m|[0m  [34m|[0m  [31m|[0m  [35m|[0m  [31m|[0m  [37m|[0m  [33m|[0m  [31m|[0m  [32m|[0m  [33m|[0m  [32m|[0m  [32m|[0m  [34m|[0m  [33m|[0m  [37m|[0m  [31m|[0m  [35m|[0m  [32m|[0m     [36m|[0m  [31m|[0m  [34m|[0m  [31m|[0m  [35m|[0m  [33m|[0m  [37m|[0m  [36m|[0m  [35m|[0m  [36m|[0m  [31m|[0m  [35m|[0m        [32m|[0m   48 8d 43 18          	[33mlea    [0m[34mrax[0m,[[34mrbx[0m+[35m0x18[0m]
  402df8:	[37m|[0m  [36m|[0m  [31m|[0m  [36m|[0m  [31m|[0m  [36m|[0m  [32m|[0m  [36m|[0m  [34m|[0m  [31m|[0m  [35m|[0m  [31m|[0m  [37m|[0m  [33m|[0m  [31m|[0m  [32m|[0m  [33m|[0m  [32m|[0m  [32m|[0m  [34m|[0m  [33m|[0m  [37m|[0m  [31m|[0m  [35m|[0m  [32m|[0m     [36m|[0m  [31m|[0m  [34m|[0m  [31m|[0m  [35m|[0m  [33m|[0m  [37m|[0m  [36m|[0m  [35m|[0m  [36m|[0m  [31m|[0m  [35m|[0m        [32m|[0m   48 39 c7             	[33mcmp    [0m[34mrdi[0m,[34mrax[0m
  402dfb:	[37m|[0m  [36m|[0m  [31m|[0m  [36m|[0m  [31m|[0m  [36m|[0m  [32m|[0m  [36m|[0m  [34m|[0m  [31m|[0m  [35m|[0m  [31m|[0m  [37m|[0m  [33m|[0m  [31m|[0m  [32m|[0m  [33m|[0m  [32m|[0m  [32m|[0m  [34m|[0m  [33m|[0m  [37m|[0m  [31m|[0m  [35m|[0m  [32m|[0m     [36m|[0m  [31m|[0m  [34m|[0m  [31m|[0m  [35m|[0m  [33m|[0m  [37m|[0m  [36m|[0m  [35m|[0m  [36m|[0m  [31m|[0m  [35m|[0m  [36m/[36m-[36m-[36m-[36m-[36m-[32m|[36m-[36m-[0m 0f 84 1f 01 00 00    	[33mje     [0m[35m402f20[0m <[32m_Z13calc_speed_upv[0m[35m+0x[0m[35m870[0m>
  402e01:	[37m|[0m  [36m|[0m  [31m|[0m  [36m|[0m  [31m|[0m  [36m|[0m  [32m|[0m  [36m|[0m  [34m|[0m  [31m|[0m  [35m|[0m  [31m|[0m  [37m|[0m  [33m|[0m  [31m|[0m  [32m|[0m  [33m|[0m  [32m|[0m  [32m|[0m  [34m|[0m  [33m|[0m  [37m|[0m  [31m|[0m  [35m|[0m  [32m|[0m     [36m|[0m  [31m|[0m  [34m|[0m  [31m|[0m  [35m|[0m  [33m|[0m  [37m|[0m  [36m|[0m  [35m|[0m  [36m|[0m  [31m|[0m  [35m|[0m  [36m|[0m     [32m|[0m   48 8b 43 18          	[33mmov    [0m[34mrax[0m,QWORD PTR [[34mrbx[0m+[35m0x18[0m]
  402e05:	[37m|[0m  [36m|[0m  [31m|[0m  [36m|[0m  [31m|[0m  [36m|[0m  [32m|[0m  [36m|[0m  [34m|[0m  [31m|[0m  [35m|[0m  [31m|[0m  [37m|[0m  [33m|[0m  [31m|[0m  [32m|[0m  [33m|[0m  [32m|[0m  [32m|[0m  [34m|[0m  [33m|[0m  [37m|[0m  [31m|[0m  [35m|[0m  [32m|[0m     [36m|[0m  [31m|[0m  [34m|[0m  [31m|[0m  [35m|[0m  [33m|[0m  [37m|[0m  [36m|[0m  [35m|[0m  [36m|[0m  [31m|[0m  [35m|[0m  [36m|[0m     [32m|[0m   48 83 c3 30          	[33madd    [0m[34mrbx[0m,[35m0x30[0m
  402e09:	[37m|[0m  [36m|[0m  [31m|[0m  [36m|[0m  [31m|[0m  [36m|[0m  [32m|[0m  [36m|[0m  [34m|[0m  [31m|[0m  [35m|[0m  [31m|[0m  [37m|[0m  [33m|[0m  [31m|[0m  [32m|[0m  [33m|[0m  [32m|[0m  [32m|[0m  [34m|[0m  [33m|[0m  [37m|[0m  [31m|[0m  [35m|[0m  [32m|[0m     [36m|[0m  [31m|[0m  [34m|[0m  [31m|[0m  [35m|[0m  [33m|[0m  [37m|[0m  [36m|[0m  [35m|[0m  [36m|[0m  [31m|[0m  [35m|[0m  [36m|[0m     [32m|[0m   48 8d 70 01          	[33mlea    [0m[34mrsi[0m,[[34mrax[0m+[35m0x1[0m]
  402e0d:	[37m|[0m  [36m|[0m  [31m|[0m  [36m|[0m  [31m|[0m  [36m|[0m  [32m|[0m  [36m|[0m  [34m|[0m  [31m|[0m  [35m|[0m  [31m|[0m  [37m|[0m  [33m|[0m  [31m|[0m  [32m|[0m  [33m|[0m  [32m|[0m  [32m|[0m  [34m|[0m  [33m|[0m  [37m|[0m  [31m|[0m  [35m|[0m  [32m|[0m     [36m|[0m  [31m|[0m  [34m|[0m  [31m|[0m  [35m|[0m  [33m|[0m  [37m|[0m  [36m|[0m  [35m|[0m  [36m|[0m  [31m|[0m  [35m|[0m  [36m|[0m     [32m|[0m   e8 ae f2 ff ff       	[33mcall   [0m[35m4020c0[0m <[32m_ZdlPvm@plt[0m>
  402e12:	[37m|[0m  [36m|[0m  [31m|[0m  [36m|[0m  [31m|[0m  [36m|[0m  [32m|[0m  [36m|[0m  [34m|[0m  [31m|[0m  [35m|[0m  [31m|[0m  [37m|[0m  [33m|[0m  [31m|[0m  [32m|[0m  [33m|[0m  [32m|[0m  [32m|[0m  [34m|[0m  [33m|[0m  [37m|[0m  [31m|[0m  [35m|[0m  [32m|[0m     [36m|[0m  [31m|[0m  [34m|[0m  [31m|[0m  [35m|[0m  [33m|[0m  [37m|[0m  [36m|[0m  [35m|[0m  [36m|[0m  [31m|[0m  [35m|[0m  [36m|[0m     [32m|[0m   48 39 1c 24          	[33mcmp    [0mQWORD PTR [[34mrsp[0m],[34mrbx[0m
  402e16:	[37m|[0m  [36m|[0m  [31m|[0m  [36m|[0m  [31m|[0m  [36m|[0m  [32m|[0m  [36m|[0m  [34m|[0m  [31m|[0m  [35m|[0m  [31m|[0m  [37m|[0m  [33m|[0m  [31m|[0m  [32m|[0m  [33m|[0m  [32m|[0m  [32m|[0m  [34m|[0m  [33m|[0m  [37m|[0m  [31m|[0m  [35m|[0m  [32m|[0m     [36m|[0m  [31m|[0m  [34m|[0m  [31m|[0m  [35m|[0m  [33m|[0m  [37m|[0m  [36m|[0m  [35m|[0m  [36m|[0m  [31m|[0m  [35m+[35m-[35m-[36m|[35m-[35m-[35m-[35m-[35m-[32m|[35m-[35m-[0m 75 d8                	[33mjne    [0m[35m402df0[0m <[32m_Z13calc_speed_upv[0m[35m+0x[0m[35m740[0m>
  402e18:	[37m|[0m  [36m|[0m  [31m|[0m  [36m|[0m  [31m|[0m  [36m|[0m  [32m|[0m  [36m|[0m  [34m|[0m  [31m|[0m  [35m|[0m  [31m|[0m  [37m|[0m  [33m|[0m  [31m|[0m  [32m|[0m  [33m|[0m  [32m|[0m  [32m|[0m  [34m|[0m  [33m|[0m  [37m|[0m  [31m|[0m  [35m|[0m  [32m|[0m     [36m|[0m  [31m|[0m  [34m|[0m  [31m|[0m  [35m|[0m  [33m|[0m  [37m|[0m  [36m|[0m  [35m|[0m  [36m|[0m  [31m|[0m  [35m|[0m  [36m|[0m  [36m/--[32m|[36m->[0m 48 8b 84 24 88 01 00 	[33mmov    [0m[34mrax[0m,QWORD PTR [[34mrsp[0m+[35m0x188[0m]
  402e1f:	[37m|[0m  [36m|[0m  [31m|[0m  [36m|[0m  [31m|[0m  [36m|[0m  [32m|[0m  [36m|[0m  [34m|[0m  [31m|[0m  [35m|[0m  [31m|[0m  [37m|[0m  [33m|[0m  [31m|[0m  [32m|[0m  [33m|[0m  [32m|[0m  [32m|[0m  [34m|[0m  [33m|[0m  [37m|[0m  [31m|[0m  [35m|[0m  [32m|[0m     [36m|[0m  [31m|[0m  [34m|[0m  [31m|[0m  [35m|[0m  [33m|[0m  [37m|[0m  [36m|[0m  [35m|[0m  [36m|[0m  [31m|[0m  [35m|[0m  [36m|[0m  [36m|[0m  [32m|[0m   00 
  402e20:	[37m|[0m  [36m|[0m  [31m|[0m  [36m|[0m  [31m|[0m  [36m|[0m  [32m|[0m  [36m|[0m  [34m|[0m  [31m|[0m  [35m|[0m  [31m|[0m  [37m|[0m  [33m|[0m  [31m|[0m  [32m|[0m  [33m|[0m  [32m|[0m  [32m|[0m  [34m|[0m  [33m|[0m  [37m|[0m  [31m|[0m  [35m|[0m  [32m|[0m     [36m|[0m  [31m|[0m  [34m|[0m  [31m|[0m  [35m|[0m  [33m|[0m  [37m|[0m  [36m|[0m  [35m|[0m  [36m|[0m  [31m|[0m  [35m|[0m  [36m|[0m  [36m|[0m  [32m|[0m   64 48 2b 04 25 28 00 	[33msub    [0m[34mrax[0m,QWORD PTR [34mfs[0m:0x28
  402e27:	[37m|[0m  [36m|[0m  [31m|[0m  [36m|[0m  [31m|[0m  [36m|[0m  [32m|[0m  [36m|[0m  [34m|[0m  [31m|[0m  [35m|[0m  [31m|[0m  [37m|[0m  [33m|[0m  [31m|[0m  [32m|[0m  [33m|[0m  [32m|[0m  [32m|[0m  [34m|[0m  [33m|[0m  [37m|[0m  [31m|[0m  [35m|[0m  [32m|[0m     [36m|[0m  [31m|[0m  [34m|[0m  [31m|[0m  [35m|[0m  [33m|[0m  [37m|[0m  [36m|[0m  [35m|[0m  [36m|[0m  [31m|[0m  [35m|[0m  [36m|[0m  [36m|[0m  [32m|[0m   00 00 
  402e29:	[37m|[0m  [36m|[0m  [31m|[0m  [36m|[0m  [31m|[0m  [36m|[0m  [32m|[0m  [36m|[0m  [34m|[0m  [31m|[0m  [35m|[0m  [31m|[0m  [37m|[0m  [33m|[0m  [31m|[0m  [32m|[0m  [33m|[0m  [32m|[0m  [32m|[0m  [34m|[0m  [33m|[0m  [37m|[0m  [31m|[0m  [35m|[0m  [32m|[0m  [36m/[36m-[36m-[36m|[36m-[36m-[31m|[36m-[36m-[34m|[36m-[36m-[31m|[36m-[36m-[35m|[36m-[36m-[33m|[36m-[36m-[37m|[36m-[36m-[36m|[36m-[36m-[35m|[36m-[36m-[36m|[36m-[36m-[31m|[36m-[36m-[35m|[36m-[36m-[36m|[36m-[36m-[36m|[36m-[36m-[32m|[36m-[36m-[0m 0f 85 dc 02 00 00    	[33mjne    [0m[35m40310b[0m <[32m_Z13calc_speed_upv[0m[35m+0x[0m[35ma5b[0m>
  402e2f:	[37m|[0m  [36m|[0m  [31m|[0m  [36m|[0m  [31m|[0m  [36m|[0m  [32m|[0m  [36m|[0m  [34m|[0m  [31m|[0m  [35m|[0m  [31m|[0m  [37m|[0m  [33m|[0m  [31m|[0m  [32m|[0m  [33m|[0m  [32m|[0m  [32m|[0m  [34m|[0m  [33m|[0m  [37m|[0m  [31m|[0m  [35m|[0m  [32m|[0m  [36m|[0m  [36m|[0m  [31m|[0m  [34m|[0m  [31m|[0m  [35m|[0m  [33m|[0m  [37m|[0m  [36m|[0m  [35m|[0m  [36m|[0m  [31m|[0m  [35m|[0m  [36m|[0m  [36m|[0m  [32m|[0m   48 81 c4 98 01 00 00 	[33madd    [0m[34mrsp[0m,[35m0x198[0m
  402e36:	[37m|[0m  [36m|[0m  [31m|[0m  [36m|[0m  [31m|[0m  [36m|[0m  [32m|[0m  [36m|[0m  [34m|[0m  [31m|[0m  [35m|[0m  [31m|[0m  [37m|[0m  [33m|[0m  [31m|[0m  [32m|[0m  [33m|[0m  [32m|[0m  [32m|[0m  [34m|[0m  [33m|[0m  [37m|[0m  [31m|[0m  [35m|[0m  [32m|[0m  [36m|[0m  [36m|[0m  [31m|[0m  [34m|[0m  [31m|[0m  [35m|[0m  [33m|[0m  [37m|[0m  [36m|[0m  [35m|[0m  [36m|[0m  [31m|[0m  [35m|[0m  [36m|[0m  [36m|[0m  [32m|[0m   4c 89 ff             	[33mmov    [0m[34mrdi[0m,[34mr15[0m
  402e39:	[37m|[0m  [36m|[0m  [31m|[0m  [36m|[0m  [31m|[0m  [36m|[0m  [32m|[0m  [36m|[0m  [34m|[0m  [31m|[0m  [35m|[0m  [31m|[0m  [37m|[0m  [33m|[0m  [31m|[0m  [32m|[0m  [33m|[0m  [32m|[0m  [32m|[0m  [34m|[0m  [33m|[0m  [37m|[0m  [31m|[0m  [35m|[0m  [32m|[0m  [36m|[0m  [36m|[0m  [31m|[0m  [34m|[0m  [31m|[0m  [35m|[0m  [33m|[0m  [37m|[0m  [36m|[0m  [35m|[0m  [36m|[0m  [31m|[0m  [35m|[0m  [36m|[0m  [36m|[0m  [32m|[0m   be c0 00 00 00       	[33mmov    [0m[34mesi[0m,[35m0xc0[0m
  402e3e:	[37m|[0m  [36m|[0m  [31m|[0m  [36m|[0m  [31m|[0m  [36m|[0m  [32m|[0m  [36m|[0m  [34m|[0m  [31m|[0m  [35m|[0m  [31m|[0m  [37m|[0m  [33m|[0m  [31m|[0m  [32m|[0m  [33m|[0m  [32m|[0m  [32m|[0m  [34m|[0m  [33m|[0m  [37m|[0m  [31m|[0m  [35m|[0m  [32m|[0m  [36m|[0m  [36m|[0m  [31m|[0m  [34m|[0m  [31m|[0m  [35m|[0m  [33m|[0m  [37m|[0m  [36m|[0m  [35m|[0m  [36m|[0m  [31m|[0m  [35m|[0m  [36m|[0m  [36m|[0m  [32m|[0m   5b                   	[33mpop    [0m[34mrbx[0m
  402e3f:	[37m|[0m  [36m|[0m  [31m|[0m  [36m|[0m  [31m|[0m  [36m|[0m  [32m|[0m  [36m|[0m  [34m|[0m  [31m|[0m  [35m|[0m  [31m|[0m  [37m|[0m  [33m|[0m  [31m|[0m  [32m|[0m  [33m|[0m  [32m|[0m  [32m|[0m  [34m|[0m  [33m|[0m  [37m|[0m  [31m|[0m  [35m|[0m  [32m|[0m  [36m|[0m  [36m|[0m  [31m|[0m  [34m|[0m  [31m|[0m  [35m|[0m  [33m|[0m  [37m|[0m  [36m|[0m  [35m|[0m  [36m|[0m  [31m|[0m  [35m|[0m  [36m|[0m  [36m|[0m  [32m|[0m   5d                   	[33mpop    [0m[34mrbp[0m
  402e40:	[37m|[0m  [36m|[0m  [31m|[0m  [36m|[0m  [31m|[0m  [36m|[0m  [32m|[0m  [36m|[0m  [34m|[0m  [31m|[0m  [35m|[0m  [31m|[0m  [37m|[0m  [33m|[0m  [31m|[0m  [32m|[0m  [33m|[0m  [32m|[0m  [32m|[0m  [34m|[0m  [33m|[0m  [37m|[0m  [31m|[0m  [35m|[0m  [32m|[0m  [36m|[0m  [36m|[0m  [31m|[0m  [34m|[0m  [31m|[0m  [35m|[0m  [33m|[0m  [37m|[0m  [36m|[0m  [35m|[0m  [36m|[0m  [31m|[0m  [35m|[0m  [36m|[0m  [36m|[0m  [32m|[0m   41 5c                	[33mpop    [0m[34mr12[0m
  402e42:	[37m|[0m  [36m|[0m  [31m|[0m  [36m|[0m  [31m|[0m  [36m|[0m  [32m|[0m  [36m|[0m  [34m|[0m  [31m|[0m  [35m|[0m  [31m|[0m  [37m|[0m  [33m|[0m  [31m|[0m  [32m|[0m  [33m|[0m  [32m|[0m  [32m|[0m  [34m|[0m  [33m|[0m  [37m|[0m  [31m|[0m  [35m|[0m  [32m|[0m  [36m|[0m  [36m|[0m  [31m|[0m  [34m|[0m  [31m|[0m  [35m|[0m  [33m|[0m  [37m|[0m  [36m|[0m  [35m|[0m  [36m|[0m  [31m|[0m  [35m|[0m  [36m|[0m  [36m|[0m  [32m|[0m   41 5d                	[33mpop    [0m[34mr13[0m
  402e44:	[37m|[0m  [36m|[0m  [31m|[0m  [36m|[0m  [31m|[0m  [36m|[0m  [32m|[0m  [36m|[0m  [34m|[0m  [31m|[0m  [35m|[0m  [31m|[0m  [37m|[0m  [33m|[0m  [31m|[0m  [32m|[0m  [33m|[0m  [32m|[0m  [32m|[0m  [34m|[0m  [33m|[0m  [37m|[0m  [31m|[0m  [35m|[0m  [32m|[0m  [36m|[0m  [36m|[0m  [31m|[0m  [34m|[0m  [31m|[0m  [35m|[0m  [33m|[0m  [37m|[0m  [36m|[0m  [35m|[0m  [36m|[0m  [31m|[0m  [35m|[0m  [36m|[0m  [36m|[0m  [32m|[0m   41 5e                	[33mpop    [0m[34mr14[0m
  402e46:	[37m|[0m  [36m|[0m  [31m|[0m  [36m|[0m  [31m|[0m  [36m|[0m  [32m|[0m  [36m|[0m  [34m|[0m  [31m|[0m  [35m|[0m  [31m|[0m  [37m|[0m  [33m|[0m  [31m|[0m  [32m|[0m  [33m|[0m  [32m|[0m  [32m|[0m  [34m|[0m  [33m|[0m  [37m|[0m  [31m|[0m  [35m|[0m  [32m|[0m  [36m|[0m  [36m|[0m  [31m|[0m  [34m|[0m  [31m|[0m  [35m|[0m  [33m|[0m  [37m|[0m  [36m|[0m  [35m|[0m  [36m|[0m  [31m|[0m  [35m|[0m  [36m|[0m  [36m|[0m  [32m|[0m   41 5f                	[33mpop    [0m[34mr15[0m
  402e48:	[37m|[0m  [36m|[0m  [31m|[0m  [36m|[0m  [31m|[0m  [36m|[0m  [32m|[0m  [36m|[0m  [34m|[0m  [31m|[0m  [35m|[0m  [31m|[0m  [37m|[0m  [33m|[0m  [31m|[0m  [32m|[0m  [33m|[0m  [32m|[0m  [32m|[0m  [34m|[0m  [33m|[0m  [37m|[0m  [31m|[0m  [35m|[0m  [32m|[0m  [36m|[0m  [36m|[0m  [31m|[0m  [34m|[0m  [31m|[0m  [35m|[0m  [33m|[0m  [37m|[0m  [36m|[0m  [35m|[0m  [36m|[0m  [31m|[0m  [35m|[0m  [36m|[0m  [36m|[0m  [32m|[0m   e9 73 f2 ff ff       	[33mjmp    [0m[35m4020c0[0m <[32m_ZdlPvm@plt[0m>
  402e4d:	[37m|[0m  [36m|[0m  [31m|[0m  [36m|[0m  [31m|[0m  [36m|[0m  [32m|[0m  [36m|[0m  [34m|[0m  [31m|[0m  [35m|[0m  [31m|[0m  [37m|[0m  [33m|[0m  [31m|[0m  [32m|[0m  [33m|[0m  [32m|[0m  [32m|[0m  [34m|[0m  [33m|[0m  [37m|[0m  [31m|[0m  [35m|[0m  [32m|[0m  [36m|[0m  [36m|[0m  [31m|[0m  [34m|[0m  [31m|[0m  [35m\--[33m|[35m--[37m|[35m--[36m|[35m--[35m|[35m--[36m|[35m--[31m|[35m--[35m|[35m--[36m|[35m--[36m|[35m--[32m|[35m->[0m 48 85 db             	[33mtest   [0m[34mrbx[0m,[34mrbx[0m
  402e50:	[37m+--[36m|[37m--[31m|[37m--[36m|[37m--[31m|[37m--[36m|[37m--[32m|[37m--[36m|[37m--[34m|[37m--[31m|[37m--[35m|[37m--[31m|[37m--[37m|[37m--[33m|[37m--[31m|[37m--[32m|[37m--[33m|[37m--[32m|[37m--[32m|[37m--[34m|[37m--[33m|[37m--[37m|[37m--[31m|[37m--[35m|[37m--[32m|[37m--[36m|[37m--[36m|[37m--[31m|[37m--[34m|[37m--[31m|[37m-----[33m|[37m--[37m|[37m--[36m|[37m--[35m|[37m--[36m|[37m--[31m|[37m--[35m|[37m--[36m|[37m--[36m|[37m--[32m|[37m--[0m 0f 84 a5 f9 ff ff    	[33mje     [0m[35m4027fb[0m <[32m_Z13calc_speed_upv[0m[35m+0x[0m[35m14b[0m>
  402e56:	[37m|[0m  [36m|[0m  [31m|[0m  [36m|[0m  [31m|[0m  [36m|[0m  [32m|[0m  [36m|[0m  [34m|[0m  [31m|[0m  [35m|[0m  [31m|[0m  [37m|[0m  [33m|[0m  [31m|[0m  [32m|[0m  [33m|[0m  [32m|[0m  [32m|[0m  [34m|[0m  [33m|[0m  [37m|[0m  [31m|[0m  [35m|[0m  [32m|[0m  [36m|[0m  [36m|[0m  [31m|[0m  [34m|[0m  [31m|[0m     [33m|[0m  [37m|[0m  [36m|[0m  [35m|[0m  [36m|[0m  [31m|[0m  [35m|[0m  [36m|[0m  [36m|[0m  [32m|[0m   48 89 c7             	[33mmov    [0m[34mrdi[0m,[34mrax[0m
  402e59:	[37m|[0m  [36m|[0m  [31m|[0m  [36m|[0m  [31m|[0m  [36m|[0m  [32m|[0m  [36m|[0m  [34m|[0m  [31m|[0m  [35m|[0m  [31m|[0m  [37m|[0m  [33m|[0m  [31m|[0m  [32m|[0m  [33m|[0m  [32m|[0m  [32m|[0m  [34m|[0m  [33m|[0m  [37m|[0m  [31m|[0m  [35m|[0m  [32m|[0m  [36m|[0m  [36m|[0m  [31m|[0m  [34m|[0m  [31m|[0m  [34m/[34m-[34m-[33m|[34m-[34m-[37m|[34m-[34m-[36m|[34m-[34m-[35m|[34m-[34m-[36m|[34m-[34m-[31m|[34m-[34m-[35m|[34m-[34m-[36m|[34m-[34m-[36m|[34m-[34m-[32m|[34m-[34m-[0m e9 68 01 00 00       	[33mjmp    [0m[35m402fc6[0m <[32m_Z13calc_speed_upv[0m[35m+0x[0m[35m916[0m>
  402e5e:	[37m|[0m  [36m|[0m  [31m|[0m  [36m|[0m  [31m|[0m  [36m|[0m  [32m|[0m  [36m|[0m  [34m|[0m  [31m|[0m  [35m|[0m  [31m|[0m  [37m|[0m  [33m|[0m  [31m|[0m  [32m|[0m  [33m|[0m  [32m|[0m  [32m|[0m  [34m|[0m  [33m|[0m  [37m|[0m  [31m|[0m  [35m|[0m  [32m|[0m  [36m|[0m  [36m|[0m  [31m|[0m  [34m|[0m  [31m|[0m  [34m|[0m  [33m|[0m  [37m|[0m  [36m|[0m  [35m|[0m  [36m|[0m  [31m|[0m  [35m|[0m  [36m|[0m  [36m|[0m  [32m|[0m   66 90                	[33mxchg   [0m[34max[0m,[34max[0m
  402e60:	[37m|[0m  [36m|[0m  [31m|[0m  [36m|[0m  [31m|[0m  [36m|[0m  [32m|[0m  [36m|[0m  [34m|[0m  [31m|[0m  [35m|[0m  [31m|[0m  [37m|[0m  [33m|[0m  [31m|[0m  [32m|[0m  [33m|[0m  [32m|[0m  [32m|[0m  [34m|[0m  [33m|[0m  [37m|[0m  [31m|[0m  [35m|[0m  [32m|[0m  [36m|[0m  [36m|[0m  [31m|[0m  [34m|[0m  [31m\--[34m|[31m--[33m|[31m--[37m|[31m--[36m|[31m--[35m|[31m--[36m|[31m--[31m|[31m--[35m|[31m--[36m|[31m--[36m|[31m--[32m|[31m->[0m c5 fb 5c 05 e8 21 00 	[33mvsubsd [0m[34mxmm0[0m,[34mxmm0[0m,QWORD PTR [[34mrip[0m+[35m0x21e8[0m]        # 405050 <_IO_stdin_used+0x50>
  402e67:	[37m|[0m  [36m|[0m  [31m|[0m  [36m|[0m  [31m|[0m  [36m|[0m  [32m|[0m  [36m|[0m  [34m|[0m  [31m|[0m  [35m|[0m  [31m|[0m  [37m|[0m  [33m|[0m  [31m|[0m  [32m|[0m  [33m|[0m  [32m|[0m  [32m|[0m  [34m|[0m  [33m|[0m  [37m|[0m  [31m|[0m  [35m|[0m  [32m|[0m  [36m|[0m  [36m|[0m  [31m|[0m  [34m|[0m     [34m|[0m  [33m|[0m  [37m|[0m  [36m|[0m  [35m|[0m  [36m|[0m  [31m|[0m  [35m|[0m  [36m|[0m  [36m|[0m  [32m|[0m   00 
  402e68:	[37m|[0m  [36m|[0m  [31m|[0m  [36m|[0m  [31m|[0m  [36m|[0m  [32m|[0m  [36m|[0m  [34m|[0m  [31m|[0m  [35m|[0m  [31m|[0m  [37m|[0m  [33m|[0m  [31m|[0m  [32m|[0m  [33m|[0m  [32m|[0m  [32m|[0m  [34m|[0m  [33m|[0m  [37m|[0m  [31m|[0m  [35m|[0m  [32m|[0m  [36m|[0m  [36m|[0m  [31m|[0m  [34m|[0m     [34m|[0m  [33m|[0m  [37m|[0m  [36m|[0m  [35m|[0m  [36m|[0m  [31m|[0m  [35m|[0m  [36m|[0m  [36m|[0m  [32m|[0m   c4 e1 fb 2c c0       	[33mvcvttsd2si [0m[34mrax[0m,[34mxmm0[0m
  402e6d:	[37m|[0m  [36m|[0m  [31m|[0m  [36m|[0m  [31m|[0m  [36m|[0m  [32m|[0m  [36m|[0m  [34m|[0m  [31m|[0m  [35m|[0m  [31m|[0m  [37m|[0m  [33m|[0m  [31m|[0m  [32m|[0m  [33m|[0m  [32m|[0m  [32m|[0m  [34m|[0m  [33m|[0m  [37m|[0m  [31m|[0m  [35m|[0m  [32m|[0m  [36m|[0m  [36m|[0m  [31m|[0m  [34m|[0m     [34m|[0m  [33m|[0m  [37m|[0m  [36m|[0m  [35m|[0m  [36m|[0m  [31m|[0m  [35m|[0m  [36m|[0m  [36m|[0m  [32m|[0m   49 89 46 f8          	[33mmov    [0mQWORD PTR [[34mr14[0m[35m-[0m[35m0x8[0m],[34mrax[0m
  402e71:	[37m|[0m  [36m|[0m  [31m|[0m  [36m|[0m  [31m|[0m  [36m|[0m  [32m|[0m  [36m|[0m  [34m|[0m  [31m|[0m  [35m|[0m  [31m|[0m  [37m|[0m  [33m|[0m  [31m|[0m  [32m|[0m  [33m|[0m  [32m|[0m  [32m|[0m  [34m|[0m  [33m|[0m  [37m|[0m  [31m|[0m  [35m|[0m  [32m|[0m  [36m|[0m  [36m|[0m  [31m|[0m  [34m|[0m     [34m|[0m  [33m|[0m  [37m|[0m  [36m|[0m  [35m|[0m  [36m|[0m  [31m|[0m  [35m|[0m  [36m|[0m  [36m|[0m  [32m|[0m   49 0f ba 7e f8 3f    	[33mbtc    [0mQWORD PTR [[34mr14[0m[35m-[0m[35m0x8[0m],[35m0x3f[0m
  402e77:	[37m|[0m  [36m|[0m  [31m|[0m  [36m|[0m  [31m|[0m  [36m|[0m  [32m|[0m  [36m|[0m  [34m|[0m  [31m|[0m  [35m|[0m  [31m|[0m  [37m|[0m  [33m|[0m  [31m|[0m  [32m|[0m  [33m|[0m  [32m|[0m  [32m|[0m  [34m|[0m  [33m|[0m  [37m|[0m  [31m|[0m  [35m|[0m  [32m|[0m  [36m|[0m  [36m|[0m  [31m|[0m  [34m\[34m-[34m-[34m-[34m-[34m-[34m|[34m-[34m-[33m|[34m-[34m-[37m|[34m-[34m-[36m|[34m-[34m-[35m|[34m-[34m-[36m|[34m-[34m-[31m|[34m-[34m-[35m|[34m-[34m-[36m|[34m-[34m-[36m|[34m-[34m-[32m|[34m-[34m-[0m e9 7f fe ff ff       	[33mjmp    [0m[35m402cfb[0m <[32m_Z13calc_speed_upv[0m[35m+0x[0m[35m64b[0m>
  402e7c:	[37m|[0m  [36m|[0m  [31m|[0m  [36m|[0m  [31m|[0m  [36m|[0m  [32m|[0m  [36m|[0m  [34m|[0m  [31m|[0m  [35m|[0m  [31m|[0m  [37m|[0m  [33m|[0m  [31m|[0m  [32m|[0m  [33m|[0m  [32m|[0m  [32m|[0m  [34m|[0m  [33m|[0m  [37m|[0m  [31m|[0m  [35m|[0m  [32m|[0m  [36m|[0m  [36m|[0m  [31m|[0m        [34m|[0m  [33m|[0m  [37m|[0m  [36m|[0m  [35m|[0m  [36m|[0m  [31m|[0m  [35m|[0m  [36m|[0m  [36m|[0m  [32m|[0m   0f 1f 40 00          	[33mnop    [0mDWORD PTR [[34mrax[0m+[35m0x0[0m]
  402e80:	[37m|[0m  [36m|[0m  [31m|[0m  [36m|[0m  [31m|[0m  [36m|[0m  [32m|[0m  [36m|[0m  [34m|[0m  [31m|[0m  [35m|[0m  [31m|[0m  [37m|[0m  [33m|[0m  [31m|[0m  [32m|[0m  [33m|[0m  [32m|[0m  [32m|[0m  [34m|[0m  [33m|[0m  [37m|[0m  [31m|[0m  [35m|[0m  [32m|[0m  [36m|[0m  [36m|[0m  [31m\[31m-[31m-[31m-[31m-[31m-[31m-[31m-[31m-[34m|[31m-[31m-[33m|[31m-[31m-[37m|[31m-[31m-[36m|[31m-[31m-[35m|[31m-[31m-[36m|[31m-[31m-[31m|[31m-[31m-[35m|[31m-[31m-[36m|[31m-[31m-[36m|[31m-[31m-[32m|[31m-[31m>[0m 4c 89 e0             	[33mmov    [0m[34mrax[0m,[34mr12[0m
  402e83:	[37m|[0m  [36m|[0m  [31m|[0m  [36m|[0m  [31m|[0m  [36m|[0m  [32m|[0m  [36m|[0m  [34m|[0m  [31m|[0m  [35m|[0m  [31m|[0m  [37m|[0m  [33m|[0m  [31m|[0m  [32m|[0m  [33m|[0m  [32m|[0m  [32m|[0m  [34m|[0m  [33m|[0m  [37m|[0m  [31m|[0m  [35m|[0m  [32m|[0m  [36m|[0m  [36m|[0m           [34m|[0m  [33m|[0m  [37m|[0m  [36m|[0m  [35m|[0m  [36m|[0m  [31m|[0m  [35m|[0m  [36m|[0m  [36m|[0m  [32m|[0m   41 83 e4 01          	[33mand    [0m[34mr12d[0m,[35m0x1[0m
  402e87:	[37m|[0m  [36m|[0m  [31m|[0m  [36m|[0m  [31m|[0m  [36m|[0m  [32m|[0m  [36m|[0m  [34m|[0m  [31m|[0m  [35m|[0m  [31m|[0m  [37m|[0m  [33m|[0m  [31m|[0m  [32m|[0m  [33m|[0m  [32m|[0m  [32m|[0m  [34m|[0m  [33m|[0m  [37m|[0m  [31m|[0m  [35m|[0m  [32m|[0m  [36m|[0m  [36m|[0m           [34m|[0m  [33m|[0m  [37m|[0m  [36m|[0m  [35m|[0m  [36m|[0m  [31m|[0m  [35m|[0m  [36m|[0m  [36m|[0m  [32m|[0m   c5 e1 57 db          	[33mvxorpd [0m[34mxmm3[0m,[34mxmm3[0m,[34mxmm3[0m
  402e8b:	[37m|[0m  [36m|[0m  [31m|[0m  [36m|[0m  [31m|[0m  [36m|[0m  [32m|[0m  [36m|[0m  [34m|[0m  [31m|[0m  [35m|[0m  [31m|[0m  [37m|[0m  [33m|[0m  [31m|[0m  [32m|[0m  [33m|[0m  [32m|[0m  [32m|[0m  [34m|[0m  [33m|[0m  [37m|[0m  [31m|[0m  [35m|[0m  [32m|[0m  [36m|[0m  [36m|[0m           [34m|[0m  [33m|[0m  [37m|[0m  [36m|[0m  [35m|[0m  [36m|[0m  [31m|[0m  [35m|[0m  [36m|[0m  [36m|[0m  [32m|[0m   48 d1 e8             	[33mshr    [0m[34mrax[0m,1
  402e8e:	[37m|[0m  [36m|[0m  [31m|[0m  [36m|[0m  [31m|[0m  [36m|[0m  [32m|[0m  [36m|[0m  [34m|[0m  [31m|[0m  [35m|[0m  [31m|[0m  [37m|[0m  [33m|[0m  [31m|[0m  [32m|[0m  [33m|[0m  [32m|[0m  [32m|[0m  [34m|[0m  [33m|[0m  [37m|[0m  [31m|[0m  [35m|[0m  [32m|[0m  [36m|[0m  [36m|[0m           [34m|[0m  [33m|[0m  [37m|[0m  [36m|[0m  [35m|[0m  [36m|[0m  [31m|[0m  [35m|[0m  [36m|[0m  [36m|[0m  [32m|[0m   4c 09 e0             	[33mor     [0m[34mrax[0m,[34mr12[0m
  402e91:	[37m|[0m  [36m|[0m  [31m|[0m  [36m|[0m  [31m|[0m  [36m|[0m  [32m|[0m  [36m|[0m  [34m|[0m  [31m|[0m  [35m|[0m  [31m|[0m  [37m|[0m  [33m|[0m  [31m|[0m  [32m|[0m  [33m|[0m  [32m|[0m  [32m|[0m  [34m|[0m  [33m|[0m  [37m|[0m  [31m|[0m  [35m|[0m  [32m|[0m  [36m|[0m  [36m|[0m           [34m|[0m  [33m|[0m  [37m|[0m  [36m|[0m  [35m|[0m  [36m|[0m  [31m|[0m  [35m|[0m  [36m|[0m  [36m|[0m  [32m|[0m   c4 e1 e3 2a c0       	[33mvcvtsi2sd [0m[34mxmm0[0m,[34mxmm3[0m,[34mrax[0m
  402e96:	[37m|[0m  [36m|[0m  [31m|[0m  [36m|[0m  [31m|[0m  [36m|[0m  [32m|[0m  [36m|[0m  [34m|[0m  [31m|[0m  [35m|[0m  [31m|[0m  [37m|[0m  [33m|[0m  [31m|[0m  [32m|[0m  [33m|[0m  [32m|[0m  [32m|[0m  [34m|[0m  [33m|[0m  [37m|[0m  [31m|[0m  [35m|[0m  [32m|[0m  [36m|[0m  [36m|[0m           [34m|[0m  [33m|[0m  [37m|[0m  [36m|[0m  [35m|[0m  [36m|[0m  [31m|[0m  [35m|[0m  [36m|[0m  [36m|[0m  [32m|[0m   c5 fb 58 c0          	[33mvaddsd [0m[34mxmm0[0m,[34mxmm0[0m,[34mxmm0[0m
  402e9a:	[37m|[0m  [36m|[0m  [31m|[0m  [36m|[0m  [31m|[0m  [36m|[0m  [32m|[0m  [36m|[0m  [34m|[0m  [31m|[0m  [35m|[0m  [31m|[0m  [37m|[0m  [33m|[0m  [31m|[0m  [32m|[0m  [33m|[0m  [32m|[0m  [32m|[0m  [34m|[0m  [33m|[0m  [37m|[0m  [31m|[0m  [35m|[0m  [32m|[0m  [36m|[0m  [36m\[36m-[36m-[36m-[36m-[36m-[36m-[36m-[36m-[36m-[36m-[36m-[34m|[36m-[36m-[33m|[36m-[36m-[37m|[36m-[36m-[36m|[36m-[36m-[35m|[36m-[36m-[36m|[36m-[36m-[31m|[36m-[36m-[35m|[36m-[36m-[36m|[36m-[36m-[36m|[36m-[36m-[32m|[36m-[36m-[0m e9 3d fe ff ff       	[33mjmp    [0m[35m402cdc[0m <[32m_Z13calc_speed_upv[0m[35m+0x[0m[35m62c[0m>
  402e9f:	[37m|[0m  [36m|[0m  [31m|[0m  [36m|[0m  [31m|[0m  [36m|[0m  [32m|[0m  [36m|[0m  [34m|[0m  [31m|[0m  [35m|[0m  [31m|[0m  [37m|[0m  [33m|[0m  [31m|[0m  [32m|[0m  [33m|[0m  [32m|[0m  [32m|[0m  [34m|[0m  [33m|[0m  [37m|[0m  [31m|[0m  [35m|[0m  [32m|[0m  [36m|[0m              [34m|[0m  [33m|[0m  [37m|[0m  [36m|[0m  [35m|[0m  [36m|[0m  [31m|[0m  [35m|[0m  [36m|[0m  [36m|[0m  [32m|[0m   90                   	[33mnop[0m
  402ea0:	[37m|[0m  [36m|[0m  [31m|[0m  [36m|[0m  [31m|[0m  [36m|[0m  [32m|[0m  [36m|[0m  [34m|[0m  [31m|[0m  [35m|[0m  [31m|[0m  [37m|[0m  [33m|[0m  [31m|[0m  [32m|[0m  [33m|[0m  [32m|[0m  [32m|[0m  [34m|[0m  [33m|[0m  [37m|[0m  [31m|[0m  [35m|[0m  [32m|[0m  [36m|[0m              [34m|[0m  [33m|[0m  [37m|[0m  [36m|[0m  [35m\--[36m|[35m--[31m|[35m--[35m|[35m--[36m|[35m--[36m|[35m--[32m|[35m->[0m 49 8b 46 d8          	[33mmov    [0m[34mrax[0m,QWORD PTR [[34mr14[0m[35m-[0m[35m0x28[0m]
  402ea4:	[37m|[0m  [36m|[0m  [31m|[0m  [36m|[0m  [31m|[0m  [36m|[0m  [32m|[0m  [36m|[0m  [34m|[0m  [31m|[0m  [35m|[0m  [31m|[0m  [37m|[0m  [33m|[0m  [31m|[0m  [32m|[0m  [33m|[0m  [32m|[0m  [32m|[0m  [34m|[0m  [33m|[0m  [37m|[0m  [31m|[0m  [35m|[0m  [32m|[0m  [36m|[0m              [34m|[0m  [33m|[0m  [37m|[0m  [36m|[0m     [36m|[0m  [31m|[0m  [35m|[0m  [36m|[0m  [36m|[0m  [32m|[0m   48 ba 64 67 65 6d 6d 	[33mmovabs [0m[34mrdx[0m,[35m0x61625f6d6d656764[0m
  402eab:	[37m|[0m  [36m|[0m  [31m|[0m  [36m|[0m  [31m|[0m  [36m|[0m  [32m|[0m  [36m|[0m  [34m|[0m  [31m|[0m  [35m|[0m  [31m|[0m  [37m|[0m  [33m|[0m  [31m|[0m  [32m|[0m  [33m|[0m  [32m|[0m  [32m|[0m  [34m|[0m  [33m|[0m  [37m|[0m  [31m|[0m  [35m|[0m  [32m|[0m  [36m|[0m              [34m|[0m  [33m|[0m  [37m|[0m  [36m|[0m     [36m|[0m  [31m|[0m  [35m|[0m  [36m|[0m  [36m|[0m  [32m|[0m   5f 62 61 
  402eae:	[37m|[0m  [36m|[0m  [31m|[0m  [36m|[0m  [31m|[0m  [36m|[0m  [32m|[0m  [36m|[0m  [34m|[0m  [31m|[0m  [35m|[0m  [31m|[0m  [37m|[0m  [33m|[0m  [31m|[0m  [32m|[0m  [33m|[0m  [32m|[0m  [32m|[0m  [34m|[0m  [33m|[0m  [37m|[0m  [31m|[0m  [35m|[0m  [32m|[0m  [36m|[0m              [34m|[0m  [33m|[0m  [37m|[0m  [36m|[0m     [36m|[0m  [31m|[0m  [35m|[0m  [36m|[0m  [36m|[0m  [32m|[0m   48 39 10             	[33mcmp    [0mQWORD PTR [[34mrax[0m],[34mrdx[0m
  402eb1:	[37m|[0m  [36m|[0m  [31m|[0m  [36m|[0m  [31m|[0m  [36m|[0m  [32m|[0m  [36m|[0m  [34m|[0m  [31m|[0m  [35m|[0m  [31m|[0m  [37m|[0m  [33m|[0m  [31m|[0m  [32m|[0m  [33m|[0m  [32m|[0m  [32m|[0m  [34m|[0m  [33m|[0m  [37m|[0m  [31m|[0m  [35m|[0m  [32m|[0m  [36m|[0m              [34m|[0m  [33m+[33m-[33m-[37m|[33m-[33m-[36m|[33m-[33m-[33m-[33m-[33m-[36m|[33m-[33m-[31m|[33m-[33m-[35m|[33m-[33m-[36m|[33m-[33m-[36m|[33m-[33m-[32m|[33m-[33m-[0m 0f 85 a8 fe ff ff    	[33mjne    [0m[35m402d5f[0m <[32m_Z13calc_speed_upv[0m[35m+0x[0m[35m6af[0m>
  402eb7:	[37m|[0m  [36m|[0m  [31m|[0m  [36m|[0m  [31m|[0m  [36m|[0m  [32m|[0m  [36m|[0m  [34m|[0m  [31m|[0m  [35m|[0m  [31m|[0m  [37m|[0m  [33m|[0m  [31m|[0m  [32m|[0m  [33m|[0m  [32m|[0m  [32m|[0m  [34m|[0m  [33m|[0m  [37m|[0m  [31m|[0m  [35m|[0m  [32m|[0m  [36m|[0m              [34m|[0m  [33m|[0m  [37m|[0m  [36m|[0m     [36m|[0m  [31m|[0m  [35m|[0m  [36m|[0m  [36m|[0m  [32m|[0m   81 78 07 61 73 69 63 	[33mcmp    [0mDWORD PTR [[34mrax[0m+[35m0x7[0m],[35m0x63697361[0m
  402ebe:	[37m|[0m  [36m|[0m  [31m|[0m  [36m|[0m  [31m|[0m  [36m|[0m  [32m|[0m  [36m|[0m  [34m|[0m  [31m|[0m  [35m|[0m  [31m|[0m  [37m|[0m  [33m|[0m  [31m|[0m  [32m|[0m  [33m|[0m  [32m|[0m  [32m|[0m  [34m|[0m  [33m|[0m  [37m|[0m  [31m|[0m  [35m|[0m  [32m|[0m  [36m|[0m              [34m|[0m  [33m\[33m-[33m-[37m|[33m-[33m-[36m|[33m-[33m-[33m-[33m-[33m-[36m|[33m-[33m-[31m|[33m-[33m-[35m|[33m-[33m-[36m|[33m-[33m-[36m|[33m-[33m-[32m|[33m-[33m-[0m 0f 85 9b fe ff ff    	[33mjne    [0m[35m402d5f[0m <[32m_Z13calc_speed_upv[0m[35m+0x[0m[35m6af[0m>
  402ec4:	[37m|[0m  [36m|[0m  [31m|[0m  [36m|[0m  [31m|[0m  [36m|[0m  [32m|[0m  [36m|[0m  [34m|[0m  [31m|[0m  [35m|[0m  [31m|[0m  [37m|[0m  [33m|[0m  [31m|[0m  [32m|[0m  [33m|[0m  [32m|[0m  [32m|[0m  [34m|[0m  [33m|[0m  [37m|[0m  [31m|[0m  [35m|[0m  [32m|[0m  [36m|[0m              [34m|[0m     [37m|[0m  [36m|[0m     [36m|[0m  [31m|[0m  [35m|[0m  [36m|[0m  [36m|[0m  [32m\--[0m e9 fa fe ff ff       	[33mjmp    [0m[35m402dc3[0m <[32m_Z13calc_speed_upv[0m[35m+0x[0m[35m713[0m>
  402ec9:	[37m|[0m  [36m|[0m  [31m|[0m  [36m|[0m  [31m|[0m  [36m|[0m  [32m|[0m  [36m|[0m  [34m|[0m  [31m|[0m  [35m|[0m  [31m|[0m  [37m|[0m  [33m|[0m  [31m|[0m  [32m|[0m  [33m|[0m  [32m|[0m  [32m|[0m  [34m|[0m  [33m|[0m  [37m|[0m  [31m|[0m  [35m|[0m  [32m|[0m  [36m|[0m              [34m|[0m     [37m|[0m  [36m|[0m     [36m|[0m  [31m|[0m  [35m|[0m  [36m|[0m  [36m|[0m      0f 1f 80 00 00 00 00 	[33mnop    [0mDWORD PTR [[34mrax[0m+[35m0x0[0m]
  402ed0:	[37m|[0m  [36m|[0m  [31m|[0m  [36m|[0m  [31m|[0m  [36m|[0m  [32m|[0m  [36m|[0m  [34m|[0m  [31m|[0m  [35m|[0m  [31m|[0m  [37m|[0m  [33m|[0m  [31m|[0m  [32m|[0m  [33m|[0m  [32m|[0m  [32m|[0m  [34m|[0m  [33m|[0m  [37m|[0m  [31m|[0m  [35m|[0m  [32m|[0m  [36m|[0m              [34m|[0m     [37m|[0m  [36m|[0m     [36m|[0m  [31m\--[35m|[31m--[36m|[31m--[36m|[31m---->[0m 48 89 c2             	[33mmov    [0m[34mrdx[0m,[34mrax[0m
  402ed3:	[37m|[0m  [36m|[0m  [31m|[0m  [36m|[0m  [31m|[0m  [36m|[0m  [32m|[0m  [36m|[0m  [34m|[0m  [31m|[0m  [35m|[0m  [31m|[0m  [37m|[0m  [33m|[0m  [31m|[0m  [32m|[0m  [33m|[0m  [32m|[0m  [32m|[0m  [34m|[0m  [33m|[0m  [37m|[0m  [31m|[0m  [35m|[0m  [32m|[0m  [36m|[0m              [34m|[0m     [37m|[0m  [36m|[0m     [36m|[0m     [35m|[0m  [36m|[0m  [36m|[0m      83 e0 01             	[33mand    [0m[34meax[0m,[35m0x1[0m
  402ed6:	[37m|[0m  [36m|[0m  [31m|[0m  [36m|[0m  [31m|[0m  [36m|[0m  [32m|[0m  [36m|[0m  [34m|[0m  [31m|[0m  [35m|[0m  [31m|[0m  [37m|[0m  [33m|[0m  [31m|[0m  [32m|[0m  [33m|[0m  [32m|[0m  [32m|[0m  [34m|[0m  [33m|[0m  [37m|[0m  [31m|[0m  [35m|[0m  [32m|[0m  [36m|[0m              [34m|[0m     [37m|[0m  [36m|[0m     [36m|[0m     [35m|[0m  [36m|[0m  [36m|[0m      c5 c9 57 f6          	[33mvxorpd [0m[34mxmm6[0m,[34mxmm6[0m,[34mxmm6[0m
  402eda:	[37m|[0m  [36m|[0m  [31m|[0m  [36m|[0m  [31m|[0m  [36m|[0m  [32m|[0m  [36m|[0m  [34m|[0m  [31m|[0m  [35m|[0m  [31m|[0m  [37m|[0m  [33m|[0m  [31m|[0m  [32m|[0m  [33m|[0m  [32m|[0m  [32m|[0m  [34m|[0m  [33m|[0m  [37m|[0m  [31m|[0m  [35m|[0m  [32m|[0m  [36m|[0m              [34m|[0m     [37m|[0m  [36m|[0m     [36m|[0m     [35m|[0m  [36m|[0m  [36m|[0m      48 d1 ea             	[33mshr    [0m[34mrdx[0m,1
  402edd:	[37m|[0m  [36m|[0m  [31m|[0m  [36m|[0m  [31m|[0m  [36m|[0m  [32m|[0m  [36m|[0m  [34m|[0m  [31m|[0m  [35m|[0m  [31m|[0m  [37m|[0m  [33m|[0m  [31m|[0m  [32m|[0m  [33m|[0m  [32m|[0m  [32m|[0m  [34m|[0m  [33m|[0m  [37m|[0m  [31m|[0m  [35m|[0m  [32m|[0m  [36m|[0m              [34m|[0m     [37m|[0m  [36m|[0m     [36m|[0m     [35m|[0m  [36m|[0m  [36m|[0m      48 09 c2             	[33mor     [0m[34mrdx[0m,[34mrax[0m
  402ee0:	[37m|[0m  [36m|[0m  [31m|[0m  [36m|[0m  [31m|[0m  [36m|[0m  [32m|[0m  [36m|[0m  [34m|[0m  [31m|[0m  [35m|[0m  [31m|[0m  [37m|[0m  [33m|[0m  [31m|[0m  [32m|[0m  [33m|[0m  [32m|[0m  [32m|[0m  [34m|[0m  [33m|[0m  [37m|[0m  [31m|[0m  [35m|[0m  [32m|[0m  [36m|[0m              [34m|[0m     [37m|[0m  [36m|[0m     [36m|[0m     [35m|[0m  [36m|[0m  [36m|[0m      49 8b 46 f8          	[33mmov    [0m[34mrax[0m,QWORD PTR [[34mr14[0m[35m-[0m[35m0x8[0m]
  402ee4:	[37m|[0m  [36m|[0m  [31m|[0m  [36m|[0m  [31m|[0m  [36m|[0m  [32m|[0m  [36m|[0m  [34m|[0m  [31m|[0m  [35m|[0m  [31m|[0m  [37m|[0m  [33m|[0m  [31m|[0m  [32m|[0m  [33m|[0m  [32m|[0m  [32m|[0m  [34m|[0m  [33m|[0m  [37m|[0m  [31m|[0m  [35m|[0m  [32m|[0m  [36m|[0m              [34m|[0m     [37m|[0m  [36m|[0m     [36m|[0m     [35m|[0m  [36m|[0m  [36m|[0m      c4 e1 cb 2a c2       	[33mvcvtsi2sd [0m[34mxmm0[0m,[34mxmm6[0m,[34mrdx[0m
  402ee9:	[37m|[0m  [36m|[0m  [31m|[0m  [36m|[0m  [31m|[0m  [36m|[0m  [32m|[0m  [36m|[0m  [34m|[0m  [31m|[0m  [35m|[0m  [31m|[0m  [37m|[0m  [33m|[0m  [31m|[0m  [32m|[0m  [33m|[0m  [32m|[0m  [32m|[0m  [34m|[0m  [33m|[0m  [37m|[0m  [31m|[0m  [35m|[0m  [32m|[0m  [36m|[0m              [34m|[0m     [37m|[0m  [36m|[0m     [36m|[0m     [35m|[0m  [36m|[0m  [36m|[0m      c5 fb 58 c0          	[33mvaddsd [0m[34mxmm0[0m,[34mxmm0[0m,[34mxmm0[0m
  402eed:	[37m|[0m  [36m|[0m  [31m|[0m  [36m|[0m  [31m|[0m  [36m|[0m  [32m|[0m  [36m|[0m  [34m|[0m  [31m|[0m  [35m|[0m  [31m|[0m  [37m|[0m  [33m|[0m  [31m|[0m  [32m|[0m  [33m|[0m  [32m|[0m  [32m|[0m  [34m|[0m  [33m|[0m  [37m|[0m  [31m|[0m  [35m|[0m  [32m|[0m  [36m|[0m              [34m|[0m     [37m|[0m  [36m|[0m     [36m|[0m     [35m|[0m  [36m|[0m  [36m|[0m      48 85 c0             	[33mtest   [0m[34mrax[0m,[34mrax[0m
  402ef0:	[37m|[0m  [36m|[0m  [31m|[0m  [36m|[0m  [31m|[0m  [36m|[0m  [32m|[0m  [36m|[0m  [34m|[0m  [31m|[0m  [35m|[0m  [31m|[0m  [37m|[0m  [33m|[0m  [31m|[0m  [32m|[0m  [33m|[0m  [32m|[0m  [32m|[0m  [34m|[0m  [33m|[0m  [37m|[0m  [31m|[0m  [35m|[0m  [32m|[0m  [36m|[0m              [34m|[0m     [37m|[0m  [36m|[0m     [36m\[36m-[36m-[36m-[36m-[36m-[35m|[36m-[36m-[36m|[36m-[36m-[36m|[36m-[36m-[36m-[36m-[36m-[0m 0f 89 b6 fe ff ff    	[33mjns    [0m[35m402dac[0m <[32m_Z13calc_speed_upv[0m[35m+0x[0m[35m6fc[0m>
  402ef6:	[37m|[0m  [36m|[0m  [31m|[0m  [36m|[0m  [31m|[0m  [36m|[0m  [32m|[0m  [36m|[0m  [34m|[0m  [31m|[0m  [35m|[0m  [31m|[0m  [37m|[0m  [33m|[0m  [31m|[0m  [32m|[0m  [33m|[0m  [32m|[0m  [32m|[0m  [34m|[0m  [33m|[0m  [37m|[0m  [31m|[0m  [35m|[0m  [32m|[0m  [36m|[0m              [34m|[0m     [37m|[0m  [36m\-----------[35m|[36m--[36m|[36m--[36m|[36m---->[0m 48 89 c2             	[33mmov    [0m[34mrdx[0m,[34mrax[0m
  402ef9:	[37m|[0m  [36m|[0m  [31m|[0m  [36m|[0m  [31m|[0m  [36m|[0m  [32m|[0m  [36m|[0m  [34m|[0m  [31m|[0m  [35m|[0m  [31m|[0m  [37m|[0m  [33m|[0m  [31m|[0m  [32m|[0m  [33m|[0m  [32m|[0m  [32m|[0m  [34m|[0m  [33m|[0m  [37m|[0m  [31m|[0m  [35m|[0m  [32m|[0m  [36m|[0m              [34m|[0m     [37m|[0m              [35m|[0m  [36m|[0m  [36m|[0m      83 e0 01             	[33mand    [0m[34meax[0m,[35m0x1[0m
  402efc:	[37m|[0m  [36m|[0m  [31m|[0m  [36m|[0m  [31m|[0m  [36m|[0m  [32m|[0m  [36m|[0m  [34m|[0m  [31m|[0m  [35m|[0m  [31m|[0m  [37m|[0m  [33m|[0m  [31m|[0m  [32m|[0m  [33m|[0m  [32m|[0m  [32m|[0m  [34m|[0m  [33m|[0m  [37m|[0m  [31m|[0m  [35m|[0m  [32m|[0m  [36m|[0m              [34m|[0m     [37m|[0m              [35m|[0m  [36m|[0m  [36m|[0m      c5 c1 57 ff          	[33mvxorpd [0m[34mxmm7[0m,[34mxmm7[0m,[34mxmm7[0m
  402f00:	[37m|[0m  [36m|[0m  [31m|[0m  [36m|[0m  [31m|[0m  [36m|[0m  [32m|[0m  [36m|[0m  [34m|[0m  [31m|[0m  [35m|[0m  [31m|[0m  [37m|[0m  [33m|[0m  [31m|[0m  [32m|[0m  [33m|[0m  [32m|[0m  [32m|[0m  [34m|[0m  [33m|[0m  [37m|[0m  [31m|[0m  [35m|[0m  [32m|[0m  [36m|[0m              [34m|[0m     [37m|[0m              [35m|[0m  [36m|[0m  [36m|[0m      48 d1 ea             	[33mshr    [0m[34mrdx[0m,1
  402f03:	[37m|[0m  [36m|[0m  [31m|[0m  [36m|[0m  [31m|[0m  [36m|[0m  [32m|[0m  [36m|[0m  [34m|[0m  [31m|[0m  [35m|[0m  [31m|[0m  [37m|[0m  [33m|[0m  [31m|[0m  [32m|[0m  [33m|[0m  [32m|[0m  [32m|[0m  [34m|[0m  [33m|[0m  [37m|[0m  [31m|[0m  [35m|[0m  [32m|[0m  [36m|[0m              [34m|[0m     [37m|[0m              [35m|[0m  [36m|[0m  [36m|[0m      48 09 c2             	[33mor     [0m[34mrdx[0m,[34mrax[0m
  402f06:	[37m|[0m  [36m|[0m  [31m|[0m  [36m|[0m  [31m|[0m  [36m|[0m  [32m|[0m  [36m|[0m  [34m|[0m  [31m|[0m  [35m|[0m  [31m|[0m  [37m|[0m  [33m|[0m  [31m|[0m  [32m|[0m  [33m|[0m  [32m|[0m  [32m|[0m  [34m|[0m  [33m|[0m  [37m|[0m  [31m|[0m  [35m|[0m  [32m|[0m  [36m|[0m              [34m|[0m     [37m|[0m              [35m|[0m  [36m|[0m  [36m|[0m      c4 e1 c3 2a ca       	[33mvcvtsi2sd [0m[34mxmm1[0m,[34mxmm7[0m,[34mrdx[0m
  402f0b:	[37m|[0m  [36m|[0m  [31m|[0m  [36m|[0m  [31m|[0m  [36m|[0m  [32m|[0m  [36m|[0m  [34m|[0m  [31m|[0m  [35m|[0m  [31m|[0m  [37m|[0m  [33m|[0m  [31m|[0m  [32m|[0m  [33m|[0m  [32m|[0m  [32m|[0m  [34m|[0m  [33m|[0m  [37m|[0m  [31m|[0m  [35m|[0m  [32m|[0m  [36m|[0m              [34m|[0m     [37m|[0m              [35m|[0m  [36m|[0m  [36m|[0m      c5 f3 58 c9          	[33mvaddsd [0m[34mxmm1[0m,[34mxmm1[0m,[34mxmm1[0m
  402f0f:	[37m|[0m  [36m|[0m  [31m|[0m  [36m|[0m  [31m|[0m  [36m|[0m  [32m|[0m  [36m|[0m  [34m|[0m  [31m|[0m  [35m|[0m  [31m|[0m  [37m|[0m  [33m|[0m  [31m|[0m  [32m|[0m  [33m|[0m  [32m|[0m  [32m|[0m  [34m|[0m  [33m|[0m  [37m|[0m  [31m|[0m  [35m|[0m  [32m|[0m  [36m|[0m              [34m|[0m     [37m\--------------[35m|[37m--[36m|[37m--[36m|[37m-----[0m e9 a1 fe ff ff       	[33mjmp    [0m[35m402db5[0m <[32m_Z13calc_speed_upv[0m[35m+0x[0m[35m705[0m>
  402f14:	[37m|[0m  [36m|[0m  [31m|[0m  [36m|[0m  [31m|[0m  [36m|[0m  [32m|[0m  [36m|[0m  [34m|[0m  [31m|[0m  [35m|[0m  [31m|[0m  [37m|[0m  [33m|[0m  [31m|[0m  [32m|[0m  [33m|[0m  [32m|[0m  [32m|[0m  [34m|[0m  [33m|[0m  [37m|[0m  [31m|[0m  [35m|[0m  [32m|[0m  [36m|[0m              [34m|[0m                    [35m|[0m  [36m|[0m  [36m|[0m      66 66 2e 0f 1f 84 00 	[33mdata16 [0m[33mcs [0m[33mnop [0mWORD PTR [[34mrax[0m+[34mrax[0m*[35m1[0m+[35m0x0[0m]
  402f1b:	[37m|[0m  [36m|[0m  [31m|[0m  [36m|[0m  [31m|[0m  [36m|[0m  [32m|[0m  [36m|[0m  [34m|[0m  [31m|[0m  [35m|[0m  [31m|[0m  [37m|[0m  [33m|[0m  [31m|[0m  [32m|[0m  [33m|[0m  [32m|[0m  [32m|[0m  [34m|[0m  [33m|[0m  [37m|[0m  [31m|[0m  [35m|[0m  [32m|[0m  [36m|[0m              [34m|[0m                    [35m|[0m  [36m|[0m  [36m|[0m      00 00 00 00 
  402f1f:	[37m|[0m  [36m|[0m  [31m|[0m  [36m|[0m  [31m|[0m  [36m|[0m  [32m|[0m  [36m|[0m  [34m|[0m  [31m|[0m  [35m|[0m  [31m|[0m  [37m|[0m  [33m|[0m  [31m|[0m  [32m|[0m  [33m|[0m  [32m|[0m  [32m|[0m  [34m|[0m  [33m|[0m  [37m|[0m  [31m|[0m  [35m|[0m  [32m|[0m  [36m|[0m              [34m|[0m                    [35m|[0m  [36m|[0m  [36m|[0m      90                   	[33mnop[0m
  402f20:	[37m|[0m  [36m|[0m  [31m|[0m  [36m|[0m  [31m|[0m  [36m|[0m  [32m|[0m  [36m|[0m  [34m|[0m  [31m|[0m  [35m|[0m  [31m|[0m  [37m|[0m  [33m|[0m  [31m|[0m  [32m|[0m  [33m|[0m  [32m|[0m  [32m|[0m  [34m|[0m  [33m|[0m  [37m|[0m  [31m|[0m  [35m|[0m  [32m|[0m  [36m|[0m              [34m|[0m                    [35m|[0m  [36m\[36m-[36m-[36m|[36m-[36m-[36m-[36m-[36m>[0m 48 83 c3 30          	[33madd    [0m[34mrbx[0m,[35m0x30[0m
  402f24:	[37m|[0m  [36m|[0m  [31m|[0m  [36m|[0m  [31m|[0m  [36m|[0m  [32m|[0m  [36m|[0m  [34m|[0m  [31m|[0m  [35m|[0m  [31m|[0m  [37m|[0m  [33m|[0m  [31m|[0m  [32m|[0m  [33m|[0m  [32m|[0m  [32m|[0m  [34m|[0m  [33m|[0m  [37m|[0m  [31m|[0m  [35m|[0m  [32m|[0m  [36m|[0m              [34m|[0m                    [35m|[0m     [36m|[0m      48 39 1c 24          	[33mcmp    [0mQWORD PTR [[34mrsp[0m],[34mrbx[0m
  402f28:	[37m|[0m  [36m|[0m  [31m|[0m  [36m|[0m  [31m|[0m  [36m|[0m  [32m|[0m  [36m|[0m  [34m|[0m  [31m|[0m  [35m|[0m  [31m|[0m  [37m|[0m  [33m|[0m  [31m|[0m  [32m|[0m  [33m|[0m  [32m|[0m  [32m|[0m  [34m|[0m  [33m|[0m  [37m|[0m  [31m|[0m  [35m|[0m  [32m|[0m  [36m|[0m              [34m|[0m                    [35m\[35m-[35m-[35m-[35m-[35m-[36m|[35m-[35m-[35m-[35m-[35m-[0m 0f 85 c2 fe ff ff    	[33mjne    [0m[35m402df0[0m <[32m_Z13calc_speed_upv[0m[35m+0x[0m[35m740[0m>
  402f2e:	[37m|[0m  [36m|[0m  [31m|[0m  [36m|[0m  [31m|[0m  [36m|[0m  [32m|[0m  [36m|[0m  [34m|[0m  [31m|[0m  [35m|[0m  [31m|[0m  [37m|[0m  [33m|[0m  [31m|[0m  [32m|[0m  [33m|[0m  [32m|[0m  [32m|[0m  [34m|[0m  [33m|[0m  [37m|[0m  [31m|[0m  [35m|[0m  [32m|[0m  [36m|[0m              [34m|[0m                          [36m\-----[0m e9 e5 fe ff ff       	[33mjmp    [0m[35m402e18[0m <[32m_Z13calc_speed_upv[0m[35m+0x[0m[35m768[0m>
  402f33:	[37m|[0m  [36m|[0m  [31m|[0m  [36m|[0m  [31m|[0m  [36m|[0m  [32m|[0m  [36m|[0m  [34m|[0m  [31m|[0m  [35m|[0m  [31m|[0m  [37m|[0m  [33m|[0m  [31m|[0m  [32m|[0m  [33m|[0m  [32m|[0m  [32m|[0m  [34m|[0m  [33m|[0m  [37m|[0m  [31m|[0m  [35m\[35m-[35m-[32m|[35m-[35m-[36m|[35m-[35m-[35m-[35m-[35m-[35m-[35m-[35m-[35m-[35m-[35m-[35m-[35m-[35m-[34m|[35m-[35m-[35m-[35m-[35m-[35m-[35m-[35m-[35m-[35m-[35m-[35m-[35m-[35m-[35m-[35m-[35m-[35m-[35m-[35m-[35m-[35m-[35m-[35m-[35m-[35m-[35m-[35m-[35m-[35m-[35m-[35m>[0m 48 39 dd             	[33mcmp    [0m[34mrbp[0m,[34mrbx[0m
  402f36:	[37m|[0m  [36m|[0m  [31m|[0m  [36m|[0m  [31m|[0m  [36m|[0m  [32m|[0m  [36m|[0m  [34m|[0m  [31m|[0m  [35m|[0m  [31m|[0m  [37m|[0m  [33m|[0m  [31m|[0m  [32m|[0m  [33m|[0m  [32m|[0m  [32m|[0m  [34m|[0m  [33m|[0m  [37m|[0m  [31m\[31m-[31m-[31m-[31m-[31m-[32m|[31m-[31m-[36m|[31m-[31m-[31m-[31m-[31m-[31m-[31m-[31m-[31m-[31m-[31m-[31m-[31m-[31m-[34m|[31m-[31m-[31m-[31m-[31m-[31m-[31m-[31m-[31m-[31m-[31m-[31m-[31m-[31m-[31m-[31m-[31m-[31m-[31m-[31m-[31m-[31m-[31m-[31m-[31m-[31m-[31m-[31m-[31m-[31m-[31m-[31m-[0m 0f 85 ff fb ff ff    	[33mjne    [0m[35m402b3b[0m <[32m_Z13calc_speed_upv[0m[35m+0x[0m[35m48b[0m>
  402f3c:	[37m|[0m  [36m|[0m  [31m|[0m  [36m|[0m  [31m|[0m  [36m|[0m  [32m|[0m  [36m|[0m  [34m|[0m  [31m|[0m  [35m|[0m  [31m|[0m  [37m|[0m  [33m|[0m  [31m|[0m  [32m|[0m  [33m|[0m  [32m|[0m  [32m|[0m  [34m|[0m  [33m|[0m  [37m|[0m        [32m\[32m-[32m-[36m|[32m-[32m-[32m-[32m-[32m-[32m-[32m-[32m-[32m-[32m-[32m-[32m-[32m-[32m-[34m|[32m-[32m-[32m-[32m-[32m-[32m-[32m-[32m-[32m-[32m-[32m-[32m-[32m-[32m-[32m-[32m-[32m-[32m-[32m-[32m-[32m-[32m-[32m-[32m-[32m-[32m-[32m-[32m-[32m-[32m-[32m-[32m-[0m e9 21 fc ff ff       	[33mjmp    [0m[35m402b62[0m <[32m_Z13calc_speed_upv[0m[35m+0x[0m[35m4b2[0m>
  402f41:	[37m|[0m  [36m|[0m  [31m|[0m  [36m|[0m  [31m|[0m  [36m|[0m  [32m|[0m  [36m|[0m  [34m|[0m  [31m|[0m  [35m|[0m  [31m|[0m  [37m|[0m  [33m|[0m  [31m|[0m  [32m\[32m-[32m-[33m|[32m-[32m-[32m|[32m-[32m-[32m|[32m-[32m-[34m|[32m-[32m-[33m|[32m-[32m-[37m|[32m-[32m-[32m-[32m-[32m-[32m-[32m-[32m-[32m-[32m-[32m-[36m|[32m-[32m-[32m-[32m-[32m-[32m-[32m-[32m-[32m-[32m-[32m-[32m-[32m-[32m-[34m|[32m-[32m-[32m-[32m-[32m-[32m-[32m-[32m-[32m-[32m-[32m-[32m-[32m-[32m-[32m-[32m-[32m-[32m-[32m-[32m-[32m-[32m-[32m-[32m-[32m-[32m-[32m-[32m-[32m-[32m-[32m-[32m>[0m 41 0f b6 17          	[33mmovzx  [0m[34medx[0m,BYTE PTR [[34mr15[0m]
  402f45:	[37m|[0m  [36m|[0m  [31m|[0m  [36m|[0m  [31m|[0m  [36m|[0m  [32m|[0m  [36m|[0m  [34m|[0m  [31m|[0m  [35m|[0m  [31m|[0m  [37m|[0m  [33m|[0m  [31m|[0m     [33m|[0m  [32m|[0m  [32m|[0m  [34m|[0m  [33m|[0m  [37m|[0m           [36m|[0m              [34m|[0m                                 88 94 24 68 01 00 00 	[33mmov    [0mBYTE PTR [[34mrsp[0m+[35m0x168[0m],[34mdl[0m
  402f4c:	[37m|[0m  [36m|[0m  [31m|[0m  [36m|[0m  [31m|[0m  [36m|[0m  [32m|[0m  [36m|[0m  [34m|[0m  [31m+[31m-[31m-[35m|[31m-[31m-[31m|[31m-[31m-[37m|[31m-[31m-[33m|[31m-[31m-[31m|[31m-[31m-[31m-[31m-[31m-[33m|[31m-[31m-[32m|[31m-[31m-[32m|[31m-[31m-[34m|[31m-[31m-[33m|[31m-[31m-[37m|[31m-[31m-[31m-[31m-[31m-[31m-[31m-[31m-[31m-[31m-[31m-[36m|[31m-[31m-[31m-[31m-[31m-[31m-[31m-[31m-[31m-[31m-[31m-[31m-[31m-[31m-[34m|[31m-[31m-[31m-[31m-[31m-[31m-[31m-[31m-[31m-[31m-[31m-[31m-[31m-[31m-[31m-[31m-[31m-[31m-[31m-[31m-[31m-[31m-[31m-[31m-[31m-[31m-[31m-[31m-[31m-[31m-[31m-[31m-[0m e9 15 fa ff ff       	[33mjmp    [0m[35m402966[0m <[32m_Z13calc_speed_upv[0m[35m+0x[0m[35m2b6[0m>
  402f51:	[37m|[0m  [36m|[0m  [31m|[0m  [36m|[0m  [31m|[0m  [36m|[0m  [32m|[0m  [36m|[0m  [34m|[0m  [31m|[0m  [35m|[0m  [31m|[0m  [37m|[0m  [33m\--[31m|[33m-----[33m|[33m--[32m|[33m--[32m|[33m--[34m|[33m--[33m|[33m--[37m|[33m-----------[36m|[33m--------------[34m|[33m------------------------------->[0m 31 d2                	[33mxor    [0m[34medx[0m,[34medx[0m
  402f53:	[37m|[0m  [36m|[0m  [31m|[0m  [36m|[0m  [31m|[0m  [36m|[0m  [32m|[0m  [36m|[0m  [34m|[0m  [31m|[0m  [35m|[0m  [31m|[0m  [37m|[0m     [31m|[0m     [33m|[0m  [32m|[0m  [32m|[0m  [34m|[0m  [33m|[0m  [37m|[0m           [36m|[0m              [34m|[0m                                 48 8d 74 24 30       	[33mlea    [0m[34mrsi[0m,[[34mrsp[0m+[35m0x30[0m]
  402f58:	[37m|[0m  [36m|[0m  [31m|[0m  [36m|[0m  [31m|[0m  [36m|[0m  [32m|[0m  [36m|[0m  [34m|[0m  [31m|[0m  [35m|[0m  [31m|[0m  [37m|[0m     [31m|[0m     [33m|[0m  [32m|[0m  [32m|[0m  [34m|[0m  [33m|[0m  [37m|[0m           [36m|[0m              [34m|[0m                                 48 8d bc 24 58 01 00 	[33mlea    [0m[34mrdi[0m,[[34mrsp[0m+[35m0x158[0m]
  402f5f:	[37m|[0m  [36m|[0m  [31m|[0m  [36m|[0m  [31m|[0m  [36m|[0m  [32m|[0m  [36m|[0m  [34m|[0m  [31m|[0m  [35m|[0m  [31m|[0m  [37m|[0m     [31m|[0m     [33m|[0m  [32m|[0m  [32m|[0m  [34m|[0m  [33m|[0m  [37m|[0m           [36m|[0m              [34m|[0m                                 00 
  402f60:	[37m|[0m  [36m|[0m  [31m|[0m  [36m|[0m  [31m|[0m  [36m|[0m  [32m|[0m  [36m|[0m  [34m|[0m  [31m|[0m  [35m|[0m  [31m|[0m  [37m|[0m     [31m|[0m     [33m|[0m  [32m|[0m  [32m|[0m  [34m|[0m  [33m|[0m  [37m|[0m           [36m|[0m              [34m|[0m                                 e8 5b f2 ff ff       	[33mcall   [0m[35m4021c0[0m <[32m_ZNSt7__cxx1112basic_stringIcSt11char_traitsIcESaIcEE9_M_createERmm@plt[0m>
  402f65:	[37m|[0m  [36m|[0m  [31m|[0m  [36m|[0m  [31m|[0m  [36m|[0m  [32m|[0m  [36m|[0m  [34m|[0m  [31m|[0m  [35m|[0m  [31m|[0m  [37m|[0m     [31m|[0m     [33m|[0m  [32m|[0m  [32m|[0m  [34m|[0m  [33m|[0m  [37m|[0m           [36m|[0m              [34m|[0m                                 48 89 c7             	[33mmov    [0m[34mrdi[0m,[34mrax[0m
  402f68:	[37m|[0m  [36m|[0m  [31m|[0m  [36m|[0m  [31m|[0m  [36m|[0m  [32m|[0m  [36m|[0m  [34m|[0m  [31m|[0m  [35m|[0m  [31m|[0m  [37m|[0m     [31m|[0m     [33m|[0m  [32m|[0m  [32m|[0m  [34m|[0m  [33m|[0m  [37m|[0m           [36m|[0m              [34m|[0m                                 48 89 84 24 58 01 00 	[33mmov    [0mQWORD PTR [[34mrsp[0m+[35m0x158[0m],[34mrax[0m
  402f6f:	[37m|[0m  [36m|[0m  [31m|[0m  [36m|[0m  [31m|[0m  [36m|[0m  [32m|[0m  [36m|[0m  [34m|[0m  [31m|[0m  [35m|[0m  [31m|[0m  [37m|[0m     [31m|[0m     [33m|[0m  [32m|[0m  [32m|[0m  [34m|[0m  [33m|[0m  [37m|[0m           [36m|[0m              [34m|[0m                                 00 
  402f70:	[37m|[0m  [36m|[0m  [31m|[0m  [36m|[0m  [31m|[0m  [36m|[0m  [32m|[0m  [36m|[0m  [34m|[0m  [31m|[0m  [35m|[0m  [31m|[0m  [37m|[0m     [31m|[0m     [33m|[0m  [32m|[0m  [32m|[0m  [34m|[0m  [33m|[0m  [37m|[0m           [36m|[0m              [34m|[0m                                 48 8b 44 24 30       	[33mmov    [0m[34mrax[0m,QWORD PTR [[34mrsp[0m+[35m0x30[0m]
  402f75:	[37m|[0m  [36m|[0m  [31m|[0m  [36m|[0m  [31m|[0m  [36m|[0m  [32m|[0m  [36m|[0m  [34m|[0m  [31m|[0m  [35m|[0m  [31m|[0m  [37m|[0m     [31m|[0m     [33m|[0m  [32m|[0m  [32m|[0m  [34m|[0m  [33m|[0m  [37m|[0m           [36m|[0m              [34m|[0m                                 48 89 84 24 68 01 00 	[33mmov    [0mQWORD PTR [[34mrsp[0m+[35m0x168[0m],[34mrax[0m
  402f7c:	[37m|[0m  [36m|[0m  [31m|[0m  [36m|[0m  [31m|[0m  [36m|[0m  [32m|[0m  [36m|[0m  [34m|[0m  [31m|[0m  [35m|[0m  [31m|[0m  [37m|[0m     [31m|[0m     [33m|[0m  [32m|[0m  [32m|[0m  [34m|[0m  [33m|[0m  [37m|[0m           [36m|[0m              [34m|[0m                                 00 
  402f7d:	[37m|[0m  [36m|[0m  [31m|[0m  [36m|[0m  [31m|[0m  [36m|[0m  [32m|[0m  [36m|[0m  [34m|[0m  [31m|[0m  [35m|[0m  [31m|[0m  [37m|[0m     [31m|[0m     [33m|[0m  [32m|[0m  [32m|[0m  [34m|[0m  [33m|[0m  [37m|[0m           [36m|[0m              [34m|[0m                             [33m/->[0m 48 89 da             	[33mmov    [0m[34mrdx[0m,[34mrbx[0m
  402f80:	[37m|[0m  [36m|[0m  [31m|[0m  [36m|[0m  [31m|[0m  [36m|[0m  [32m|[0m  [36m|[0m  [34m|[0m  [31m|[0m  [35m|[0m  [31m|[0m  [37m|[0m     [31m|[0m     [33m|[0m  [32m|[0m  [32m|[0m  [34m|[0m  [33m|[0m  [37m|[0m           [36m|[0m              [34m|[0m                             [33m|[0m   4c 89 fe             	[33mmov    [0m[34mrsi[0m,[34mr15[0m
  402f83:	[37m|[0m  [36m|[0m  [31m|[0m  [36m|[0m  [31m|[0m  [36m|[0m  [32m|[0m  [36m|[0m  [34m|[0m  [31m|[0m  [35m|[0m  [31m|[0m  [37m|[0m     [31m|[0m     [33m|[0m  [32m|[0m  [32m|[0m  [34m|[0m  [33m|[0m  [37m|[0m           [36m|[0m              [34m|[0m                             [33m|[0m   e8 08 f1 ff ff       	[33mcall   [0m[35m402090[0m <[32mmemcpy@plt[0m>
  402f88:	[37m|[0m  [36m|[0m  [31m|[0m  [36m|[0m  [31m|[0m  [36m|[0m  [32m|[0m  [36m|[0m  [34m|[0m  [31m|[0m  [35m|[0m  [31m|[0m  [37m|[0m     [31m|[0m     [33m|[0m  [32m|[0m  [32m|[0m  [34m|[0m  [33m|[0m  [37m|[0m           [36m|[0m              [34m|[0m                             [33m|[0m   48 8b 5c 24 30       	[33mmov    [0m[34mrbx[0m,QWORD PTR [[34mrsp[0m+[35m0x30[0m]
  402f8d:	[37m|[0m  [36m|[0m  [31m|[0m  [36m|[0m  [31m|[0m  [36m|[0m  [32m|[0m  [36m|[0m  [34m|[0m  [31m|[0m  [35m|[0m  [31m|[0m  [37m|[0m     [31m|[0m     [33m|[0m  [32m|[0m  [32m|[0m  [34m|[0m  [33m|[0m  [37m|[0m           [36m|[0m              [34m|[0m                             [33m|[0m   48 8b 84 24 58 01 00 	[33mmov    [0m[34mrax[0m,QWORD PTR [[34mrsp[0m+[35m0x158[0m]
