	.file	"dgemm_avx256.cpp"
	.intel_syntax noprefix
# GNU C++17 (GCC) version 13.1.1 20230429 (x86_64-pc-linux-gnu)
#	compiled by GNU C version 13.1.1 20230429, GMP version 6.2.1, MPFR version 4.2.0, MPC version 1.3.1, isl version isl-0.26-GMP

# warning: MPFR header version 4.2.0 differs from library version 4.2.0-p9.
# GGC heuristics: --param ggc-min-expand=100 --param ggc-min-heapsize=131072
# options passed: -march=znver2 -mmmx -mpopcnt -msse -msse2 -msse3 -mssse3 -msse4.1 -msse4.2 -mavx -mavx2 -msse4a -mno-fma4 -mno-xop -mfma -mno-avx512f -mbmi -mbmi2 -maes -mpclmul -mno-avx512vl -mno-avx512bw -mno-avx512dq -mno-avx512cd -mno-avx512er -mno-avx512pf -mno-avx512vbmi -mno-avx512ifma -mno-avx5124vnniw -mno-avx5124fmaps -mno-avx512vpopcntdq -mno-avx512vbmi2 -mno-gfni -mno-vpclmulqdq -mno-avx512vnni -mno-avx512bitalg -mno-avx512bf16 -mno-avx512vp2intersect -mno-3dnow -madx -mabm -mno-cldemote -mclflushopt -mclwb -mclzero -mcx16 -mno-enqcmd -mf16c -mfsgsbase -mfxsr -mno-hle -msahf -mno-lwp -mlzcnt -mmovbe -mno-movdir64b -mno-movdiri -mmwaitx -mno-pconfig -mno-pku -mno-prefetchwt1 -mprfchw -mno-ptwrite -mrdpid -mrdrnd -mrdseed -mno-rtm -mno-serialize -mno-sgx -msha -mno-shstk -mno-tbm -mno-tsxldtrk -mno-vaes -mno-waitpkg -mwbnoinvd -mxsave -mxsavec -mxsaveopt -mxsaves -mno-amx-tile -mno-amx-int8 -mno-amx-bf16 -mno-uintr -mno-hreset -mno-kl -mno-widekl -mno-avxvnni -mno-avx512fp16 -mno-avxifma -mno-avxvnniint8 -mno-avxneconvert -mno-cmpccxadd -mno-amx-fp16 -mno-prefetchi -mno-raoint -mno-amx-complex --param=l1-cache-size=32 --param=l1-cache-line-size=64 --param=l2-cache-size=512 -mtune=znver2 -masm=intel -g -O3
	.text
.Ltext0:
	.file 0 "/home/czg/matrix-matrix-multiply/asm" "../src/dgemm_avx256.cpp"
	.p2align 4
	.globl	_Z12dgemm_avx256jPKdS0_Pd
	.type	_Z12dgemm_avx256jPKdS0_Pd, @function
_Z12dgemm_avx256jPKdS0_Pd:
.LVL0:
.LFB6625:
	.file 1 "../src/dgemm_avx256.cpp"
	.loc 1 26 1 view -0
	.cfi_startproc
	.loc 1 28 5 view .LVU1
.LBB18:
	.loc 1 28 28 discriminator 1 view .LVU2
	test	edi, edi	# n
	je	.L17	#,
.LBE18:
# ../src/dgemm_avx256.cpp:26: {
	.loc 1 26 1 is_stmt 0 view .LVU3
	push	rbp	#
	.cfi_def_cfa_offset 16
	.cfi_offset 6, -16
	mov	r9, rsi	# A, tmp122
	mov	rbp, rsp	#,
	.cfi_def_cfa_register 6
	push	r15	#
	.cfi_offset 15, -24
	xor	r15d, r15d	# i
	push	r14	#
	.cfi_offset 14, -32
	mov	r14d, edi	# n, n
	push	r13	#
	.cfi_offset 13, -40
	mov	r13, rcx	# C, tmp124
	push	r12	#
	.cfi_offset 12, -48
	mov	r12, rdx	# B, tmp123
	push	rbx	#
	.cfi_offset 3, -56
.LVL1:
	.p2align 4
	.p2align 3
.L2:
.LBB42:
.LBB19:
	.loc 1 30 32 is_stmt 1 discriminator 1 view .LVU4
.LBB20:
# ../src/dgemm_avx256.cpp:32:             __m256d c0 = _mm256_load_pd(C + i + j * n); /* c0 = C[i][j] */
	.loc 1 32 47 is_stmt 0 view .LVU5
	mov	esi, r15d	# _60, i
	xor	r10d, r10d	# ivtmp.20
.LBE20:
# ../src/dgemm_avx256.cpp:30:         for( uint32_t j = 0; j < n; j++ ) 
	.loc 1 30 23 view .LVU6
	xor	ebx, ebx	# j
.LVL2:
	.p2align 4
	.p2align 3
.L5:
.LBB40:
	.loc 1 32 13 is_stmt 1 view .LVU7
# ../src/dgemm_avx256.cpp:32:             __m256d c0 = _mm256_load_pd(C + i + j * n); /* c0 = C[i][j] */
	.loc 1 32 47 is_stmt 0 view .LVU8
	mov	edx, r10d	# _3, ivtmp.20
.LBB21:
.LBB22:
# /usr/lib/gcc/x86_64-pc-linux-gnu/13.1.1/include/avxintrin.h:869:   return *(__m256d *)__P;
	.file 2 "/usr/lib/gcc/x86_64-pc-linux-gnu/13.1.1/include/avxintrin.h"
	.loc 2 869 22 view .LVU9
	xor	ecx, ecx	# ivtmp.15
.LBE22:
.LBE21:
# ../src/dgemm_avx256.cpp:32:             __m256d c0 = _mm256_load_pd(C + i + j * n); /* c0 = C[i][j] */
	.loc 1 32 47 view .LVU10
	lea	rax, [rdx+rsi]	# tmp111,
	lea	r11, 0[r13+rax*8]	# _6,
.LVL3:
.LBB24:
.LBI21:
	.loc 2 867 1 is_stmt 1 view .LVU11
.LBB23:
	.loc 2 869 3 view .LVU12
	lea	rax, [r12+rdx*8]	# ivtmp.14,
	add	rdx, r14	# tmp115, n
# /usr/lib/gcc/x86_64-pc-linux-gnu/13.1.1/include/avxintrin.h:869:   return *(__m256d *)__P;
	.loc 2 869 22 is_stmt 0 view .LVU13
	vmovapd	ymm0, YMMWORD PTR [r11]	# c0, MEM[(__m256d * {ref-all})_6]
.LVL4:
	.loc 2 869 22 view .LVU14
.LBE23:
.LBE24:
	.loc 1 33 13 is_stmt 1 view .LVU15
.LBB25:
	.loc 1 33 36 discriminator 1 view .LVU16
	lea	r8, [r12+rdx*8]	# _43,
.LVL5:
	.p2align 4
	.p2align 3
.L4:
	.loc 1 35 17 view .LVU17
.LBB26:
.LBI26:
	.loc 2 734 1 view .LVU18
.LBB27:
	.loc 2 736 3 view .LVU19
.LBE27:
.LBE26:
# ../src/dgemm_avx256.cpp:36:                         _mm256_mul_pd( _mm256_load_pd(A + i + k * n), _mm256_broadcast_sd(B + k + j * n) ) );
	.loc 1 36 61 is_stmt 0 view .LVU20
	mov	edx, ecx	# ivtmp.15, ivtmp.15
.LBB29:
.LBB28:
# /usr/lib/gcc/x86_64-pc-linux-gnu/13.1.1/include/avxintrin.h:736:   return (__m256d) __builtin_ia32_vbroadcastsd256 (__X);
	.loc 2 736 10 view .LVU21
	vbroadcastsd	ymm1, QWORD PTR [rax]	# tmp117,* ivtmp.14
.LVL6:
	.loc 2 736 10 view .LVU22
.LBE28:
.LBE29:
.LBB30:
.LBI30:
	.loc 2 867 1 is_stmt 1 view .LVU23
.LBB31:
	.loc 2 869 3 view .LVU24
	.loc 2 869 3 is_stmt 0 view .LVU25
.LBE31:
.LBE30:
.LBB32:
.LBI32:
	.loc 2 141 1 is_stmt 1 view .LVU26
.LBB33:
	.loc 2 143 3 view .LVU27
.LBE33:
.LBE32:
# ../src/dgemm_avx256.cpp:33:             for( uint32_t k = 0; k < n; k++ )
	.loc 1 33 36 is_stmt 0 discriminator 1 view .LVU28
	add	rax, 8	# ivtmp.14,
	add	ecx, edi	# ivtmp.15, n
.LVL7:
# ../src/dgemm_avx256.cpp:36:                         _mm256_mul_pd( _mm256_load_pd(A + i + k * n), _mm256_broadcast_sd(B + k + j * n) ) );
	.loc 1 36 61 view .LVU29
	add	rdx, rsi	# tmp119, _60
.LVL8:
.LBB35:
.LBB34:
# /usr/lib/gcc/x86_64-pc-linux-gnu/13.1.1/include/avxintrin.h:143:   return (__m256d) ((__v4df)__A + (__v4df)__B);
	.loc 2 143 46 view .LVU30
	vfmadd231pd	ymm0, ymm1, YMMWORD PTR [r9+rdx*8]	# c0, tmp117, MEM[(__m256d * {ref-all})_15]
.LVL9:
	.loc 2 143 46 view .LVU31
.LBE34:
.LBE35:
	.loc 1 33 13 is_stmt 1 discriminator 3 view .LVU32
	.loc 1 33 36 discriminator 1 view .LVU33
	cmp	r8, rax	# _43, ivtmp.14
	jne	.L4	#,
.LBE25:
	.loc 1 39 13 view .LVU34
.LVL10:
.LBB36:
.LBI36:
	.loc 2 873 1 view .LVU35
.LBB37:
	.loc 2 875 3 view .LVU36
.LBE37:
.LBE36:
.LBE40:
# ../src/dgemm_avx256.cpp:30:         for( uint32_t j = 0; j < n; j++ ) 
	.loc 1 30 9 is_stmt 0 discriminator 2 view .LVU37
	inc	ebx	# j
.LVL11:
.LBB41:
.LBB39:
.LBB38:
# /usr/lib/gcc/x86_64-pc-linux-gnu/13.1.1/include/avxintrin.h:875:   *(__m256d *)__P = __A;
	.loc 2 875 19 view .LVU38
	vmovapd	YMMWORD PTR [r11], ymm0	# MEM[(__m256d * {ref-all})_6], c0
.LVL12:
	.loc 2 875 19 view .LVU39
.LBE38:
.LBE39:
.LBE41:
	.loc 1 30 9 is_stmt 1 discriminator 2 view .LVU40
	.loc 1 30 32 discriminator 1 view .LVU41
	add	r10d, edi	# ivtmp.20, n
	cmp	edi, ebx	# n, j
	jne	.L5	#,
.LBE19:
	.loc 1 28 5 discriminator 2 view .LVU42
# ../src/dgemm_avx256.cpp:28:     for( uint32_t i = 0; i < n; i += 4 )
	.loc 1 28 35 is_stmt 0 discriminator 2 view .LVU43
	add	r15d, 4	# i,
.LVL13:
	.loc 1 28 28 is_stmt 1 discriminator 1 view .LVU44
	cmp	r15d, edi	# i, n
	jb	.L2	#,
	vzeroupper
.LVL14:
.LBE42:
# ../src/dgemm_avx256.cpp:42: }
	.loc 1 42 1 is_stmt 0 view .LVU45
	pop	rbx	#
.LVL15:
	.loc 1 42 1 view .LVU46
	pop	r12	#
.LVL16:
	.loc 1 42 1 view .LVU47
	pop	r13	#
.LVL17:
	.loc 1 42 1 view .LVU48
	pop	r14	#
	pop	r15	#
.LVL18:
	.loc 1 42 1 view .LVU49
	pop	rbp	#
	.cfi_def_cfa 7, 8
	ret	
.LVL19:
.L17:
	.cfi_restore 3
	.cfi_restore 6
	.cfi_restore 12
	.cfi_restore 13
	.cfi_restore 14
	.cfi_restore 15
	.loc 1 42 1 view .LVU50
	ret	
	.cfi_endproc
.LFE6625:
	.size	_Z12dgemm_avx256jPKdS0_Pd, .-_Z12dgemm_avx256jPKdS0_Pd
.Letext0:
	.file 3 "/usr/include/bits/types.h"
	.file 4 "/usr/include/bits/stdint-intn.h"
	.file 5 "/usr/include/bits/stdint-uintn.h"
	.file 6 "/usr/include/stdint.h"
	.file 7 "/usr/include/c++/13.1.1/cstdint"
	.file 8 "/usr/include/c++/13.1.1/cstdlib"
	.file 9 "/usr/include/c++/13.1.1/bits/std_abs.h"
	.file 10 "/usr/lib/gcc/x86_64-pc-linux-gnu/13.1.1/include/stddef.h"
	.file 11 "/usr/include/stdlib.h"
	.file 12 "/usr/include/bits/stdlib-float.h"
	.file 13 "/usr/include/bits/stdlib-bsearch.h"
	.file 14 "/usr/include/c++/13.1.1/stdlib.h"
	.file 15 "/usr/include/c++/13.1.1/x86_64-pc-linux-gnu/bits/c++config.h"
	.section	.note.GNU-stack,"",@progbits
